ARM GAS  C:\Users\ADMINI~1\AppData\Local\Temp\ccFqYBCc.s 			page 1


   1              		.syntax unified
   2              		.cpu cortex-m3
   3              		.fpu softvfp
   4              		.eabi_attribute 20, 1
   5              		.eabi_attribute 21, 1
   6              		.eabi_attribute 23, 3
   7              		.eabi_attribute 24, 1
   8              		.eabi_attribute 25, 1
   9              		.eabi_attribute 26, 1
  10              		.eabi_attribute 30, 1
  11              		.eabi_attribute 34, 1
  12              		.eabi_attribute 18, 4
  13              		.thumb
  14              		.file	"Control.c"
  15              		.text
  16              	.Ltext0:
  17              		.cfi_sections	.debug_frame
  18              		.section	.text.Control_Func_InitVariable,"ax",%progbits
  19              		.align	2
  20              		.global	Control_Func_InitVariable
  21              		.thumb
  22              		.thumb_func
  23              		.type	Control_Func_InitVariable, %function
  24              	Control_Func_InitVariable:
  25              	.LFB63:
  26              		.file 1 ".\\Control.c"
   1:.\Control.c   **** #include "Control.h"
   2:.\Control.c   **** 
   3:.\Control.c   **** //æ¥è‡ªè“ç‰™çš„æ•°æ®
   4:.\Control.c   **** extern int BT_Throttle, BT_Yaw, BT_Pitch, BT_Roll;
   5:.\Control.c   **** extern float roll_angle_offset, pitch_angle_offset;
   6:.\Control.c   **** extern float Desire_angle_pitch, Desire_angle_roll, Desire_w_yaw;
   7:.\Control.c   **** //æ¥è‡ªJY901çš„æ•°æ®
   8:.\Control.c   **** extern float AccelX, AccelY, AccelZ;     //ä¸‰è½´åŠ é€Ÿåº¦ï¼Œå•ä½ä¸ºg
   9:.\Control.c   **** extern float OmegaX, OmegaY, OmegaZ;     //ä¸‰è½´è§’é€Ÿåº¦ï¼Œå•ä½ä¸ºÂ°/s
  10:.\Control.c   **** extern float Temperature;                //æµ‹é‡æ¸©åº¦
  11:.\Control.c   **** extern float Roll, Pitch, Yaw;           //ä¸‰è½´è§’åº¦ï¼Œå•ä½ä¸ºÂ°
  12:.\Control.c   **** extern int MagX, MagY, MagZ;             //ä¸‰è½´ç£åœº
  13:.\Control.c   **** 
  14:.\Control.c   **** //å…¶ä»–ä¸´æ—¶å˜é‡
  15:.\Control.c   **** int set_speed_1, set_speed_2, set_speed_3, set_speed_4; //å‚¨å­˜è®¾å®šçš„é€Ÿåº¦
  16:.\Control.c   **** float Error_roll, Error_pitch, Error_w_yaw; //ä¸‰è½´è§’åº¦/Yawè§’é€Ÿåº¦çš„è¯¯å·®
  17:.\Control.c   **** float last_Error_roll, last_Error_pitch, last_Error_w_yaw; //ä¸Šä¸€æ—¶åˆ»çš„è§’åº¦è¯¯å·®ï¼Œç”¨äºæ±
  18:.\Control.c   **** float int_Error_roll, int_Error_pitch, int_Error_w_yaw; //è¯¯å·®çš„ç§¯åˆ†
  19:.\Control.c   **** 
  20:.\Control.c   **** float Desire_w_roll, Desire_w_pitch; //æœŸæœ›çš„Rollå’ŒPitchçš„è§’é€Ÿåº¦
  21:.\Control.c   **** float Error_w_roll, Error_w_pitch; //Rollå’ŒPitchè§’é€Ÿåº¦çš„è¯¯å·®
  22:.\Control.c   **** float last_Error_w_roll, last_Error_w_pitch; //ä¸Šä¸€æ—¶åˆ»çš„Rollå’ŒPitchè§’é€Ÿåº¦è¯¯å·®ï¼Œç”¨äºæ
  23:.\Control.c   **** float int_Error_w_roll, int_Error_w_pitch; //è§’é€Ÿåº¦è¯¯å·®çš„ç§¯åˆ†
  24:.\Control.c   **** float Control_Roll, Control_Pitch, Control_Yaw;
  25:.\Control.c   **** 
  26:.\Control.c   **** //PIDç›¸å…³å‚æ•°
  27:.\Control.c   **** #define angle_P_roll  2.0 //PIDå‚æ•°æœ‰å¾…è°ƒæ•´
  28:.\Control.c   **** #define angle_I_roll  0.0
  29:.\Control.c   **** #define angle_D_roll  0.0
  30:.\Control.c   **** #define angle_P_pitch 2.0
  31:.\Control.c   **** #define angle_I_pitch 0.0
ARM GAS  C:\Users\ADMINI~1\AppData\Local\Temp\ccFqYBCc.s 			page 2


  32:.\Control.c   **** #define angle_D_pitch 0.0
  33:.\Control.c   **** #define Omega_P_roll  2.0
  34:.\Control.c   **** #define Omega_I_roll  0.0
  35:.\Control.c   **** #define Omega_D_roll  0.0
  36:.\Control.c   **** #define Omega_P_pitch 2.0
  37:.\Control.c   **** #define Omega_I_pitch 0.0
  38:.\Control.c   **** #define Omega_D_pitch 0.0
  39:.\Control.c   **** #define Omega_P_yaw   3.0
  40:.\Control.c   **** #define Omega_I_yaw   0.0
  41:.\Control.c   **** #define Omega_D_yaw   0.0
  42:.\Control.c   **** 
  43:.\Control.c   **** //ç§¯åˆ†ä¸Šé™
  44:.\Control.c   **** #define Angle_Int_Sup 1000.0
  45:.\Control.c   **** #define Omega_Int_Sup 1000.0
  46:.\Control.c   **** 
  47:.\Control.c   **** //æœŸæœ›åè§’/è§’é€Ÿåº¦é™åˆ¶
  48:.\Control.c   **** #define Angle_Roll_Sup   30.0
  49:.\Control.c   **** #define Angle_Roll_Inf  -30.0
  50:.\Control.c   **** #define Angle_Pitch_Sup  30.0
  51:.\Control.c   **** #define Angle_Pitch_Inf -30.0
  52:.\Control.c   **** #define Omega_Yaw_Sup    40.0
  53:.\Control.c   **** #define Omega_Yaw_Inf   -40.0
  54:.\Control.c   **** 
  55:.\Control.c   **** //ç”µæœºè½¬é€Ÿ
  56:.\Control.c   **** extern int Motor_v_1, Motor_v_2,  Motor_v_3,  Motor_v_4;
  57:.\Control.c   **** 
  58:.\Control.c   **** int tmpcount = 0; //================================
  59:.\Control.c   **** 
  60:.\Control.c   **** //åˆå§‹åŒ–æ‰€æœ‰å˜é‡
  61:.\Control.c   **** void Control_Func_InitVariable() {
  27              		.loc 1 61 0
  28              		.cfi_startproc
  29              		@ args = 0, pretend = 0, frame = 0
  30              		@ frame_needed = 0, uses_anonymous_args = 0
  31              		@ link register save eliminated.
  62:.\Control.c   ****     set_speed_1 = set_speed_2 = set_speed_3 = set_speed_4 = 0;
  32              		.loc 1 62 0
  33 0000 0023     		movs	r3, #0
  34 0002 194A     		ldr	r2, .L2
  35 0004 1360     		str	r3, [r2]
  36 0006 194A     		ldr	r2, .L2+4
  37 0008 1360     		str	r3, [r2]
  38 000a 194A     		ldr	r2, .L2+8
  39 000c 1360     		str	r3, [r2]
  40 000e 194A     		ldr	r2, .L2+12
  41 0010 1360     		str	r3, [r2]
  63:.\Control.c   ****     Error_roll = Error_pitch = Error_w_yaw = Error_w_pitch = Error_w_roll = 0.0;
  42              		.loc 1 63 0
  43 0012 0023     		movs	r3, #0
  44 0014 184A     		ldr	r2, .L2+16
  45 0016 1360     		str	r3, [r2]	@ float
  46 0018 184A     		ldr	r2, .L2+20
  47 001a 1360     		str	r3, [r2]	@ float
  48 001c 184A     		ldr	r2, .L2+24
  49 001e 1360     		str	r3, [r2]	@ float
  50 0020 184A     		ldr	r2, .L2+28
  51 0022 1360     		str	r3, [r2]	@ float
ARM GAS  C:\Users\ADMINI~1\AppData\Local\Temp\ccFqYBCc.s 			page 3


  52 0024 184A     		ldr	r2, .L2+32
  53 0026 1360     		str	r3, [r2]	@ float
  64:.\Control.c   ****     last_Error_roll = last_Error_pitch = last_Error_w_yaw = last_Error_w_pitch = last_Error_w_roll 
  54              		.loc 1 64 0
  55 0028 184A     		ldr	r2, .L2+36
  56 002a 1360     		str	r3, [r2]	@ float
  57 002c 184A     		ldr	r2, .L2+40
  58 002e 1360     		str	r3, [r2]	@ float
  59 0030 184A     		ldr	r2, .L2+44
  60 0032 1360     		str	r3, [r2]	@ float
  61 0034 184A     		ldr	r2, .L2+48
  62 0036 1360     		str	r3, [r2]	@ float
  63 0038 184A     		ldr	r2, .L2+52
  64 003a 1360     		str	r3, [r2]	@ float
  65:.\Control.c   ****     int_Error_pitch = int_Error_roll = int_Error_w_pitch = int_Error_w_roll = int_Error_w_yaw = 0.0
  65              		.loc 1 65 0
  66 003c 184A     		ldr	r2, .L2+56
  67 003e 1360     		str	r3, [r2]	@ float
  68 0040 184A     		ldr	r2, .L2+60
  69 0042 1360     		str	r3, [r2]	@ float
  70 0044 184A     		ldr	r2, .L2+64
  71 0046 1360     		str	r3, [r2]	@ float
  72 0048 184A     		ldr	r2, .L2+68
  73 004a 1360     		str	r3, [r2]	@ float
  74 004c 184A     		ldr	r2, .L2+72
  75 004e 1360     		str	r3, [r2]	@ float
  66:.\Control.c   ****     Desire_w_pitch = Desire_w_roll = 0.0;
  76              		.loc 1 66 0
  77 0050 184A     		ldr	r2, .L2+76
  78 0052 1360     		str	r3, [r2]	@ float
  79 0054 184A     		ldr	r2, .L2+80
  80 0056 1360     		str	r3, [r2]	@ float
  67:.\Control.c   ****     Control_Roll = Control_Pitch = Control_Yaw = 0.0;
  81              		.loc 1 67 0
  82 0058 184A     		ldr	r2, .L2+84
  83 005a 1360     		str	r3, [r2]	@ float
  84 005c 184A     		ldr	r2, .L2+88
  85 005e 1360     		str	r3, [r2]	@ float
  86 0060 184A     		ldr	r2, .L2+92
  87 0062 1360     		str	r3, [r2]	@ float
  88 0064 7047     		bx	lr
  89              	.L3:
  90 0066 00BF     		.align	2
  91              	.L2:
  92 0068 00000000 		.word	set_speed_4
  93 006c 00000000 		.word	set_speed_3
  94 0070 00000000 		.word	set_speed_2
  95 0074 00000000 		.word	set_speed_1
  96 0078 00000000 		.word	Error_w_roll
  97 007c 00000000 		.word	Error_w_pitch
  98 0080 00000000 		.word	Error_w_yaw
  99 0084 00000000 		.word	Error_pitch
 100 0088 00000000 		.word	Error_roll
 101 008c 00000000 		.word	last_Error_w_roll
 102 0090 00000000 		.word	last_Error_w_pitch
 103 0094 00000000 		.word	last_Error_w_yaw
 104 0098 00000000 		.word	last_Error_pitch
ARM GAS  C:\Users\ADMINI~1\AppData\Local\Temp\ccFqYBCc.s 			page 4


 105 009c 00000000 		.word	last_Error_roll
 106 00a0 00000000 		.word	int_Error_w_yaw
 107 00a4 00000000 		.word	int_Error_w_roll
 108 00a8 00000000 		.word	int_Error_w_pitch
 109 00ac 00000000 		.word	int_Error_roll
 110 00b0 00000000 		.word	int_Error_pitch
 111 00b4 00000000 		.word	Desire_w_roll
 112 00b8 00000000 		.word	Desire_w_pitch
 113 00bc 00000000 		.word	Control_Yaw
 114 00c0 00000000 		.word	Control_Pitch
 115 00c4 00000000 		.word	Control_Roll
 116              		.cfi_endproc
 117              	.LFE63:
 118              		.size	Control_Func_InitVariable, .-Control_Func_InitVariable
 119              		.global	__aeabi_i2f
 120              		.global	__aeabi_f2d
 121              		.global	__aeabi_dsub
 122              		.global	__aeabi_dmul
 123              		.global	__aeabi_d2f
 124              		.global	__aeabi_fadd
 125              		.global	__aeabi_fcmplt
 126              		.global	__aeabi_fcmpgt
 127              		.global	__aeabi_fsub
 128              		.global	__aeabi_dadd
 129              		.global	__aeabi_f2iz
 130              		.section	.text.Control_Main,"ax",%progbits
 131              		.align	2
 132              		.global	Control_Main
 133              		.thumb
 134              		.thumb_func
 135              		.type	Control_Main, %function
 136              	Control_Main:
 137              	.LFB64:
  68:.\Control.c   **** }
  69:.\Control.c   **** 
  70:.\Control.c   **** //ä¸»è¦æ§åˆ¶ç®—æ³•
  71:.\Control.c   **** void Control_Main() {
 138              		.loc 1 71 0
 139              		.cfi_startproc
 140              		@ args = 0, pretend = 0, frame = 8
 141              		@ frame_needed = 0, uses_anonymous_args = 0
 142 0000 2DE9F04F 		push	{r4, r5, r6, r7, r8, r9, r10, fp, lr}
 143              		.cfi_def_cfa_offset 36
 144              		.cfi_offset 4, -36
 145              		.cfi_offset 5, -32
 146              		.cfi_offset 6, -28
 147              		.cfi_offset 7, -24
 148              		.cfi_offset 8, -20
 149              		.cfi_offset 9, -16
 150              		.cfi_offset 10, -12
 151              		.cfi_offset 11, -8
 152              		.cfi_offset 14, -4
 153 0004 83B0     		sub	sp, sp, #12
 154              		.cfi_def_cfa_offset 48
  72:.\Control.c   ****     //è®¾å®šæ ¹æ®æ²¹é—¨å¤§å°è®¾å®šè½¬é€Ÿï¼Œå¹¶ç•™å‡ºæ§åˆ¶ä½™é‡
  73:.\Control.c   ****     set_speed_1 = BT_Throttle * 900 / 1024;
 155              		.loc 1 73 0
ARM GAS  C:\Users\ADMINI~1\AppData\Local\Temp\ccFqYBCc.s 			page 5


 156 0006 644B     		ldr	r3, .L56
 157 0008 1C68     		ldr	r4, [r3]
 158 000a 4FF46173 		mov	r3, #900
 159 000e 03FB04F4 		mul	r4, r3, r4
 160 0012 002C     		cmp	r4, #0
 161 0014 01DA     		bge	.L5
 162 0016 04F2FF34 		addw	r4, r4, #1023
 163              	.L5:
 164 001a A412     		asrs	r4, r4, #10
  74:.\Control.c   ****     set_speed_2 = BT_Throttle * 900 / 1024;
  75:.\Control.c   ****     set_speed_3 = BT_Throttle * 900 / 1024;
  76:.\Control.c   ****     set_speed_4 = BT_Throttle * 900 / 1024;
  77:.\Control.c   ****     
  78:.\Control.c   ****     //è§£ç è“ç‰™ä¼ è¾“çš„è®¾å®šè§’åº¦
  79:.\Control.c   ****     //Desire_angle_pitch = -((float)BT_Pitch - 512.0) * 30.0 / 512.0;
  80:.\Control.c   ****     //Desire_angle_roll = ((float)BT_Roll - 512.0) * 30.0 / 512.0;
  81:.\Control.c   ****     Desire_angle_pitch = ((float)BT_Roll - 512.0) * 30.0 / 512.0;
 165              		.loc 1 81 0
 166 001c 5F4B     		ldr	r3, .L56+4
 167 001e 1868     		ldr	r0, [r3]
 168 0020 FFF7FEFF 		bl	__aeabi_i2f
 169              	.LVL0:
 170 0024 FFF7FEFF 		bl	__aeabi_f2d
 171              	.LVL1:
 172 0028 0022     		movs	r2, #0
 173 002a 4FF08143 		mov	r3, #1082130432
 174 002e FFF7FEFF 		bl	__aeabi_dsub
 175              	.LVL2:
 176 0032 0022     		movs	r2, #0
 177 0034 5A4B     		ldr	r3, .L56+8
 178 0036 FFF7FEFF 		bl	__aeabi_dmul
 179              	.LVL3:
 180 003a 0022     		movs	r2, #0
 181 003c 594B     		ldr	r3, .L56+12
 182 003e FFF7FEFF 		bl	__aeabi_dmul
 183              	.LVL4:
 184 0042 FFF7FEFF 		bl	__aeabi_d2f
 185              	.LVL5:
 186 0046 0546     		mov	r5, r0
  82:.\Control.c   ****     Desire_angle_roll = ((float)BT_Pitch - 512.0) * 30.0 / 512.0;
 187              		.loc 1 82 0
 188 0048 574B     		ldr	r3, .L56+16
 189 004a 1868     		ldr	r0, [r3]
 190 004c FFF7FEFF 		bl	__aeabi_i2f
 191              	.LVL6:
 192 0050 FFF7FEFF 		bl	__aeabi_f2d
 193              	.LVL7:
 194 0054 0022     		movs	r2, #0
 195 0056 4FF08143 		mov	r3, #1082130432
 196 005a FFF7FEFF 		bl	__aeabi_dsub
 197              	.LVL8:
 198 005e 0022     		movs	r2, #0
 199 0060 4F4B     		ldr	r3, .L56+8
 200 0062 FFF7FEFF 		bl	__aeabi_dmul
 201              	.LVL9:
 202 0066 0022     		movs	r2, #0
 203 0068 4E4B     		ldr	r3, .L56+12
ARM GAS  C:\Users\ADMINI~1\AppData\Local\Temp\ccFqYBCc.s 			page 6


 204 006a FFF7FEFF 		bl	__aeabi_dmul
 205              	.LVL10:
 206 006e FFF7FEFF 		bl	__aeabi_d2f
 207              	.LVL11:
 208 0072 0646     		mov	r6, r0
  83:.\Control.c   ****     Desire_w_yaw = ((float)BT_Yaw - 512.0) * 40.0 / 512.0;
 209              		.loc 1 83 0
 210 0074 4D4B     		ldr	r3, .L56+20
 211 0076 1868     		ldr	r0, [r3]
 212 0078 FFF7FEFF 		bl	__aeabi_i2f
 213              	.LVL12:
 214 007c FFF7FEFF 		bl	__aeabi_f2d
 215              	.LVL13:
 216 0080 0022     		movs	r2, #0
 217 0082 4FF08143 		mov	r3, #1082130432
 218 0086 FFF7FEFF 		bl	__aeabi_dsub
 219              	.LVL14:
 220 008a 0022     		movs	r2, #0
 221 008c 484B     		ldr	r3, .L56+24
 222 008e FFF7FEFF 		bl	__aeabi_dmul
 223              	.LVL15:
 224 0092 0022     		movs	r2, #0
 225 0094 434B     		ldr	r3, .L56+12
 226 0096 FFF7FEFF 		bl	__aeabi_dmul
 227              	.LVL16:
 228 009a FFF7FEFF 		bl	__aeabi_d2f
 229              	.LVL17:
 230 009e 8146     		mov	r9, r0
  84:.\Control.c   ****     
  85:.\Control.c   ****     //åº”ç”¨è§’åº¦åç½®
  86:.\Control.c   ****     Roll += roll_angle_offset;
 231              		.loc 1 86 0
 232 00a0 444F     		ldr	r7, .L56+28
 233 00a2 3868     		ldr	r0, [r7]	@ float
 234 00a4 444B     		ldr	r3, .L56+32
 235 00a6 1968     		ldr	r1, [r3]	@ float
 236 00a8 FFF7FEFF 		bl	__aeabi_fadd
 237              	.LVL18:
 238 00ac 8046     		mov	r8, r0
 239 00ae 3860     		str	r0, [r7]	@ float
  87:.\Control.c   ****     Pitch += pitch_angle_offset;
 240              		.loc 1 87 0
 241 00b0 DFF840A1 		ldr	r10, .L56+92
 242 00b4 DAF80000 		ldr	r0, [r10]	@ float
 243 00b8 404B     		ldr	r3, .L56+36
 244 00ba 1968     		ldr	r1, [r3]	@ float
 245 00bc FFF7FEFF 		bl	__aeabi_fadd
 246              	.LVL19:
 247 00c0 0746     		mov	r7, r0
 248 00c2 CAF80000 		str	r0, [r10]	@ float
  88:.\Control.c   ****     
  89:.\Control.c   ****     //PIDæ§åˆ¶
  90:.\Control.c   ****     //å¯¹äºRollå’ŒPitchï¼Œä½¿ç”¨ä¸¤å±‚é—­ç¯PID
  91:.\Control.c   ****     //ç¬¬ä¸€å±‚æ ¹æ®è§’åº¦çš„è¯¯å·®ç”ŸæˆæœŸæœ›è§’é€Ÿåº¦
  92:.\Control.c   ****     //ç¬¬äºŒå±‚æ ¹æ®è§’é€Ÿåº¦è¯¯å·®è¿›è¡Œæ§åˆ¶
  93:.\Control.c   ****     //å¯¹äºYawï¼Œå› ä¸ºæ— æ³•ç²¾ç¡®è®¡ç®—è§’åº¦ï¼Œä»…å¯¹è§’é€Ÿåº¦è¿›è¡Œä¸€å±‚é—­ç¯çš„PIDæ§åˆ¶
  94:.\Control.c   ****     
ARM GAS  C:\Users\ADMINI~1\AppData\Local\Temp\ccFqYBCc.s 			page 7


  95:.\Control.c   ****     //é™åˆ¶æœŸæœ›åè§’
  96:.\Control.c   ****     Desire_angle_pitch = (Desire_angle_pitch < Angle_Pitch_Inf)?(Angle_Pitch_Inf):((Desire_angle_pi
 249              		.loc 1 96 0
 250 00c6 2846     		mov	r0, r5
 251 00c8 3D49     		ldr	r1, .L56+40
 252 00ca FFF7FEFF 		bl	__aeabi_fcmplt
 253              	.LVL20:
 254 00ce 30B9     		cbnz	r0, .L35
 255              		.loc 1 96 0 is_stmt 0 discriminator 2
 256 00d0 2846     		mov	r0, r5
 257 00d2 3C49     		ldr	r1, .L56+44
 258 00d4 FFF7FEFF 		bl	__aeabi_fcmpgt
 259              	.LVL21:
 260 00d8 10B1     		cbz	r0, .L6
 261              		.loc 1 96 0
 262 00da 3A4D     		ldr	r5, .L56+44
 263 00dc 00E0     		b	.L6
 264              	.L35:
 265 00de 384D     		ldr	r5, .L56+40
 266              	.L6:
 267              		.loc 1 96 0 discriminator 8
 268 00e0 394B     		ldr	r3, .L56+48
 269 00e2 1D60     		str	r5, [r3]	@ float
  97:.\Control.c   ****     Desire_angle_roll = (Desire_angle_roll < Angle_Roll_Inf)?(Angle_Roll_Inf):((Desire_angle_roll >
 270              		.loc 1 97 0 is_stmt 1 discriminator 8
 271 00e4 3046     		mov	r0, r6
 272 00e6 3649     		ldr	r1, .L56+40
 273 00e8 FFF7FEFF 		bl	__aeabi_fcmplt
 274              	.LVL22:
 275 00ec 30B9     		cbnz	r0, .L36
 276              		.loc 1 97 0 is_stmt 0 discriminator 2
 277 00ee 3046     		mov	r0, r6
 278 00f0 3449     		ldr	r1, .L56+44
 279 00f2 FFF7FEFF 		bl	__aeabi_fcmpgt
 280              	.LVL23:
 281 00f6 10B1     		cbz	r0, .L9
 282              		.loc 1 97 0
 283 00f8 324E     		ldr	r6, .L56+44
 284 00fa 00E0     		b	.L9
 285              	.L36:
 286 00fc 304E     		ldr	r6, .L56+40
 287              	.L9:
 288              		.loc 1 97 0 discriminator 8
 289 00fe 334B     		ldr	r3, .L56+52
 290 0100 1E60     		str	r6, [r3]	@ float
  98:.\Control.c   ****     Desire_w_yaw = (Desire_w_yaw < Omega_Yaw_Inf)?(Omega_Yaw_Inf):((Desire_w_yaw > Omega_Yaw_Sup)?(
 291              		.loc 1 98 0 is_stmt 1 discriminator 8
 292 0102 4846     		mov	r0, r9
 293 0104 3249     		ldr	r1, .L56+56
 294 0106 FFF7FEFF 		bl	__aeabi_fcmplt
 295              	.LVL24:
 296 010a 38B9     		cbnz	r0, .L37
 297              		.loc 1 98 0 is_stmt 0 discriminator 2
 298 010c 4846     		mov	r0, r9
 299 010e 3149     		ldr	r1, .L56+60
 300 0110 FFF7FEFF 		bl	__aeabi_fcmpgt
 301              	.LVL25:
ARM GAS  C:\Users\ADMINI~1\AppData\Local\Temp\ccFqYBCc.s 			page 8


 302 0114 20B1     		cbz	r0, .L12
 303              		.loc 1 98 0
 304 0116 DFF8BC90 		ldr	r9, .L56+60
 305 011a 01E0     		b	.L12
 306              	.L37:
 307 011c DFF8B090 		ldr	r9, .L56+56
 308              	.L12:
 309              		.loc 1 98 0 discriminator 8
 310 0120 2D4B     		ldr	r3, .L56+64
 311 0122 C3F80090 		str	r9, [r3]	@ float
  99:.\Control.c   ****     
 100:.\Control.c   ****     //å¯¹Pitchå’ŒRollè§’åº¦ä¸¤å±‚PIDæ§åˆ¶
 101:.\Control.c   ****     //è®¡ç®—è§’åº¦è¯¯å·®
 102:.\Control.c   ****     Error_roll = Desire_angle_roll - Roll;
 312              		.loc 1 102 0 is_stmt 1 discriminator 8
 313 0126 3046     		mov	r0, r6
 314 0128 4146     		mov	r1, r8
 315 012a FFF7FEFF 		bl	__aeabi_fsub
 316              	.LVL26:
 317 012e 8046     		mov	r8, r0
 318 0130 2A4B     		ldr	r3, .L56+68
 319 0132 1860     		str	r0, [r3]	@ float
 103:.\Control.c   ****     Error_pitch = Desire_angle_pitch - Pitch;
 320              		.loc 1 103 0 discriminator 8
 321 0134 2846     		mov	r0, r5
 322 0136 3946     		mov	r1, r7
 323 0138 FFF7FEFF 		bl	__aeabi_fsub
 324              	.LVL27:
 325 013c 0546     		mov	r5, r0
 326 013e 284B     		ldr	r3, .L56+72
 327 0140 1860     		str	r0, [r3]	@ float
 104:.\Control.c   ****     
 105:.\Control.c   ****     //ç§¯åˆ†å’Œç§¯åˆ†é™å¹…
 106:.\Control.c   ****     int_Error_roll += Error_roll;
 328              		.loc 1 106 0 discriminator 8
 329 0142 4046     		mov	r0, r8
 330 0144 274B     		ldr	r3, .L56+76
 331 0146 1968     		ldr	r1, [r3]	@ float
 332 0148 FFF7FEFF 		bl	__aeabi_fadd
 333              	.LVL28:
 334 014c 8346     		mov	fp, r0
 107:.\Control.c   ****     int_Error_pitch += Error_pitch;
 335              		.loc 1 107 0 discriminator 8
 336 014e 2846     		mov	r0, r5
 337 0150 254B     		ldr	r3, .L56+80
 338 0152 1968     		ldr	r1, [r3]	@ float
 339 0154 FFF7FEFF 		bl	__aeabi_fadd
 340              	.LVL29:
 341 0158 8246     		mov	r10, r0
 108:.\Control.c   ****     int_Error_roll = (int_Error_roll > Angle_Int_Sup)?(Angle_Int_Sup):((int_Error_roll < -Angle_Int
 342              		.loc 1 108 0 discriminator 8
 343 015a 5846     		mov	r0, fp
 344 015c 2349     		ldr	r1, .L56+84
 345 015e FFF7FEFF 		bl	__aeabi_fcmpgt
 346              	.LVL30:
 347 0162 38B9     		cbnz	r0, .L38
 348              		.loc 1 108 0 is_stmt 0 discriminator 2
ARM GAS  C:\Users\ADMINI~1\AppData\Local\Temp\ccFqYBCc.s 			page 9


 349 0164 5846     		mov	r0, fp
 350 0166 2249     		ldr	r1, .L56+88
 351 0168 FFF7FEFF 		bl	__aeabi_fcmplt
 352              	.LVL31:
 353 016c 20B1     		cbz	r0, .L15
 354              		.loc 1 108 0
 355 016e DFF880B0 		ldr	fp, .L56+88
 356 0172 01E0     		b	.L15
 357              	.L38:
 358 0174 DFF874B0 		ldr	fp, .L56+84
 359              	.L15:
 360              		.loc 1 108 0 discriminator 8
 361 0178 1A4B     		ldr	r3, .L56+76
 362 017a C3F800B0 		str	fp, [r3]	@ float
 109:.\Control.c   ****     int_Error_pitch = (int_Error_pitch > Angle_Int_Sup)?(Angle_Int_Sup):((int_Error_pitch < -Angle_
 363              		.loc 1 109 0 is_stmt 1 discriminator 8
 364 017e 5046     		mov	r0, r10
 365 0180 1A49     		ldr	r1, .L56+84
 366 0182 FFF7FEFF 		bl	__aeabi_fcmpgt
 367              	.LVL32:
 368 0186 B8BB     		cbnz	r0, .L39
 369              		.loc 1 109 0 is_stmt 0 discriminator 2
 370 0188 5046     		mov	r0, r10
 371 018a 1949     		ldr	r1, .L56+88
 372 018c FFF7FEFF 		bl	__aeabi_fcmplt
 373              	.LVL33:
 374 0190 A0B3     		cbz	r0, .L18
 375              		.loc 1 109 0
 376 0192 DFF85CA0 		ldr	r10, .L56+88
 377 0196 31E0     		b	.L18
 378              	.L57:
 379              		.align	2
 380              	.L56:
 381 0198 00000000 		.word	BT_Throttle
 382 019c 00000000 		.word	BT_Roll
 383 01a0 00003E40 		.word	1077805056
 384 01a4 0000603F 		.word	1063256064
 385 01a8 00000000 		.word	BT_Pitch
 386 01ac 00000000 		.word	BT_Yaw
 387 01b0 00004440 		.word	1078198272
 388 01b4 00000000 		.word	Roll
 389 01b8 00000000 		.word	roll_angle_offset
 390 01bc 00000000 		.word	pitch_angle_offset
 391 01c0 0000F0C1 		.word	-1041235968
 392 01c4 0000F041 		.word	1106247680
 393 01c8 00000000 		.word	Desire_angle_pitch
 394 01cc 00000000 		.word	Desire_angle_roll
 395 01d0 000020C2 		.word	-1038090240
 396 01d4 00002042 		.word	1109393408
 397 01d8 00000000 		.word	Desire_w_yaw
 398 01dc 00000000 		.word	Error_roll
 399 01e0 00000000 		.word	Error_pitch
 400 01e4 00000000 		.word	int_Error_roll
 401 01e8 00000000 		.word	int_Error_pitch
 402 01ec 00007A44 		.word	1148846080
 403 01f0 00007AC4 		.word	-998637568
 404 01f4 00000000 		.word	Pitch
ARM GAS  C:\Users\ADMINI~1\AppData\Local\Temp\ccFqYBCc.s 			page 10


 405              	.L39:
 406 01f8 DFF864A2 		ldr	r10, .L58+40
 407              	.L18:
 408              		.loc 1 109 0 discriminator 8
 409 01fc 8E4B     		ldr	r3, .L58
 410 01fe C3F800A0 		str	r10, [r3]	@ float
 110:.\Control.c   ****     
 111:.\Control.c   ****     //PIDç”ŸæˆæœŸæœ›è§’é€Ÿåº¦
 112:.\Control.c   ****     Desire_w_roll = Error_roll*angle_P_roll + int_Error_roll*angle_I_roll + (Error_roll - last_Erro
 411              		.loc 1 112 0 is_stmt 1 discriminator 8
 412 0202 4046     		mov	r0, r8
 413 0204 FFF7FEFF 		bl	__aeabi_f2d
 414              	.LVL34:
 415 0208 0246     		mov	r2, r0
 416 020a 0B46     		mov	r3, r1
 417 020c FFF7FEFF 		bl	__aeabi_dadd
 418              	.LVL35:
 419 0210 0646     		mov	r6, r0
 420 0212 0F46     		mov	r7, r1
 421 0214 5846     		mov	r0, fp
 422 0216 FFF7FEFF 		bl	__aeabi_f2d
 423              	.LVL36:
 424 021a 0022     		movs	r2, #0
 425 021c 0023     		movs	r3, #0
 426 021e FFF7FEFF 		bl	__aeabi_dmul
 427              	.LVL37:
 428 0222 0246     		mov	r2, r0
 429 0224 0B46     		mov	r3, r1
 430 0226 3046     		mov	r0, r6
 431 0228 3946     		mov	r1, r7
 432 022a FFF7FEFF 		bl	__aeabi_dadd
 433              	.LVL38:
 434 022e 0646     		mov	r6, r0
 435 0230 0F46     		mov	r7, r1
 436 0232 DFF84CB2 		ldr	fp, .L58+72
 437 0236 4046     		mov	r0, r8
 438 0238 DBF80010 		ldr	r1, [fp]	@ float
 439 023c FFF7FEFF 		bl	__aeabi_fsub
 440              	.LVL39:
 441 0240 FFF7FEFF 		bl	__aeabi_f2d
 442              	.LVL40:
 443 0244 0022     		movs	r2, #0
 444 0246 0023     		movs	r3, #0
 445 0248 FFF7FEFF 		bl	__aeabi_dmul
 446              	.LVL41:
 447 024c 0246     		mov	r2, r0
 448 024e 0B46     		mov	r3, r1
 449 0250 3046     		mov	r0, r6
 450 0252 3946     		mov	r1, r7
 451 0254 FFF7FEFF 		bl	__aeabi_dadd
 452              	.LVL42:
 453 0258 FFF7FEFF 		bl	__aeabi_d2f
 454              	.LVL43:
 455 025c 0646     		mov	r6, r0
 456 025e 774B     		ldr	r3, .L58+4
 457 0260 1860     		str	r0, [r3]	@ float
 113:.\Control.c   ****     Desire_w_pitch = Error_pitch*angle_P_roll + int_Error_pitch*angle_I_roll + (Error_pitch - last_
ARM GAS  C:\Users\ADMINI~1\AppData\Local\Temp\ccFqYBCc.s 			page 11


 458              		.loc 1 113 0 discriminator 8
 459 0262 2846     		mov	r0, r5
 460 0264 FFF7FEFF 		bl	__aeabi_f2d
 461              	.LVL44:
 462 0268 0246     		mov	r2, r0
 463 026a 0B46     		mov	r3, r1
 464 026c FFF7FEFF 		bl	__aeabi_dadd
 465              	.LVL45:
 466 0270 CDE90001 		strd	r0, [sp]
 467 0274 5046     		mov	r0, r10
 468 0276 FFF7FEFF 		bl	__aeabi_f2d
 469              	.LVL46:
 470 027a 0022     		movs	r2, #0
 471 027c 0023     		movs	r3, #0
 472 027e FFF7FEFF 		bl	__aeabi_dmul
 473              	.LVL47:
 474 0282 0246     		mov	r2, r0
 475 0284 0B46     		mov	r3, r1
 476 0286 DDE90001 		ldrd	r0, [sp]
 477 028a FFF7FEFF 		bl	__aeabi_dadd
 478              	.LVL48:
 479 028e CDE90001 		strd	r0, [sp]
 480 0292 6B4F     		ldr	r7, .L58+8
 481 0294 2846     		mov	r0, r5
 482 0296 3968     		ldr	r1, [r7]	@ float
 483 0298 FFF7FEFF 		bl	__aeabi_fsub
 484              	.LVL49:
 485 029c FFF7FEFF 		bl	__aeabi_f2d
 486              	.LVL50:
 487 02a0 0022     		movs	r2, #0
 488 02a2 0023     		movs	r3, #0
 489 02a4 FFF7FEFF 		bl	__aeabi_dmul
 490              	.LVL51:
 491 02a8 0246     		mov	r2, r0
 492 02aa 0B46     		mov	r3, r1
 493 02ac DDE90001 		ldrd	r0, [sp]
 494 02b0 FFF7FEFF 		bl	__aeabi_dadd
 495              	.LVL52:
 496 02b4 FFF7FEFF 		bl	__aeabi_d2f
 497              	.LVL53:
 498 02b8 8246     		mov	r10, r0
 499 02ba 624B     		ldr	r3, .L58+12
 500 02bc 1860     		str	r0, [r3]	@ float
 114:.\Control.c   ****     
 115:.\Control.c   ****     //æ›´æ–°è§’åº¦è¯¯å·®
 116:.\Control.c   ****     last_Error_roll = Error_roll;
 501              		.loc 1 116 0 discriminator 8
 502 02be CBF80080 		str	r8, [fp]	@ float
 117:.\Control.c   ****     last_Error_pitch = Error_pitch;
 503              		.loc 1 117 0 discriminator 8
 504 02c2 3D60     		str	r5, [r7]	@ float
 118:.\Control.c   ****     
 119:.\Control.c   ****     //è®¡ç®—è§’é€Ÿåº¦è¯¯å·®
 120:.\Control.c   ****     Error_w_roll = Desire_w_roll - OmegaX; //å…·ä½“çš„è½´ä¸è§’é€Ÿåº¦çš„å¯¹åº”å…³ç³»æœ‰å¾…æµ‹é‡
 505              		.loc 1 120 0 discriminator 8
 506 02c4 3046     		mov	r0, r6
 507 02c6 604B     		ldr	r3, .L58+16
ARM GAS  C:\Users\ADMINI~1\AppData\Local\Temp\ccFqYBCc.s 			page 12


 508 02c8 1968     		ldr	r1, [r3]	@ float
 509 02ca FFF7FEFF 		bl	__aeabi_fsub
 510              	.LVL54:
 511 02ce 8046     		mov	r8, r0
 512 02d0 5E4B     		ldr	r3, .L58+20
 513 02d2 1860     		str	r0, [r3]	@ float
 121:.\Control.c   ****     Error_w_pitch = Desire_w_pitch - OmegaY;
 514              		.loc 1 121 0 discriminator 8
 515 02d4 5046     		mov	r0, r10
 516 02d6 5E4B     		ldr	r3, .L58+24
 517 02d8 1968     		ldr	r1, [r3]	@ float
 518 02da FFF7FEFF 		bl	__aeabi_fsub
 519              	.LVL55:
 520 02de 0546     		mov	r5, r0
 521 02e0 5C4B     		ldr	r3, .L58+28
 522 02e2 1860     		str	r0, [r3]	@ float
 122:.\Control.c   ****     
 123:.\Control.c   ****     //è§’é€Ÿåº¦è¯¯å·®ç§¯åˆ†å’Œç§¯åˆ†é™å¹…
 124:.\Control.c   ****     int_Error_w_roll += Error_w_roll;
 523              		.loc 1 124 0 discriminator 8
 524 02e4 4046     		mov	r0, r8
 525 02e6 5C4B     		ldr	r3, .L58+32
 526 02e8 1968     		ldr	r1, [r3]	@ float
 527 02ea FFF7FEFF 		bl	__aeabi_fadd
 528              	.LVL56:
 529 02ee 8346     		mov	fp, r0
 125:.\Control.c   ****     int_Error_w_pitch += Error_w_pitch;
 530              		.loc 1 125 0 discriminator 8
 531 02f0 2846     		mov	r0, r5
 532 02f2 5A4B     		ldr	r3, .L58+36
 533 02f4 1968     		ldr	r1, [r3]	@ float
 534 02f6 FFF7FEFF 		bl	__aeabi_fadd
 535              	.LVL57:
 536 02fa 8246     		mov	r10, r0
 126:.\Control.c   ****     int_Error_w_roll = (int_Error_w_roll > Omega_Int_Sup)?(Omega_Int_Sup):((int_Error_w_roll < -Ome
 537              		.loc 1 126 0 discriminator 8
 538 02fc 5846     		mov	r0, fp
 539 02fe 5849     		ldr	r1, .L58+40
 540 0300 FFF7FEFF 		bl	__aeabi_fcmpgt
 541              	.LVL58:
 542 0304 38B9     		cbnz	r0, .L40
 543              		.loc 1 126 0 is_stmt 0 discriminator 2
 544 0306 5846     		mov	r0, fp
 545 0308 5649     		ldr	r1, .L58+44
 546 030a FFF7FEFF 		bl	__aeabi_fcmplt
 547              	.LVL59:
 548 030e 20B1     		cbz	r0, .L21
 549              		.loc 1 126 0
 550 0310 DFF850B1 		ldr	fp, .L58+44
 551 0314 01E0     		b	.L21
 552              	.L40:
 553 0316 DFF848B1 		ldr	fp, .L58+40
 554              	.L21:
 555              		.loc 1 126 0 discriminator 8
 556 031a 4F4B     		ldr	r3, .L58+32
 557 031c C3F800B0 		str	fp, [r3]	@ float
 127:.\Control.c   ****     int_Error_w_pitch = (int_Error_w_pitch > Omega_Int_Sup)?(Omega_Int_Sup):((int_Error_w_pitch < -
ARM GAS  C:\Users\ADMINI~1\AppData\Local\Temp\ccFqYBCc.s 			page 13


 558              		.loc 1 127 0 is_stmt 1 discriminator 8
 559 0320 5046     		mov	r0, r10
 560 0322 4F49     		ldr	r1, .L58+40
 561 0324 FFF7FEFF 		bl	__aeabi_fcmpgt
 562              	.LVL60:
 563 0328 38B9     		cbnz	r0, .L41
 564              		.loc 1 127 0 is_stmt 0 discriminator 2
 565 032a 5046     		mov	r0, r10
 566 032c 4D49     		ldr	r1, .L58+44
 567 032e FFF7FEFF 		bl	__aeabi_fcmplt
 568              	.LVL61:
 569 0332 20B1     		cbz	r0, .L24
 570              		.loc 1 127 0
 571 0334 DFF82CA1 		ldr	r10, .L58+44
 572 0338 01E0     		b	.L24
 573              	.L41:
 574 033a DFF824A1 		ldr	r10, .L58+40
 575              	.L24:
 576              		.loc 1 127 0 discriminator 8
 577 033e 474B     		ldr	r3, .L58+36
 578 0340 C3F800A0 		str	r10, [r3]	@ float
 128:.\Control.c   ****     
 129:.\Control.c   ****     //PIDç”Ÿæˆæ§åˆ¶é‡
 130:.\Control.c   ****     Control_Roll = Error_w_roll*Omega_P_roll + int_Error_w_roll*Omega_I_roll + (Error_w_roll - last
 579              		.loc 1 130 0 is_stmt 1 discriminator 8
 580 0344 4046     		mov	r0, r8
 581 0346 FFF7FEFF 		bl	__aeabi_f2d
 582              	.LVL62:
 583 034a 0246     		mov	r2, r0
 584 034c 0B46     		mov	r3, r1
 585 034e FFF7FEFF 		bl	__aeabi_dadd
 586              	.LVL63:
 587 0352 0646     		mov	r6, r0
 588 0354 0F46     		mov	r7, r1
 589 0356 5846     		mov	r0, fp
 590 0358 FFF7FEFF 		bl	__aeabi_f2d
 591              	.LVL64:
 592 035c 0022     		movs	r2, #0
 593 035e 0023     		movs	r3, #0
 594 0360 FFF7FEFF 		bl	__aeabi_dmul
 595              	.LVL65:
 596 0364 0246     		mov	r2, r0
 597 0366 0B46     		mov	r3, r1
 598 0368 3046     		mov	r0, r6
 599 036a 3946     		mov	r1, r7
 600 036c FFF7FEFF 		bl	__aeabi_dadd
 601              	.LVL66:
 602 0370 0646     		mov	r6, r0
 603 0372 0F46     		mov	r7, r1
 604 0374 DFF80CB1 		ldr	fp, .L58+76
 605 0378 4046     		mov	r0, r8
 606 037a DBF80010 		ldr	r1, [fp]	@ float
 607 037e FFF7FEFF 		bl	__aeabi_fsub
 608              	.LVL67:
 609 0382 FFF7FEFF 		bl	__aeabi_f2d
 610              	.LVL68:
 611 0386 0022     		movs	r2, #0
ARM GAS  C:\Users\ADMINI~1\AppData\Local\Temp\ccFqYBCc.s 			page 14


 612 0388 0023     		movs	r3, #0
 613 038a FFF7FEFF 		bl	__aeabi_dmul
 614              	.LVL69:
 615 038e 0246     		mov	r2, r0
 616 0390 0B46     		mov	r3, r1
 617 0392 3046     		mov	r0, r6
 618 0394 3946     		mov	r1, r7
 619 0396 FFF7FEFF 		bl	__aeabi_dadd
 620              	.LVL70:
 621 039a FFF7FEFF 		bl	__aeabi_d2f
 622              	.LVL71:
 623 039e 0646     		mov	r6, r0
 624 03a0 314B     		ldr	r3, .L58+48
 625 03a2 1860     		str	r0, [r3]	@ float
 131:.\Control.c   ****     Control_Pitch = Error_w_pitch*Omega_P_pitch + int_Error_w_pitch*Omega_I_pitch + (Error_w_pitch 
 626              		.loc 1 131 0 discriminator 8
 627 03a4 2846     		mov	r0, r5
 628 03a6 FFF7FEFF 		bl	__aeabi_f2d
 629              	.LVL72:
 630 03aa 0246     		mov	r2, r0
 631 03ac 0B46     		mov	r3, r1
 632 03ae FFF7FEFF 		bl	__aeabi_dadd
 633              	.LVL73:
 634 03b2 CDE90001 		strd	r0, [sp]
 635 03b6 5046     		mov	r0, r10
 636 03b8 FFF7FEFF 		bl	__aeabi_f2d
 637              	.LVL74:
 638 03bc 0022     		movs	r2, #0
 639 03be 0023     		movs	r3, #0
 640 03c0 FFF7FEFF 		bl	__aeabi_dmul
 641              	.LVL75:
 642 03c4 0246     		mov	r2, r0
 643 03c6 0B46     		mov	r3, r1
 644 03c8 DDE90001 		ldrd	r0, [sp]
 645 03cc FFF7FEFF 		bl	__aeabi_dadd
 646              	.LVL76:
 647 03d0 CDE90001 		strd	r0, [sp]
 648 03d4 254F     		ldr	r7, .L58+52
 649 03d6 2846     		mov	r0, r5
 650 03d8 3968     		ldr	r1, [r7]	@ float
 651 03da FFF7FEFF 		bl	__aeabi_fsub
 652              	.LVL77:
 653 03de FFF7FEFF 		bl	__aeabi_f2d
 654              	.LVL78:
 655 03e2 0022     		movs	r2, #0
 656 03e4 0023     		movs	r3, #0
 657 03e6 FFF7FEFF 		bl	__aeabi_dmul
 658              	.LVL79:
 659 03ea 0246     		mov	r2, r0
 660 03ec 0B46     		mov	r3, r1
 661 03ee DDE90001 		ldrd	r0, [sp]
 662 03f2 FFF7FEFF 		bl	__aeabi_dadd
 663              	.LVL80:
 664 03f6 FFF7FEFF 		bl	__aeabi_d2f
 665              	.LVL81:
 666 03fa 8246     		mov	r10, r0
 667 03fc 1C4B     		ldr	r3, .L58+56
ARM GAS  C:\Users\ADMINI~1\AppData\Local\Temp\ccFqYBCc.s 			page 15


 668 03fe 1860     		str	r0, [r3]	@ float
 132:.\Control.c   ****     
 133:.\Control.c   ****     //æ›´æ–°è§’é€Ÿåº¦è¯¯å·®
 134:.\Control.c   ****     last_Error_w_roll = Error_w_roll;
 669              		.loc 1 134 0 discriminator 8
 670 0400 CBF80080 		str	r8, [fp]	@ float
 135:.\Control.c   ****     last_Error_w_pitch = Error_w_pitch;
 671              		.loc 1 135 0 discriminator 8
 672 0404 3D60     		str	r5, [r7]	@ float
 136:.\Control.c   **** 
 137:.\Control.c   ****     //å¯¹yawè§’åº¦çš„å¤„ç†ï¼Œå½¢æˆä¸€ä¸ªPIDé—­ç¯
 138:.\Control.c   ****     //å› ä¸ºå¯¹yawè§’åº¦æµ‹é‡ä¸å‡†ï¼Œå› æ­¤åªè€ƒè™‘è§’é€Ÿåº¦
 139:.\Control.c   ****     Error_w_yaw = Desire_w_yaw - OmegaZ;
 673              		.loc 1 139 0 discriminator 8
 674 0406 4846     		mov	r0, r9
 675 0408 1A4B     		ldr	r3, .L58+60
 676 040a 1968     		ldr	r1, [r3]	@ float
 677 040c FFF7FEFF 		bl	__aeabi_fsub
 678              	.LVL82:
 679 0410 0546     		mov	r5, r0
 680 0412 194B     		ldr	r3, .L58+64
 681 0414 1860     		str	r0, [r3]	@ float
 140:.\Control.c   ****     int_Error_w_yaw += Error_w_yaw;
 682              		.loc 1 140 0 discriminator 8
 683 0416 194B     		ldr	r3, .L58+68
 684 0418 1968     		ldr	r1, [r3]	@ float
 685 041a FFF7FEFF 		bl	__aeabi_fadd
 686              	.LVL83:
 687 041e 0746     		mov	r7, r0
 141:.\Control.c   ****     int_Error_w_yaw = (int_Error_w_yaw > Omega_Int_Sup)?(Omega_Int_Sup):((int_Error_w_yaw < -Omega_
 688              		.loc 1 141 0 discriminator 8
 689 0420 0F49     		ldr	r1, .L58+40
 690 0422 FFF7FEFF 		bl	__aeabi_fcmpgt
 691              	.LVL84:
 692 0426 78BB     		cbnz	r0, .L42
 693              		.loc 1 141 0 is_stmt 0 discriminator 2
 694 0428 3846     		mov	r0, r7
 695 042a 0E49     		ldr	r1, .L58+44
 696 042c FFF7FEFF 		bl	__aeabi_fcmplt
 697              	.LVL85:
 698 0430 58B3     		cbz	r0, .L27
 699              		.loc 1 141 0
 700 0432 0C4F     		ldr	r7, .L58+44
 701 0434 29E0     		b	.L27
 702              	.L59:
 703 0436 00BF     		.align	2
 704              	.L58:
 705 0438 00000000 		.word	int_Error_pitch
 706 043c 00000000 		.word	Desire_w_roll
 707 0440 00000000 		.word	last_Error_pitch
 708 0444 00000000 		.word	Desire_w_pitch
 709 0448 00000000 		.word	OmegaX
 710 044c 00000000 		.word	Error_w_roll
 711 0450 00000000 		.word	OmegaY
 712 0454 00000000 		.word	Error_w_pitch
 713 0458 00000000 		.word	int_Error_w_roll
 714 045c 00000000 		.word	int_Error_w_pitch
ARM GAS  C:\Users\ADMINI~1\AppData\Local\Temp\ccFqYBCc.s 			page 16


 715 0460 00007A44 		.word	1148846080
 716 0464 00007AC4 		.word	-998637568
 717 0468 00000000 		.word	Control_Roll
 718 046c 00000000 		.word	last_Error_w_pitch
 719 0470 00000000 		.word	Control_Pitch
 720 0474 00000000 		.word	OmegaZ
 721 0478 00000000 		.word	Error_w_yaw
 722 047c 00000000 		.word	int_Error_w_yaw
 723 0480 00000000 		.word	last_Error_roll
 724 0484 00000000 		.word	last_Error_w_roll
 725              	.L42:
 726 0488 724F     		ldr	r7, .L60
 727              	.L27:
 728              		.loc 1 141 0 discriminator 8
 729 048a 734B     		ldr	r3, .L60+4
 730 048c 1F60     		str	r7, [r3]	@ float
 142:.\Control.c   ****     Control_Yaw = Error_w_yaw*Omega_P_yaw + int_Error_w_yaw*Omega_I_yaw + (Error_w_yaw - last_Error
 731              		.loc 1 142 0 is_stmt 1 discriminator 8
 732 048e 2846     		mov	r0, r5
 733 0490 FFF7FEFF 		bl	__aeabi_f2d
 734              	.LVL86:
 735 0494 0022     		movs	r2, #0
 736 0496 714B     		ldr	r3, .L60+8
 737 0498 FFF7FEFF 		bl	__aeabi_dmul
 738              	.LVL87:
 739 049c 8046     		mov	r8, r0
 740 049e 8946     		mov	r9, r1
 741 04a0 3846     		mov	r0, r7
 742 04a2 FFF7FEFF 		bl	__aeabi_f2d
 743              	.LVL88:
 744 04a6 0022     		movs	r2, #0
 745 04a8 0023     		movs	r3, #0
 746 04aa FFF7FEFF 		bl	__aeabi_dmul
 747              	.LVL89:
 748 04ae 0246     		mov	r2, r0
 749 04b0 0B46     		mov	r3, r1
 750 04b2 4046     		mov	r0, r8
 751 04b4 4946     		mov	r1, r9
 752 04b6 FFF7FEFF 		bl	__aeabi_dadd
 753              	.LVL90:
 754 04ba 8046     		mov	r8, r0
 755 04bc 8946     		mov	r9, r1
 756 04be DFF8BCB1 		ldr	fp, .L60+40
 757 04c2 2846     		mov	r0, r5
 758 04c4 DBF80010 		ldr	r1, [fp]	@ float
 759 04c8 FFF7FEFF 		bl	__aeabi_fsub
 760              	.LVL91:
 761 04cc FFF7FEFF 		bl	__aeabi_f2d
 762              	.LVL92:
 763 04d0 0022     		movs	r2, #0
 764 04d2 0023     		movs	r3, #0
 765 04d4 FFF7FEFF 		bl	__aeabi_dmul
 766              	.LVL93:
 767 04d8 0246     		mov	r2, r0
 768 04da 0B46     		mov	r3, r1
 769 04dc 4046     		mov	r0, r8
 770 04de 4946     		mov	r1, r9
ARM GAS  C:\Users\ADMINI~1\AppData\Local\Temp\ccFqYBCc.s 			page 17


 771 04e0 FFF7FEFF 		bl	__aeabi_dadd
 772              	.LVL94:
 773 04e4 FFF7FEFF 		bl	__aeabi_d2f
 774              	.LVL95:
 775 04e8 0746     		mov	r7, r0
 776 04ea 5D4B     		ldr	r3, .L60+12
 777 04ec 1860     		str	r0, [r3]	@ float
 143:.\Control.c   ****     last_Error_w_yaw = Error_w_yaw;
 778              		.loc 1 143 0 discriminator 8
 779 04ee CBF80050 		str	r5, [fp]	@ float
 144:.\Control.c   ****     
 145:.\Control.c   ****     //æ§åˆ¶é‡è½¬åŒ–ä¸ºç”µæœºè½¬é€Ÿå˜åŒ–
 146:.\Control.c   ****     //å®é™…æ—‹è½¬æ–¹å‘å’Œç”µæœºç¼–å·éœ€è¦è¿›ä¸€æ­¥ç¡®è®¤
 147:.\Control.c   ****     set_speed_1 +=  Control_Roll + Control_Pitch + Control_Yaw;
 780              		.loc 1 147 0 discriminator 8
 781 04f2 2046     		mov	r0, r4
 782 04f4 FFF7FEFF 		bl	__aeabi_i2f
 783              	.LVL96:
 784 04f8 0446     		mov	r4, r0
 785 04fa 3046     		mov	r0, r6
 786 04fc 5146     		mov	r1, r10
 787 04fe FFF7FEFF 		bl	__aeabi_fadd
 788              	.LVL97:
 789 0502 0146     		mov	r1, r0
 790 0504 3846     		mov	r0, r7
 791 0506 FFF7FEFF 		bl	__aeabi_fadd
 792              	.LVL98:
 793 050a 0146     		mov	r1, r0
 794 050c 2046     		mov	r0, r4
 795 050e FFF7FEFF 		bl	__aeabi_fadd
 796              	.LVL99:
 797 0512 FFF7FEFF 		bl	__aeabi_f2iz
 798              	.LVL100:
 799 0516 8146     		mov	r9, r0
 148:.\Control.c   ****     set_speed_2 += -Control_Roll + Control_Pitch - Control_Yaw;
 800              		.loc 1 148 0 discriminator 8
 801 0518 5046     		mov	r0, r10
 802 051a 3146     		mov	r1, r6
 803 051c FFF7FEFF 		bl	__aeabi_fsub
 804              	.LVL101:
 805 0520 3946     		mov	r1, r7
 806 0522 FFF7FEFF 		bl	__aeabi_fsub
 807              	.LVL102:
 808 0526 0146     		mov	r1, r0
 809 0528 2046     		mov	r0, r4
 810 052a FFF7FEFF 		bl	__aeabi_fadd
 811              	.LVL103:
 812 052e FFF7FEFF 		bl	__aeabi_f2iz
 813              	.LVL104:
 814 0532 8046     		mov	r8, r0
 149:.\Control.c   ****     set_speed_3 += -Control_Roll - Control_Pitch + Control_Yaw;
 815              		.loc 1 149 0 discriminator 8
 816 0534 06F10040 		add	r0, r6, #-2147483648
 817 0538 5146     		mov	r1, r10
 818 053a FFF7FEFF 		bl	__aeabi_fsub
 819              	.LVL105:
 820 053e 0146     		mov	r1, r0
ARM GAS  C:\Users\ADMINI~1\AppData\Local\Temp\ccFqYBCc.s 			page 18


 821 0540 3846     		mov	r0, r7
 822 0542 FFF7FEFF 		bl	__aeabi_fadd
 823              	.LVL106:
 824 0546 0146     		mov	r1, r0
 825 0548 2046     		mov	r0, r4
 826 054a FFF7FEFF 		bl	__aeabi_fadd
 827              	.LVL107:
 828 054e FFF7FEFF 		bl	__aeabi_f2iz
 829              	.LVL108:
 830 0552 0546     		mov	r5, r0
 150:.\Control.c   ****     set_speed_4 +=  Control_Roll - Control_Pitch - Control_Yaw;
 831              		.loc 1 150 0 discriminator 8
 832 0554 3046     		mov	r0, r6
 833 0556 5146     		mov	r1, r10
 834 0558 FFF7FEFF 		bl	__aeabi_fsub
 835              	.LVL109:
 836 055c 3946     		mov	r1, r7
 837 055e FFF7FEFF 		bl	__aeabi_fsub
 838              	.LVL110:
 839 0562 0146     		mov	r1, r0
 840 0564 2046     		mov	r0, r4
 841 0566 FFF7FEFF 		bl	__aeabi_fadd
 842              	.LVL111:
 843 056a FFF7FEFF 		bl	__aeabi_f2iz
 844              	.LVL112:
 151:.\Control.c   ****     
 152:.\Control.c   ****     //é™åˆ¶ç”µæœºè½¬é€Ÿåœ¨0-1000
 153:.\Control.c   ****     set_speed_1 = (set_speed_1 < 0)?(0):((set_speed_1 > 1000)?(1000):(set_speed_1));
 845              		.loc 1 153 0 discriminator 8
 846 056e B9F1000F 		cmp	r9, #0
 847 0572 06DB     		blt	.L43
 848              		.loc 1 153 0 is_stmt 0 discriminator 1
 849 0574 4B46     		mov	r3, r9
 850 0576 B9F57A7F 		cmp	r9, #1000
 851 057a A8BF     		it	ge
 852 057c 4FF47A73 		movge	r3, #1000
 853 0580 00E0     		b	.L30
 854              	.L43:
 855              		.loc 1 153 0
 856 0582 0023     		movs	r3, #0
 857              	.L30:
 858              		.loc 1 153 0 discriminator 4
 859 0584 374A     		ldr	r2, .L60+16
 860 0586 1360     		str	r3, [r2]
 154:.\Control.c   ****     set_speed_2 = (set_speed_2 < 0)?(0):((set_speed_2 > 1000)?(1000):(set_speed_2));
 861              		.loc 1 154 0 is_stmt 1 discriminator 4
 862 0588 B8F1000F 		cmp	r8, #0
 863 058c 06DB     		blt	.L44
 864              		.loc 1 154 0 is_stmt 0 discriminator 1
 865 058e 4346     		mov	r3, r8
 866 0590 B8F57A7F 		cmp	r8, #1000
 867 0594 A8BF     		it	ge
 868 0596 4FF47A73 		movge	r3, #1000
 869 059a 00E0     		b	.L31
 870              	.L44:
 871              		.loc 1 154 0
 872 059c 0023     		movs	r3, #0
ARM GAS  C:\Users\ADMINI~1\AppData\Local\Temp\ccFqYBCc.s 			page 19


 873              	.L31:
 874              		.loc 1 154 0 discriminator 4
 875 059e 324A     		ldr	r2, .L60+20
 876 05a0 1360     		str	r3, [r2]
 155:.\Control.c   ****     set_speed_3 = (set_speed_3 < 0)?(0):((set_speed_3 > 1000)?(1000):(set_speed_3));
 877              		.loc 1 155 0 is_stmt 1 discriminator 4
 878 05a2 002D     		cmp	r5, #0
 879 05a4 05DB     		blt	.L45
 880              		.loc 1 155 0 is_stmt 0 discriminator 1
 881 05a6 B5F57A7F 		cmp	r5, #1000
 882 05aa A8BF     		it	ge
 883 05ac 4FF47A75 		movge	r5, #1000
 884 05b0 00E0     		b	.L32
 885              	.L45:
 886              		.loc 1 155 0
 887 05b2 0025     		movs	r5, #0
 888              	.L32:
 889              		.loc 1 155 0 discriminator 4
 890 05b4 2D4B     		ldr	r3, .L60+24
 891 05b6 1D60     		str	r5, [r3]
 156:.\Control.c   ****     set_speed_4 = (set_speed_4 < 0)?(0):((set_speed_4 > 1000)?(1000):(set_speed_4));
 892              		.loc 1 156 0 is_stmt 1 discriminator 4
 893 05b8 0028     		cmp	r0, #0
 894 05ba 05DB     		blt	.L46
 895              		.loc 1 156 0 is_stmt 0 discriminator 1
 896 05bc B0F57A7F 		cmp	r0, #1000
 897 05c0 A8BF     		it	ge
 898 05c2 4FF47A70 		movge	r0, #1000
 899 05c6 00E0     		b	.L33
 900              	.L46:
 901              		.loc 1 156 0
 902 05c8 0020     		movs	r0, #0
 903              	.L33:
 904              		.loc 1 156 0 discriminator 4
 905 05ca 294D     		ldr	r5, .L60+28
 906 05cc 2860     		str	r0, [r5]
 157:.\Control.c   ****     
 158:.\Control.c   ****     LCD_Position(0, 0);
 907              		.loc 1 158 0 is_stmt 1 discriminator 4
 908 05ce 0020     		movs	r0, #0
 909 05d0 0146     		mov	r1, r0
 910 05d2 FFF7FEFF 		bl	LCD_Position
 911              	.LVL113:
 159:.\Control.c   ****     LCD_PrintDecUint16(set_speed_1); //=========================
 912              		.loc 1 159 0 discriminator 4
 913 05d6 234B     		ldr	r3, .L60+16
 914 05d8 1888     		ldrh	r0, [r3]
 915 05da FFF7FEFF 		bl	LCD_PrintU32Number
 916              	.LVL114:
 160:.\Control.c   ****     LCD_PrintString("     ");
 917              		.loc 1 160 0 discriminator 4
 918 05de 254C     		ldr	r4, .L60+32
 919 05e0 2046     		mov	r0, r4
 920 05e2 FFF7FEFF 		bl	LCD_PrintString
 921              	.LVL115:
 161:.\Control.c   ****     LCD_Position(0, 4);
 922              		.loc 1 161 0 discriminator 4
ARM GAS  C:\Users\ADMINI~1\AppData\Local\Temp\ccFqYBCc.s 			page 20


 923 05e6 0020     		movs	r0, #0
 924 05e8 0421     		movs	r1, #4
 925 05ea FFF7FEFF 		bl	LCD_Position
 926              	.LVL116:
 162:.\Control.c   ****     LCD_PrintDecUint16(set_speed_2);
 927              		.loc 1 162 0 discriminator 4
 928 05ee 1E4B     		ldr	r3, .L60+20
 929 05f0 1888     		ldrh	r0, [r3]
 930 05f2 FFF7FEFF 		bl	LCD_PrintU32Number
 931              	.LVL117:
 163:.\Control.c   ****     LCD_PrintString("     ");
 932              		.loc 1 163 0 discriminator 4
 933 05f6 2046     		mov	r0, r4
 934 05f8 FFF7FEFF 		bl	LCD_PrintString
 935              	.LVL118:
 164:.\Control.c   ****     LCD_Position(0, 8);
 936              		.loc 1 164 0 discriminator 4
 937 05fc 0020     		movs	r0, #0
 938 05fe 0821     		movs	r1, #8
 939 0600 FFF7FEFF 		bl	LCD_Position
 940              	.LVL119:
 165:.\Control.c   ****     LCD_PrintDecUint16(set_speed_3);
 941              		.loc 1 165 0 discriminator 4
 942 0604 194B     		ldr	r3, .L60+24
 943 0606 1888     		ldrh	r0, [r3]
 944 0608 FFF7FEFF 		bl	LCD_PrintU32Number
 945              	.LVL120:
 166:.\Control.c   ****     LCD_PrintString("     ");
 946              		.loc 1 166 0 discriminator 4
 947 060c 2046     		mov	r0, r4
 948 060e FFF7FEFF 		bl	LCD_PrintString
 949              	.LVL121:
 167:.\Control.c   ****     LCD_Position(0, 12);
 950              		.loc 1 167 0 discriminator 4
 951 0612 0020     		movs	r0, #0
 952 0614 0C21     		movs	r1, #12
 953 0616 FFF7FEFF 		bl	LCD_Position
 954              	.LVL122:
 168:.\Control.c   ****     LCD_PrintDecUint16(set_speed_4);
 955              		.loc 1 168 0 discriminator 4
 956 061a 2888     		ldrh	r0, [r5]
 957 061c FFF7FEFF 		bl	LCD_PrintU32Number
 958              	.LVL123:
 169:.\Control.c   ****     LCD_PrintString("     ");
 959              		.loc 1 169 0 discriminator 4
 960 0620 2046     		mov	r0, r4
 961 0622 FFF7FEFF 		bl	LCD_PrintString
 962              	.LVL124:
 170:.\Control.c   ****     
 171:.\Control.c   ****     /*LCD_Position(1, 0);
 172:.\Control.c   ****     LCD_PrintDecUint16((int)(Desire_w_roll*10.0)); //=========================
 173:.\Control.c   ****     LCD_Position(1, 5);
 174:.\Control.c   ****     LCD_PrintDecUint16((int)(Desire_w_pitch*10.0));
 175:.\Control.c   ****     LCD_Position(1, 10);
 176:.\Control.c   ****     LCD_PrintDecUint16((int)(Desire_w_yaw*10.0));*/
 177:.\Control.c   ****     tmpcount++;
 963              		.loc 1 177 0 discriminator 4
ARM GAS  C:\Users\ADMINI~1\AppData\Local\Temp\ccFqYBCc.s 			page 21


 964 0626 144A     		ldr	r2, .L60+36
 965 0628 1368     		ldr	r3, [r2]
 966 062a 0133     		adds	r3, r3, #1
 967 062c 1360     		str	r3, [r2]
 178:.\Control.c   ****     if(tmpcount >= 100)
 968              		.loc 1 178 0 discriminator 4
 969 062e 632B     		cmp	r3, #99
 970 0630 02DD     		ble	.L34
 179:.\Control.c   ****         tmpcount = 0;
 971              		.loc 1 179 0
 972 0632 0022     		movs	r2, #0
 973 0634 104B     		ldr	r3, .L60+36
 974 0636 1A60     		str	r2, [r3]
 975              	.L34:
 180:.\Control.c   ****     LCD_Position(1, 0);
 976              		.loc 1 180 0
 977 0638 0120     		movs	r0, #1
 978 063a 0021     		movs	r1, #0
 979 063c FFF7FEFF 		bl	LCD_Position
 980              	.LVL125:
 181:.\Control.c   ****     LCD_PrintDecUint16(tmpcount);
 981              		.loc 1 181 0
 982 0640 0D4B     		ldr	r3, .L60+36
 983 0642 1888     		ldrh	r0, [r3]
 984 0644 FFF7FEFF 		bl	LCD_PrintU32Number
 985              	.LVL126:
 182:.\Control.c   ****     LCD_PrintString("     ");
 986              		.loc 1 182 0
 987 0648 0A48     		ldr	r0, .L60+32
 988 064a FFF7FEFF 		bl	LCD_PrintString
 989              	.LVL127:
 183:.\Control.c   ****     
 184:.\Control.c   ****     //Motor_v_1 = Motor_v_2 = Motor_v_3 = Motor_v_4 = 0;
 185:.\Control.c   ****     /*Motor_v_1 = set_speed_1;
 186:.\Control.c   ****     Motor_v_2 = set_speed_2;
 187:.\Control.c   ****     Motor_v_3 = set_speed_3;
 188:.\Control.c   ****     Motor_v_4 = set_speed_4;*/
 189:.\Control.c   **** }
 990              		.loc 1 189 0
 991 064e 03B0     		add	sp, sp, #12
 992              		.cfi_def_cfa_offset 36
 993              		@ sp needed
 994 0650 BDE8F08F 		pop	{r4, r5, r6, r7, r8, r9, r10, fp, pc}
 995              	.L61:
 996              		.align	2
 997              	.L60:
 998 0654 00007A44 		.word	1148846080
 999 0658 00000000 		.word	int_Error_w_yaw
 1000 065c 00000840 		.word	1074266112
 1001 0660 00000000 		.word	Control_Yaw
 1002 0664 00000000 		.word	set_speed_1
 1003 0668 00000000 		.word	set_speed_2
 1004 066c 00000000 		.word	set_speed_3
 1005 0670 00000000 		.word	set_speed_4
 1006 0674 00000000 		.word	.LC0
 1007 0678 00000000 		.word	.LANCHOR0
 1008 067c 00000000 		.word	last_Error_w_yaw
ARM GAS  C:\Users\ADMINI~1\AppData\Local\Temp\ccFqYBCc.s 			page 22


 1009              		.cfi_endproc
 1010              	.LFE64:
 1011              		.size	Control_Main, .-Control_Main
 1012              		.global	tmpcount
 1013              		.comm	Control_Yaw,4,4
 1014              		.comm	Control_Pitch,4,4
 1015              		.comm	Control_Roll,4,4
 1016              		.comm	int_Error_w_pitch,4,4
 1017              		.comm	int_Error_w_roll,4,4
 1018              		.comm	last_Error_w_pitch,4,4
 1019              		.comm	last_Error_w_roll,4,4
 1020              		.comm	Error_w_pitch,4,4
 1021              		.comm	Error_w_roll,4,4
 1022              		.comm	Desire_w_pitch,4,4
 1023              		.comm	Desire_w_roll,4,4
 1024              		.comm	int_Error_w_yaw,4,4
 1025              		.comm	int_Error_pitch,4,4
 1026              		.comm	int_Error_roll,4,4
 1027              		.comm	last_Error_w_yaw,4,4
 1028              		.comm	last_Error_pitch,4,4
 1029              		.comm	last_Error_roll,4,4
 1030              		.comm	Error_w_yaw,4,4
 1031              		.comm	Error_pitch,4,4
 1032              		.comm	Error_roll,4,4
 1033              		.comm	set_speed_4,4,4
 1034              		.comm	set_speed_3,4,4
 1035              		.comm	set_speed_2,4,4
 1036              		.comm	set_speed_1,4,4
 1037              		.section	.rodata.str1.4,"aMS",%progbits,1
 1038              		.align	2
 1039              	.LC0:
 1040 0000 20202020 		.ascii	"     \000"
 1040      2000
 1041 0006 0000     		.bss
 1042              		.align	2
 1043              		.set	.LANCHOR0,. + 0
 1044              		.type	tmpcount, %object
 1045              		.size	tmpcount, 4
 1046              	tmpcount:
 1047 0000 00000000 		.space	4
 1048              		.text
 1049              	.Letext0:
 1050              		.file 2 "d:\\program files (x86)\\cypress\\psoc creator\\3.3\\psoc creator\\import\\gnu\\arm\\4.9.
 1051              		.file 3 "d:\\program files (x86)\\cypress\\psoc creator\\3.3\\psoc creator\\import\\gnu\\arm\\4.9.
 1052              		.file 4 "Generated_Source\\PSoC5/cytypes.h"
 1053              		.file 5 "Generated_Source\\PSoC5/core_cm3.h"
 1054              		.file 6 "Generated_Source\\PSoC5/LCD.h"