ARM GAS  C:\Users\ADMINI~1\AppData\Local\Temp\ccFqYBCc.s 			page 1


   1              		.syntax unified
   2              		.cpu cortex-m3
   3              		.fpu softvfp
   4              		.eabi_attribute 20, 1
   5              		.eabi_attribute 21, 1
   6              		.eabi_attribute 23, 3
   7              		.eabi_attribute 24, 1
   8              		.eabi_attribute 25, 1
   9              		.eabi_attribute 26, 1
  10              		.eabi_attribute 30, 1
  11              		.eabi_attribute 34, 1
  12              		.eabi_attribute 18, 4
  13              		.thumb
  14              		.file	"Control.c"
  15              		.text
  16              	.Ltext0:
  17              		.cfi_sections	.debug_frame
  18              		.section	.text.Control_Func_InitVariable,"ax",%progbits
  19              		.align	2
  20              		.global	Control_Func_InitVariable
  21              		.thumb
  22              		.thumb_func
  23              		.type	Control_Func_InitVariable, %function
  24              	Control_Func_InitVariable:
  25              	.LFB63:
  26              		.file 1 ".\\Control.c"
   1:.\Control.c   **** #include "Control.h"
   2:.\Control.c   **** 
   3:.\Control.c   **** //æ¥è‡ªè“ç‰™çš„æ•°æ®
   4:.\Control.c   **** extern int BT_Throttle, BT_Yaw, BT_Pitch, BT_Roll;
   5:.\Control.c   **** extern float roll_angle_offset, pitch_angle_offset;
   6:.\Control.c   **** extern float Desire_angle_pitch, Desire_angle_roll, Desire_w_yaw;
   7:.\Control.c   **** //æ¥è‡ªJY901çš„æ•°æ®
   8:.\Control.c   **** extern float AccelX, AccelY, AccelZ;     //ä¸‰è½´åŠ é€Ÿåº¦ï¼Œå•ä½ä¸ºg
   9:.\Control.c   **** extern float OmegaX, OmegaY, OmegaZ;     //ä¸‰è½´è§’é€Ÿåº¦ï¼Œå•ä½ä¸ºÂ°/s
  10:.\Control.c   **** extern float Temperature;                //æµ‹é‡æ¸©åº¦
  11:.\Control.c   **** extern float Roll, Pitch, Yaw;           //ä¸‰è½´è§’åº¦ï¼Œå•ä½ä¸ºÂ°
  12:.\Control.c   **** extern int MagX, MagY, MagZ;             //ä¸‰è½´ç£åœº
  13:.\Control.c   **** 
  14:.\Control.c   **** //å…¶ä»–ä¸´æ—¶å˜é‡
  15:.\Control.c   **** int set_speed_1, set_speed_2, set_speed_3, set_speed_4; //å‚¨å­˜è®¾å®šçš„é€Ÿåº¦
  16:.\Control.c   **** float Error_roll, Error_pitch, Error_w_yaw; //ä¸‰è½´è§’åº¦/Yawè§’é€Ÿåº¦çš„è¯¯å·®
  17:.\Control.c   **** float last_Error_roll, last_Error_pitch, last_Error_w_yaw; //ä¸Šä¸€æ—¶åˆ»çš„è§’åº¦è¯¯å·®ï¼Œç”¨äºæ±
  18:.\Control.c   **** float int_Error_roll, int_Error_pitch, int_Error_w_yaw; //è¯¯å·®çš„ç§¯åˆ†
  19:.\Control.c   **** 
  20:.\Control.c   **** float Desire_w_roll, Desire_w_pitch; //æœŸæœ›çš„Rollå’ŒPitchçš„è§’é€Ÿåº¦
  21:.\Control.c   **** float Error_w_roll, Error_w_pitch; //Rollå’ŒPitchè§’é€Ÿåº¦çš„è¯¯å·®
  22:.\Control.c   **** float last_Error_w_roll, last_Error_w_pitch; //ä¸Šä¸€æ—¶åˆ»çš„Rollå’ŒPitchè§’é€Ÿåº¦è¯¯å·®ï¼Œç”¨äºæ
  23:.\Control.c   **** float int_Error_w_roll, int_Error_w_pitch; //è§’é€Ÿåº¦è¯¯å·®çš„ç§¯åˆ†
  24:.\Control.c   **** float Control_Roll, Control_Pitch, Control_Yaw;
  25:.\Control.c   **** 
  26:.\Control.c   **** //PIDç›¸å…³å‚æ•°
  27:.\Control.c   **** #define angle_P_roll  2.0 //PIDå‚æ•°æœ‰å¾…è°ƒæ•´
  28:.\Control.c   **** #define angle_I_roll  0.0
  29:.\Control.c   **** #define angle_D_roll  0.0
  30:.\Control.c   **** #define angle_P_pitch 2.0
  31:.\Control.c   **** #define angle_I_pitch 0.0
ARM GAS  C:\Users\ADMINI~1\AppData\Local\Temp\ccFqYBCc.s 			page 2


  32:.\Control.c   **** #define angle_D_pitch 0.0
  33:.\Control.c   **** #define Omega_P_roll  2.0
  34:.\Control.c   **** #define Omega_I_roll  0.0
  35:.\Control.c   **** #define Omega_D_roll  0.0
  36:.\Control.c   **** #define Omega_P_pitch 2.0
  37:.\Control.c   **** #define Omega_I_pitch 0.0
  38:.\Control.c   **** #define Omega_D_pitch 0.0
  39:.\Control.c   **** #define Omega_P_yaw   3.0
  40:.\Control.c   **** #define Omega_I_yaw   0.0
  41:.\Control.c   **** #define Omega_D_yaw   0.0
  42:.\Control.c   **** 
  43:.\Control.c   **** //ç§¯åˆ†ä¸Šé™
  44:.\Control.c   **** #define Angle_Int_Sup 1000.0
  45:.\Control.c   **** #define Omega_Int_Sup 1000.0
  46:.\Control.c   **** 
  47:.\Control.c   **** //æœŸæœ›åè§’/è§’é€Ÿåº¦é™åˆ¶
  48:.\Control.c   **** #define Angle_Roll_Sup   30.0
  49:.\Control.c   **** #define Angle_Roll_Inf  -30.0
  50:.\Control.c   **** #define Angle_Pitch_Sup  30.0
  51:.\Control.c   **** #define Angle_Pitch_Inf -30.0
  52:.\Control.c   **** #define Omega_Yaw_Sup    40.0
  53:.\Control.c   **** #define Omega_Yaw_Inf   -40.0
  54:.\Control.c   **** 
  55:.\Control.c   **** //ç”µæœºè½¬é€Ÿ
  56:.\Control.c   **** extern int Motor_v_1, Motor_v_2,  Motor_v_3,  Motor_v_4;
  57:.\Control.c   **** 
  58:.\Control.c   **** int tmpcount = 0; //================================
  59:.\Control.c   **** 
  60:.\Control.c   **** //åˆå§‹åŒ–æ‰€æœ‰å˜é‡
  61:.\Control.c   **** void Control_Func_InitVariable() {
  27              		.loc 1 61 0
  28              		.cfi_startproc
  29              		@ args = 0, pretend = 0, frame = 0
  30              		@ frame_needed = 0, uses_anonymous_args = 0
  31              		@ link register save eliminated.
  62:.\Control.c   ****     set_speed_1 = set_speed_2 = set_speed_3 = set_speed_4 = 0;
  32              		.loc 1 62 0
  33 0000 0023     		movs	r3, #0
  34 0002 194A     		ldr	r2, .L2
  35 0004 1360     		str	r3, [r2]
  36 0006 194A     		ldr	r2, .L2+4
  37 0008 1360     		str	r3, [r2]
  38 000a 194A     		ldr	r2, .L2+8
  39 000c 1360     		str	r3, [r2]
  40 000e 194A     		ldr	r2, .L2+12
  41 0010 1360     		str	r3, [r2]
  63:.\Control.c   ****     Error_roll = Error_pitch = Error_w_yaw = Error_w_pitch = Error_w_roll = 0.0;
  42              		.loc 1 63 0
  43 0012 0023     		movs	r3, #0
  44 0014 184A     		ldr	r2, .L2+16
  45 0016 1360     		str	r3, [r2]	@ float
  46 0018 184A     		ldr	r2, .L2+20
  47 001a 1360     		str	r3, [r2]	@ float
  48 001c 184A     		ldr	r2, .L2+24
  49 001e 1360     		str	r3, [r2]	@ float
  50 0020 184A     		ldr	r2, .L2+28
  51 0022 1360     		str	r3, [r2]	@ float
ARM GAS  C:\Users\ADMINI~1\AppData\Local\Temp\ccFqYBCc.s 			page 3


  52 0024 184A     		ldr	r2, .L2+32
  53 0026 1360     		str	r3, [r2]	@ float
  64:.\Control.c   ****     last_Error_roll = last_Error_pitch = last_Error_w_yaw = last_Error_w_pitch = last_Error_w_roll 
  54              		.loc 1 64 0
  55 0028 184A     		ldr	r2, .L2+36
  56 002a 1360     		str	r3, [r2]	@ float
  57 002c 184A     		ldr	r2, .L2+40
  58 002e 1360     		str	r3, [r2]	@ float
  59 0030 184A     		ldr	r2, .L2+44
  60 0032 1360     		str	r3, [r2]	@ float
  61 0034 184A     		ldr	r2, .L2+48
  62 0036 1360     		str	r3, [r2]	@ float
  63 0038 184A     		ldr	r2, .L2+52
  64 003a 1360     		str	r3, [r2]	@ float
  65:.\Control.c   ****     int_Error_pitch = int_Error_roll = int_Error_w_pitch = int_Error_w_roll = int_Error_w_yaw = 0.0
  65              		.loc 1 65 0
  66 003c 184A     		ldr	r2, .L2+56
  67 003e 1360     		str	r3, [r2]	@ float
  68 0040 184A     		ldr	r2, .L2+60
  69 0042 1360     		str	r3, [r2]	@ float
  70 0044 184A     		ldr	r2, .L2+64
  71 0046 1360     		str	r3, [r2]	@ float
  72 0048 184A     		ldr	r2, .L2+68
  73 004a 1360     		str	r3, [r2]	@ float
  74 004c 184A     		ldr	r2, .L2+72
  75 004e 1360     		str	r3, [r2]	@ float
  66:.\Control.c   ****     Desire_w_pitch = Desire_w_roll = 0.0;
  76              		.loc 1 66 0
  77 0050 184A     		ldr	r2, .L2+76
  78 0052 1360     		str	r3, [r2]	@ float
  79 0054 184A     		ldr	r2, .L2+80
  80 0056 1360     		str	r3, [r2]	@ float
  67:.\Control.c   ****     Control_Roll = Control_Pitch = Control_Yaw = 0.0;
  81              		.loc 1 67 0
  82 0058 184A     		ldr	r2, .L2+84
  83 005a 1360     		str	r3, [r2]	@ float
  84 005c 184A     		ldr	r2, .L2+88
  85 005e 1360     		str	r3, [r2]	@ float
  86 0060 184A     		ldr	r2, .L2+92
  87 0062 1360     		str	r3, [r2]	@ float
  88 0064 7047     		bx	lr
  89              	.L3:
  90 0066 00BF     		.align	2
  91              	.L2:
  92 0068 00000000 		.word	set_speed_4
  93 006c 00000000 		.word	set_speed_3
  94 0070 00000000 		.word	set_speed_2
  95 0074 00000000 		.word	set_speed_1
  96 0078 00000000 		.word	Error_w_roll
  97 007c 00000000 		.word	Error_w_pitch
  98 0080 00000000 		.word	Error_w_yaw
  99 0084 00000000 		.word	Error_pitch
 100 0088 00000000 		.word	Error_roll
 101 008c 00000000 		.word	last_Error_w_roll
 102 0090 00000000 		.word	last_Error_w_pitch
 103 0094 00000000 		.word	last_Error_w_yaw
 104 0098 00000000 		.word	last_Error_pitch
ARM GAS  C:\Users\ADMINI~1\AppData\Local\Temp\ccFqYBCc.s 			page 4


 105 009c 00000000 		.word	last_Error_roll
 106 00a0 00000000 		.word	int_Error_w_yaw
 107 00a4 00000000 		.word	int_Error_w_roll
 108 00a8 00000000 		.word	int_Error_w_pitch
 109 00ac 00000000 		.word	int_Error_roll
 110 00b0 00000000 		.word	int_Error_pitch
 111 00b4 00000000 		.word	Desire_w_roll
 112 00b8 00000000 		.word	Desire_w_pitch
 113 00bc 00000000 		.word	Control_Yaw
 114 00c0 00000000 		.word	Control_Pitch
 115 00c4 00000000 		.word	Control_Roll
 116              		.cfi_endproc
 117              	.LFE63:
 118              		.size	Control_Func_InitVariable, .-Control_Func_InitVariable
 119              		.global	__aeabi_i2f
 120              		.global	__aeabi_f2d
 121              		.global	__aeabi_dsub
 122              		.global	__aeabi_dmul
 123              		.global	__aeabi_d2f
 124              		.global	__aeabi_fadd
 125              		.global	__aeabi_fcmplt
 126              		.global	__aeabi_fcmpgt
 127              		.global	__aeabi_fsub
 128              		.global	__aeabi_dadd
 129              		.global	__aeabi_f2iz
 130              		.section	.text.Control_Main,"ax",%progbits
 131              		.align	2
 132              		.global	Control_Main
 133              		.thumb
 134              		.thumb_func
 135              		.type	Control_Main, %function
 136              	Control_Main:
 137              	.LFB64:
  68:.\Control.c   **** }
  69:.\Control.c   **** 
  70:.\Control.c   **** //ä¸»è¦æ§åˆ¶ç®—æ³•
  71:.\Control.c   **** void Control_Main() {
 138              		.loc 1 71 0
 139              		.cfi_startproc
 140              		@ args = 0, pretend = 0, frame = 8
 141              		@ frame_needed = 0, uses_anonymous_args = 0
 142 0000 2DE9F04F 		push	{r4, r5, r6, r7, r8, r9, r10, fp, lr}
 143              		.cfi_def_cfa_offset 36
 144              		.cfi_offset 4, -36
 145              		.cfi_offset 5, -32
 146              		.cfi_offset 6, -28
 147              		.cfi_offset 7, -24
 148              		.cfi_offset 8, -20
 149              		.cfi_offset 9, -16
 150              		.cfi_offset 10, -12
 151              		.cfi_offset 11, -8
 152              		.cfi_offset 14, -4
 153 0004 83B0     		sub	sp, sp, #12
 154              		.cfi_def_cfa_offset 48
  72:.\Control.c   ****     //è®¾å®šæ ¹æ®æ²¹é—¨å¤§å°è®¾å®šè½¬é€Ÿï¼Œå¹¶ç•™å‡ºæ§åˆ¶ä½™é‡
  73:.\Control.c   ****     set_speed_1 = BT_Throttle * 900 / 1024;
 155              		.loc 1 73 0
ARM GAS  C:\Users\ADMINI~1\AppData\Local\Temp\ccFqYBCc.s 			page 5


 156 0006 644B     		ldr	r3, .L56
 157 0008 1C68     		ldr	r4, [r3]
 158 000a 4FF46173 		mov	r3, #900
 159 000e 03FB04F4 		mul	r4, r3, r4
 160 0012 002C     		cmp	r4, #0
 161 0014 01DA     		bge	.L5
 162 0016 04F2FF34 		addw	r4, r4, #1023
 163              	.L5:
 164 001a A412     		asrs	r4, r4, #10
  74:.\Control.c   ****     set_speed_2 = BT_Throttle * 900 / 1024;
  75:.\Control.c   ****     set_speed_3 = BT_Throttle * 900 / 1024;
  76:.\Control.c   ****     set_speed_4 = BT_Throttle * 900 / 1024;
  77:.\Control.c   ****     
  78:.\Control.c   ****     //è§£ç è“ç‰™ä¼ è¾“çš„è®¾å®šè§’åº¦
  79:.\Control.c   ****     //Desire_angle_pitch = -((float)BT_Pitch - 512.0) * 30.0 / 512.0;
  80:.\Control.c   ****     //Desire_angle_roll = ((float)BT_Roll - 512.0) * 30.0 / 512.0;
  81:.\Control.c   ****     Desire_angle_pitch = ((float)BT_Roll - 512.0) * 30.0 / 512.0;
 165              		.loc 1 81 0
 166 001c 5F4B     		ldr	r3, .L56+4
 167 001e 1868     		ldr	r0, [r3]
 168 0020 FFF7FEFF 		bl	__aeabi_i2f
 169              	.LVL0:
 170 0024 FFF7FEFF 		bl	__aeabi_f2d
 171              	.LVL1:
 172 0028 0022     		movs	r2, #0
 173 002a 4FF08143 		mov	r3, #1082130432
 174 002e FFF7FEFF 		bl	__aeabi_dsub
 175              	.LVL2:
 176 0032 0022     		movs	r2, #0
 177 0034 5A4B     		ldr	r3, .L56+8
 178 0036 FFF7FEFF 		bl	__aeabi_dmul
 179              	.LVL3:
 180 003a 0022     		movs	r2, #0
 181 003c 594B     		ldr	r3, .L56+12
 182 003e FFF7FEFF 		bl	__aeabi_dmul
 183              	.LVL4:
 184 0042 FFF7FEFF 		bl	__aeabi_d2f
 185              	.LVL5:
 186 0046 0546     		mov	r5, r0
  82:.\Control.c   ****     Desire_angle_roll = ((float)BT_Pitch - 512.0) * 30.0 / 512.0;
 187              		.loc 1 82 0
 188 0048 574B     		ldr	r3, .L56+16
 189 004a 1868     		ldr	r0, [r3]
 190 004c FFF7FEFF 		bl	__aeabi_i2f
 191              	.LVL6:
 192 0050 FFF7FEFF 		bl	__aeabi_f2d
 193              	.LVL7:
 194 0054 0022     		movs	r2, #0
 195 0056 4FF08143 		mov	r3, #1082130432
 196 005a FFF7FEFF 		bl	__aeabi_dsub
 197              	.LVL8:
 198 005e 0022     		movs	r2, #0
 199 0060 4F4B     		ldr	r3, .L56+8
 200 0062 FFF7FEFF 		bl	__aeabi_dmul
 201              	.LVL9:
 202 0066 0022     		movs	r2, #0
 203 0068 4E4B     		ldr	r3, .L56+12
ARM GAS  C:\Users\ADMINI~1\AppData\Local\Temp\ccFqYBCc.s 			page 6


 204 006a FFF7FEFF 		bl	__aeabi_dmul
 205              	.LVL10:
 206 006e FFF7FEFF 		bl	__aeabi_d2f
 207              	.LVL11:
 208 0072 0646     		mov	r6, r0
  83:.\Control.c   ****     Desire_w_yaw = ((float)BT_Yaw - 512.0) * 40.0 / 512.0;
 209              		.loc 1 83 0
 210 0074 4D4B     		ldr	r3, .L56+20
 211 0076 1868     		ldr	r0, [r3]
 212 0078 FFF7FEFF 		bl	__aeabi_i2f
 213              	.LVL12:
 214 007c FFF7FEFF 		bl	__aeabi_f2d
 215              	.LVL13:
 216 0080 0022     		movs	r2, #0
 217 0082 4FF08143 		mov	r3, #1082130432
 218 0086 FFF7FEFF 		bl	__aeabi_dsub
 219              	.LVL14:
 220 008a 0022     		movs	r2, #0
 221 008c 484B     		ldr	r3, .L56+24
 222 008e FFF7FEFF 		bl	__aeabi_dmul
 223              	.LVL15:
 224 0092 0022     		movs	r2, #0
 225 0094 434B     		ldr	r3, .L56+12
 226 0096 FFF7FEFF 		bl	__aeabi_dmul
 227              	.LVL16:
 228 009a FFF7FEFF 		bl	__aeabi_d2f
 229              	.LVL17:
 230 009e 8146     		mov	r9, r0
  84:.\Control.c   ****     
  85:.\Control.c   ****     //åº”ç”¨è§’åº¦åç½®
  86:.\Control.c   ****     Roll += roll_angle_offset;
 231              		.loc 1 86 0
 232 00a0 444F     		ldr	r7, .L56+28
 233 00a2 3868     		ldr	r0, [r7]	@ float
 234 00a4 444B     		ldr	r3, .L56+32
 235 00a6 1968     		ldr	r1, [r3]	@ float
 236 00a8 FFF7FEFF 		bl	__aeabi_fadd
 237              	.LVL18:
 238 00ac 8046     		mov	r8, r0
 239 00ae 3860     		str	r0, [r7]	@ float
  87:.\Control.c   ****     Pitch += pitch_angle_offset;
 240              		.loc 1 87 0
 241 00b0 DFF840A1 		ldr	r10, .L56+92
 242 00b4 DAF80000 		ldr	r0, [r10]	@ float
 243 00b8 404B     		ldr	r3, .L56+36
 244 00ba 1968     		ldr	r1, [r3]	@ float
 245 00bc FFF7FEFF 		bl	__aeabi_fadd
 246              	.LVL19:
 247 00c0 0746     		mov	r7, r0
 248 00c2 CAF80000 		str	r0, [r10]	@ float
  88:.\Control.c   ****     
  89:.\Control.c   ****     //PIDæ§åˆ¶
  90:.\Control.c   ****     //å¯¹äºRollå’ŒPitchï¼Œä½¿ç”¨ä¸¤å±‚é—­ç¯PID
  91:.\Control.c   ****     //ç¬¬ä¸€å±‚æ ¹æ®è§’åº¦çš„è¯¯å·®ç”ŸæˆæœŸæœ›è§’é€Ÿåº¦
  92:.\Control.c   ****     //ç¬¬äºŒå±‚æ ¹æ®è§’é€Ÿåº¦è¯¯å·®è¿›è¡Œæ§åˆ¶
  93:.\Control.c   ****     //å¯¹äºYawï¼Œå› ä¸ºæ— æ³•ç²¾ç¡®è®¡ç®—è§’åº¦ï¼Œä»…å¯¹è§’é€Ÿåº¦è¿›è¡Œä¸€å±‚é—­ç¯çš„PIDæ§åˆ¶
  94:.\Control.c   ****     
ARM GAS  C:\Users\ADMINI~1\AppData\Local\Temp\ccFqYBCc.s 			page 7


  95:.\Control.c   ****     //é™åˆ¶æœŸæœ›åè§’
  96:.\Control.c   ****     Desire_angle_pitch = (Desire_angle_pitch < Angle_Pitch_Inf)?(Angle_Pitch_Inf):((Desire_angle_pi
 249              		.loc 1 96 0
 250 00c6 2846     		mov	r0, r5
 251 00c8 3D49     		ldr	r1, .L56+40
 252 00ca FFF7FEFF 		bl	__aeabi_fcmplt
 253              	.LVL20:
 254 00ce 30B9     		cbnz	r0, .L35
 255              		.loc 1 96 0 is_stmt 0 discriminator 2
 256 00d0 2846     		mov	r0, r5
 257 00d2 3C49     		ldr	r1, .L56+44
 258 00d4 FFF7FEFF 		bl	__aeabi_fcmpgt
 259              	.LVL21:
 260 00d8 10B1     		cbz	r0, .L6
 261              		.loc 1 96 0
 262 00da 3A4D     		ldr	r5, .L56+44
 263 00dc 00E0     		b	.L6
 264              	.L35:
 265 00de 384D     		ldr	r5, .L56+40
 266              	.L6:
 267              		.loc 1 96 0 discriminator 8
 268 00e0 394B     		ldr	r3, .L56+48
 269 00e2 1D60     		str	r5, [r3]	@ float
  97:.\Control.c   ****     Desire_angle_roll = (Desire_angle_roll < Angle_Roll_Inf)?(Angle_Roll_Inf):((Desire_angle_roll >
 270              		.loc 1 97 0 is_stmt 1 discriminator 8
 271 00e4 3046     		mov	r0, r6
 272 00e6 3649     		ldr	r1, .L56+40
 273 00e8 FFF7FEFF 		bl	__aeabi_fcmplt
 274              	.LVL22:
 275 00ec 30B9     		cbnz	r0, .L36
 276              		.loc 1 97 0 is_stmt 0 discriminator 2
 277 00ee 3046     		mov	r0, r6
 278 00f0 3449     		ldr	r1, .L56+44
 279 00f2 FFF7FEFF 		bl	__aeabi_fcmpgt
 280              	.LVL23:
 281 00f6 10B1     		cbz	r0, .L9
 282              		.loc 1 97 0
 283 00f8 324E     		ldr	r6, .L56+44
 284 00fa 00E0     		b	.L9
 285              	.L36:
 286 00fc 304E     		ldr	r6, .L56+40
 287              	.L9:
 288              		.loc 1 97 0 discriminator 8
 289 00fe 334B     		ldr	r3, .L56+52
 290 0100 1E60     		str	r6, [r3]	@ float
  98:.\Control.c   ****     Desire_w_yaw = (Desire_w_yaw < Omega_Yaw_Inf)?(Omega_Yaw_Inf):((Desire_w_yaw > Omega_Yaw_Sup)?(
 291              		.loc 1 98 0 is_stmt 1 discriminator 8
 292 0102 4846     		mov	r0, r9
 293 0104 3249     		ldr	r1, .L56+56
 294 0106 FFF7FEFF 		bl	__aeabi_fcmplt
 295              	.LVL24:
 296 010a 38B9     		cbnz	r0, .L37
 297              		.loc 1 98 0 is_stmt 0 discriminator 2
 298 010c 4846     		mov	r0, r9
 299 010e 3149     		ldr	r1, .L56+60
 300 0110 FFF7FEFF 		bl	__aeabi_fcmpgt
 301              	.LVL25:
ARM GAS  C:\Users\ADMINI~1\AppData\Local\Temp\ccFqYBCc.s 			page 8


 302 0114 20B1     		cbz	r0, .L12
 303              		.loc 1 98 0
 304 0116 DFF8BC90 		ldr	r9, .L56+60
 305 011a 01E0     		b	.L12
 306              	.L37:
 307 011c DFF8B090 		ldr	r9, .L56+56
 308              	.L12:
 309              		.loc 1 98 0 discriminator 8
 310 0120 2D4B     		ldr	r3, .L56+64
 311 0122 C3F80090 		str	r9, [r3]	@ float
  99:.\Control.c   ****     
 100:.\Control.c   ****     //å¯¹Pitchå’ŒRollè§’åº¦ä¸¤å±‚PIDæ§åˆ¶
 101:.\Control.c   ****     //è®¡ç®—è§’åº¦è¯¯å·®
 102:.\Control.c   ****     Error_roll = Desire_angle_roll - Roll;
 312              		.loc 1 102 0 is_stmt 1 discriminator 8
 313 0126 3046     		mov	r0, r6
 314 0128 4146     		mov	r1, r8
 315 012a FFF7FEFF 		bl	__aeabi_fsub
 316              	.LVL26:
 317 012e 8046     		mov	r8, r0
 318 0130 2A4B     		ldr	r3, .L56+68
 319 0132 1860     		str	r0, [r3]	@ float
 103:.\Control.c   ****     Error_pitch = Desire_angle_pitch - Pitch;
 320              		.loc 1 103 0 discriminator 8
 321 0134 2846     		mov	r0, r5
 322 0136 3946     		mov	r1, r7
 323 0138 FFF7FEFF 		bl	__aeabi_fsub
 324              	.LVL27:
 325 013c 0546     		mov	r5, r0
 326 013e 284B     		ldr	r3, .L56+72
 327 0140 1860     		str	r0, [r3]	@ float
 104:.\Control.c   ****     
 105:.\Control.c   ****     //ç§¯åˆ†å’Œç§¯åˆ†é™å¹…
 106:.\Control.c   ****     int_Error_roll += Error_roll;
 328              		.loc 1 106 0 discriminator 8
 329 0142 4046     		mov	r0, r8
 330 0144 274B     		ldr	r3, .L56+76
 331 0146 1968     		ldr	r1, [r3]	@ float
 332 0148 FFF7FEFF 		bl	__aeabi_fadd
 333              	.LVL28:
 334 014c 8346     		mov	fp, r0
 107:.\Control.c   ****     int_Error_pitch += Error_pitch;
 335              		.loc 1 107 0 discriminator 8
 336 014e 2846     		mov	r0, r5
 337 0150 254B     		ldr	r3, .L56+80
 338 0152 1968     		ldr	r1, [r3]	@ float
 339 0154 FFF7FEFF 		bl	__aeabi_fadd
 340              	.LVL29:
 341 0158 8246     		mov	r10, r0
 108:.\Control.c   ****     int_Error_roll = (int_Error_roll > Angle_Int_Sup)?(Angle_Int_Sup):((int_Error_roll < -Angle_Int
 342              		.loc 1 108 0 discriminator 8
 343 015a 5846     		mov	r0, fp
 344 015c 2349     		ldr	r1, .L56+84
 345 015e FFF7FEFF 		bl	__aeabi_fcmpgt
 346              	.LVL30:
 347 0162 38B9     		cbnz	r0, .L38
 348              		.loc 1 108 0 is_stmt 0 discriminator 2
ARM GAS  C:\Users\ADMINI~1\AppData\Local\Temp\ccFqYBCc.s 			page 9


 349 0164 5846     		mov	r0, fp
 350 0166 2249     		ldr	r1, .L56+88
 351 0168 FFF7FEFF 		bl	__aeabi_fcmplt
 352              	.LVL31:
 353 016c 20B1     		cbz	r0, .L15
 354              		.loc 1 108 0
 355 016e DFF880B0 		ldr	fp, .L56+88
 356 0172 01E0     		b	.L15
 357              	.L38:
 358 0174 DFF874B0 		ldr	fp, .L56+84
 359              	.L15:
 360              		.loc 1 108 0 discriminator 8
 361 0178 1A4B     		ldr	r3, .L56+76
 362 017a C3F800B0 		str	fp, [r3]	@ float
 109:.\Control.c   ****     int_Error_pitch = (int_Error_pitch > Angle_Int_Sup)?(Angle_Int_Sup):((int_Error_pitch < -Angle_
 363              		.loc 1 109 0 is_stmt 1 discriminator 8
 364 017e 5046     		mov	r0, r10
 365 0180 1A49     		ldr	r1, .L56+84
 366 0182 FFF7FEFF 		bl	__aeabi_fcmpgt
 367              	.LVL32:
 368 0186 B8BB     		cbnz	r0, .L39
 369              		.loc 1 109 0 is_stmt 0 discriminator 2
 370 0188 5046     		mov	r0, r10
 371 018a 1949     		ldr	r1, .L56+88
 372 018c FFF7FEFF 		bl	__aeabi_fcmplt
 373              	.LVL33:
 374 0190 A0B3     		cbz	r0, .L18
 375              		.loc 1 109 0
 376 0192 DFF85CA0 		ldr	r10, .L56+88
 377 0196 31E0     		b	.L18
 378              	.L57:
 379              		.align	2
 380              	.L56:
 381 0198 00000000 		.word	BT_Throttle
 382 019c 00000000 		.word	BT_Roll
 383 01a0 00003E40 		.word	1077805056
 384 01a4 0000603F 		.word	1063256064
 385 01a8 00000000 		.word	BT_Pitch
 386 01ac 00000000 		.word	BT_Yaw
 387 01b0 00004440 		.word	1078198272
 388 01b4 00000000 		.word	Roll
 389 01b8 00000000 		.word	roll_angle_offset
 390 01bc 00000000 		.word	pitch_angle_offset
 391 01c0 0000F0C1 		.word	-1041235968
 392 01c4 0000F041 		.word	1106247680
 393 01c8 00000000 		.word	Desire_angle_pitch
 394 01cc 00000000 		.word	Desire_angle_roll
 395 01d0 000020C2 		.word	-1038090240
 396 01d4 00002042 		.word	1109393408
 397 01d8 00000000 		.word	Desire_w_yaw
 398 01dc 00000000 		.word	Error_roll
 399 01e0 00000000 		.word	Error_pitch
 400 01e4 00000000 		.word	int_Error_roll
 401 01e8 00000000 		.word	int_Error_pitch
 402 01ec 00007A44 		.word	1148846080
 403 01f0 00007AC4 		.word	-998637568
 404 01f4 00000000 		.word	Pitch
ARM GAS  C:\Users\ADMINI~1\AppData\Local\Temp\ccFqYBCc.s 			page 10


 405              	.L39:
 406 01f8 DFF864A2 		ldr	r10, .L58+40
 407              	.L18:
 408              		.loc 1 109 0 discriminator 8
 409 01fc 8E4B     		ldr	r3, .L58
 410 01fe C3F800A0 		str	r10, [r3]	@ float
 110:.\Control.c   ****     
 111:.\Control.c   ****     //PIDç”ŸæˆæœŸæœ›è§’é€Ÿåº¦
 112:.\Control.c   ****     Desire_w_roll = Error_roll*angle_P_roll + int_Error_roll*angle_I_roll + (Error_roll - last_Erro
 411              		.loc 1 112 0 is_stmt 1 discriminator 8
 412 0202 4046     		mov	r0, r8
 413 0204 FFF7FEFF 		bl	__aeabi_f2d
 414              	.LVL34:
 415 0208 0246     		mov	r2, r0
 416 020a 0B46     		mov	r3, r1
 417 020c FFF7FEFF 		bl	__aeabi_dadd
 418              	.LVL35:
 419 0210 0646     		mov	r6, r0
 420 0212 0F46     		mov	r7, r1
 421 0214 5846     		mov	r0, fp
 422 0216 FFF7FEFF 		bl	__aeabi_f2d
 423              	.LVL36:
 424 021a 0022     		movs	r2, #0
 425 021c 0023     		movs	r3, #0
 426 021e FFF7FEFF 		bl	__aeabi_dmul
 427              	.LVL37:
 428 0222 0246     		mov	r2, r0
 429 0224 0B46     		mov	r3, r1
 430 0226 3046     		mov	r0, r6
 431 0228 3946     		mov	r1, r7
 432 022a FFF7FEFF 		bl	__aeabi_dadd
 433              	.LVL38:
 434 022e 0646     		mov	r6, r0
 435 0230 0F46     		mov	r7, r1
 436 0232 DFF84CB2 		ldr	fp, .L58+72
 437 0236 4046     		mov	r0, r8
 438 0238 DBF80010 		ldr	r1, [fp]	@ float
 439 023c FFF7FEFF 		bl	__aeabi_fsub
 440              	.LVL39:
 441 0240 FFF7FEFF 		bl	__aeabi_f2d
 442              	.LVL40:
 443 0244 0022     		movs	r2, #0
 444 0246 0023     		movs	r3, #0
 445 0248 FFF7FEFF 		bl	__aeabi_dmul
 446              	.LVL41:
 447 024c 0246     		mov	r2, r0
 448 024e 0B46     		mov	r3, r1
 449 0250 3046     		mov	r0, r6
 450 0252 3946     		mov	r1, r7
 451 0254 FFF7FEFF 		bl	__aeabi_dadd
 452              	.LVL42:
 453 0258 FFF7FEFF 		bl	__aeabi_d2f
 454              	.LVL43:
 455 025c 0646     		mov	r6, r0
 456 025e 774B     		ldr	r3, .L58+4
 457 0260 1860     		str	r0, [r3]	@ float
 113:.\Control.c   ****     Desire_w_pitch = Error_pitch*angle_P_roll + int_Error_pitch*angle_I_roll + (Error_pitch - last_
ARM GAS  C:\Users\ADMINI~1\AppData\Local\Temp\ccFqYBCc.s 			page 11


 458              		.loc 1 113 0 discriminator 8
 459 0262 2846     		mov	r0, r5
 460 0264 FFF7FEFF 		bl	__aeabi_f2d
 461              	.LVL44:
 462 0268 0246     		mov	r2, r0
 463 026a 0B46     		mov	r3, r1
 464 026c FFF7FEFF 		bl	__aeabi_dadd
 465              	.LVL45:
 466 0270 CDE90001 		strd	r0, [sp]
 467 0274 5046     		mov	r0, r10
 468 0276 FFF7FEFF 		bl	__aeabi_f2d
 469              	.LVL46:
 470 027a 0022     		movs	r2, #0
 471 027c 0023     		movs	r3, #0
 472 027e FFF7FEFF 		bl	__aeabi_dmul
 473              	.LVL47:
 474 0282 0246     		mov	r2, r0
 475 0284 0B46     		mov	r3, r1
 476 0286 DDE90001 		ldrd	r0, [sp]
 477 028a FFF7FEFF 		bl	__aeabi_dadd
 478              	.LVL48:
 479 028e CDE90001 		strd	r0, [sp]
 480 0292 6B4F     		ldr	r7, .L58+8
 481 0294 2846     		mov	r0, r5
 482 0296 3968     		ldr	r1, [r7]	@ float
 483 0298 FFF7FEFF 		bl	__aeabi_fsub
 484              	.LVL49:
 485 029c FFF7FEFF 		bl	__aeabi_f2d
 486              	.LVL50:
 487 02a0 0022     		movs	r2, #0
 488 02a2 0023     		movs	r3, #0
 489 02a4 FFF7FEFF 		bl	__aeabi_dmul
 490              	.LVL51:
 491 02a8 0246     		mov	r2, r0
 492 02aa 0B46     		mov	r3, r1
 493 02ac DDE90001 		ldrd	r0, [sp]
 494 02b0 FFF7FEFF 		bl	__aeabi_dadd
 495              	.LVL52:
 496 02b4 FFF7FEFF 		bl	__aeabi_d2f
 497              	.LVL53:
 498 02b8 8246     		mov	r10, r0
 499 02ba 624B     		ldr	r3, .L58+12
 500 02bc 1860     		str	r0, [r3]	@ float
 114:.\Control.c   ****     
 115:.\Control.c   ****     //æ›´æ–°è§’åº¦è¯¯å·®
 116:.\Control.c   ****     last_Error_roll = Error_roll;
 501              		.loc 1 116 0 discriminator 8
 502 02be CBF80080 		str	r8, [fp]	@ float
 117:.\Control.c   ****     last_Error_pitch = Error_pitch;
 503              		.loc 1 117 0 discriminator 8
 504 02c2 3D60     		str	r5, [r7]	@ float
 118:.\Control.c   ****     
 119:.\Control.c   ****     //è®¡ç®—è§’é€Ÿåº¦è¯¯å·®
 120:.\Control.c   ****     Error_w_roll = Desire_w_roll - OmegaX; //å…·ä½“çš„è½´ä¸è§’é€Ÿåº¦çš„å¯¹åº”å…³ç³»æœ‰å¾…æµ‹é‡
 505              		.loc 1 120 0 discriminator 8
 506 02c4 3046     		mov	r0, r6
 507 02c6 604B     		ldr	r3, .L58+16
ARM GAS  C:\Users\ADMINI~1\AppData\Local\Temp\ccFqYBCc.s 			page 12


 508 02c8 1968     		ldr	r1, [r3]	@ float
 509 02ca FFF7FEFF 		bl	__aeabi_fsub
 510              	.LVL54:
 511 02ce 8046     		mov	r8, r0
 512 02d0 5E4B     		ldr	r3, .L58+20
 513 02d2 1860     		str	r0, [r3]	@ float
 121:.\Control.c   ****     Error_w_pitch = Desire_w_pitch - OmegaY;
 514              		.loc 1 121 0 discriminator 8
 515 02d4 5046     		mov	r0, r10
 516 02d6 5E4B     		ldr	r3, .L58+24
 517 02d8 1968     		ldr	r1, [r3]	@ float
 518 02da FFF7FEFF 		bl	__aeabi_fsub
 519              	.LVL55:
 520 02de 0546     		mov	r5, r0
 521 02e0 5C4B     		ldr	r3, .L58+28
 522 02e2 1860     		str	r0, [r3]	@ float
 122:.\Control.c   ****     
 123:.\Control.c   ****     //è§’é€Ÿåº¦è¯¯å·®ç§¯åˆ†å’Œç§¯åˆ†é™å¹…
 124:.\Control.c   ****     int_Error_w_roll += Error_w_roll;
 523              		.loc 1 124 0 discriminator 8
 524 02e4 4046     		mov	r0, r8
 525 02e6 5C4B     		ldr	r3, .L58+32
 526 02e8 1968     		ldr	r1, [r3]	@ float
 527 02ea FFF7FEFF 		bl	__aeabi_fadd
 528              	.LVL56:
 529 02ee 8346     		mov	fp, r0
 125:.\Control.c   ****     int_Error_w_pitch += Error_w_pitch;
 530              		.loc 1 125 0 discriminator 8
 531 02f0 2846     		mov	r0, r5
 532 02f2 5A4B     		ldr	r3, .L58+36
 533 02f4 1968     		ldr	r1, [r3]	@ float
 534 02f6 FFF7FEFF 		bl	__aeabi_fadd
 535              	.LVL57:
 536 02fa 8246     		mov	r10, r0
 126:.\Control.c   ****     int_Error_w_roll = (int_Error_w_roll > Omega_Int_Sup)?(Omega_Int_Sup):((int_Error_w_roll < -Ome
 537              		.loc 1 126 0 discriminator 8
 538 02fc 5846     		mov	r0, fp
 539 02fe 5849     		ldr	r1, .L58+40
 540 0300 FFF7FEFF 		bl	__aeabi_fcmpgt
 541              	.LVL58:
 542 0304 38B9     		cbnz	r0, .L40
 543              		.loc 1 126 0 is_stmt 0 discriminator 2
 544 0306 5846     		mov	r0, fp
 545 0308 5649     		ldr	r1, .L58+44
 546 030a FFF7FEFF 		bl	__aeabi_fcmplt
 547              	.LVL59:
 548 030e 20B1     		cbz	r0, .L21
 549              		.loc 1 126 0
 550 0310 DFF850B1 		ldr	fp, .L58+44
 551 0314 01E0     		b	.L21
 552              	.L40:
 553 0316 DFF848B1 		ldr	fp, .L58+40
 554              	.L21:
 555              		.loc 1 126 0 discriminator 8
 556 031a 4F4B     		ldr	r3, .L58+32
 557 031c C3F800B0 		str	fp, [r3]	@ float
 127:.\Control.c   ****     int_Error_w_pitch = (int_Error_w_pitch > Omega_Int_Sup)?(Omega_Int_Sup):((int_Error_w_pitch < -
ARM GAS  C:\Users\ADMINI~1\AppData\Local\Temp\ccFqYBCc.s 			page 13


 558              		.loc 1 127 0 is_stmt 1 discriminator 8
 559 0320 5046     		mov	r0, r10
 560 0322 4F49     		ldr	r1, .L58+40
 561 0324 FFF7FEFF 		bl	__aeabi_fcmpgt
 562              	.LVL60:
 563 0328 38B9     		cbnz	r0, .L41
 564              		.loc 1 127 0 is_stmt 0 discriminator 2
 565 032a 5046     		mov	r0, r10
 566 032c 4D49     		ldr	r1, .L58+44
 567 032e FFF7FEFF 		bl	__aeabi_fcmplt
 568              	.LVL61:
 569 0332 20B1     		cbz	r0, .L24
 570              		.loc 1 127 0
 571 0334 DFF82CA1 		ldr	r10, .L58+44
 572 0338 01E0     		b	.L24
 573              	.L41:
 574 033a DFF824A1 		ldr	r10, .L58+40
 575              	.L24:
 576              		.loc 1 127 0 discriminator 8
 577 033e 474B     		ldr	r3, .L58+36
 578 0340 C3F800A0 		str	r10, [r3]	@ float
 128:.\Control.c   ****     
 129:.\Control.c   ****     //PIDç”Ÿæˆæ§åˆ¶é‡
 130:.\Control.c   ****     Control_Roll = Error_w_roll*Omega_P_roll + int_Error_w_roll*Omega_I_roll + (Error_w_roll - last
 579              		.loc 1 130 0 is_stmt 1 discriminator 8
 580 0344 4046     		mov	r0, r8
 581 0346 FFF7FEFF 		bl	__aeabi_f2d
 582              	.LVL62:
 583 034a 0246     		mov	r2, r0
 584 034c 0B46     		mov	r3, r1
 585 034e FFF7FEFF 		bl	__aeabi_dadd
 586              	.LVL63:
 587 0352 0646     		mov	r6, r0
 588 0354 0F46     		mov	r7, r1
 589 0356 5846     		mov	r0, fp
 590 0358 FFF7FEFF 		bl	__aeabi_f2d
 591              	.LVL64:
 592 035c 0022     		movs	r2, #0
 593 035e 0023     		movs	r3, #0
 594 0360 FFF7FEFF 		bl	__aeabi_dmul
 595              	.LVL65:
 596 0364 0246     		mov	r2, r0
 597 0366 0B46     		mov	r3, r1
 598 0368 3046     		mov	r0, r6
 599 036a 3946     		mov	r1, r7
 600 036c FFF7FEFF 		bl	__aeabi_dadd
 601              	.LVL66:
 602 0370 0646     		mov	r6, r0
 603 0372 0F46     		mov	r7, r1
 604 0374 DFF80CB1 		ldr	fp, .L58+76
 605 0378 4046     		mov	r0, r8
 606 037a DBF80010 		ldr	r1, [fp]	@ float
 607 037e FFF7FEFF 		bl	__aeabi_fsub
 608              	.LVL67:
 609 0382 FFF7FEFF 		bl	__aeabi_f2d
 610              	.LVL68:
 611 0386 0022     		movs	r2, #0
ARM GAS  C:\Users\ADMINI~1\AppData\Local\Temp\ccFqYBCc.s 			page 14


 612 0388 0023     		movs	r3, #0
 613 038a FFF7FEFF 		bl	__aeabi_dmul
 614              	.LVL69:
 615 038e 0246     		mov	r2, r0
 616 0390 0B46     		mov	r3, r1
 617 0392 3046     		mov	r0, r6
 618 0394 3946     		mov	r1, r7
 619 0396 FFF7FEFF 		bl	__aeabi_dadd
 620              	.LVL70:
 621 039a FFF7FEFF 		bl	__aeabi_d2f
 622              	.LVL71:
 623 039e 0646     		mov	r6, r0
 624 03a0 314B     		ldr	r3, .L58+48
 625 03a2 1860     		str	r0, [r3]	@ float
 131:.\Control.c   ****     Control_Pitch = Error_w_pitch*Omega_P_pitch + int_Error_w_pitch*Omega_I_pitch + (Error_w_pitch 
 626              		.loc 1 131 0 discriminator 8
 627 03a4 2846     		mov	r0, r5
 628 03a6 FFF7FEFF 		bl	__aeabi_f2d
 629              	.LVL72:
 630 03aa 0246     		mov	r2, r0
 631 03ac 0B46     		mov	r3, r1
 632 03ae FFF7FEFF 		bl	__aeabi_dadd
 633              	.LVL73:
 634 03b2 CDE90001 		strd	r0, [sp]
 635 03b6 5046     		mov	r0, r10
 636 03b8 FFF7FEFF 		bl	__aeabi_f2d
 637              	.LVL74:
 638 03bc 0022     		movs	r2, #0
 639 03be 0023     		movs	r3, #0
 640 03c0 FFF7FEFF 		bl	__aeabi_dmul
 641              	.LVL75:
 642 03c4 0246     		mov	r2, r0
 643 03c6 0B46     		mov	r3, r1
 644 03c8 DDE90001 		ldrd	r0, [sp]
 645 03cc FFF7FEFF 		bl	__aeabi_dadd
 646              	.LVL76:
 647 03d0 CDE90001 		strd	r0, [sp]
 648 03d4 254F     		ldr	r7, .L58+52
 649 03d6 2846     		mov	r0, r5
 650 03d8 3968     		ldr	r1, [r7]	@ float
 651 03da FFF7FEFF 		bl	__aeabi_fsub
 652              	.LVL77:
 653 03de FFF7FEFF 		bl	__aeabi_f2d
 654              	.LVL78:
 655 03e2 0022     		movs	r2, #0
 656 03e4 0023     		movs	r3, #0
 657 03e6 FFF7FEFF 		bl	__aeabi_dmul
 658              	.LVL79:
 659 03ea 0246     		mov	r2, r0
 660 03ec 0B46     		mov	r3, r1
 661 03ee DDE90001 		ldrd	r0, [sp]
 662 03f2 FFF7FEFF 		bl	__aeabi_dadd
 663              	.LVL80:
 664 03f6 FFF7FEFF 		bl	__aeabi_d2f
 665              	.LVL81:
 666 03fa 8246     		mov	r10, r0
 667 03fc 1C4B     		ldr	r3, .L58+56
ARM GAS  C:\Users\ADMINI~1\AppData\Local\Temp\ccFqYBCc.s 			page 15


 668 03fe 1860     		str	r0, [r3]	@ float
 132:.\Control.c   ****     
 133:.\Control.c   ****     //æ›´æ–°è§’é€Ÿåº¦è¯¯å·®
 134:.\Control.c   ****     last_Error_w_roll = Error_w_roll;
 669              		.loc 1 134 0 discriminator 8
 670 0400 CBF80080 		str	r8, [fp]	@ float
 135:.\Control.c   ****     last_Error_w_pitch = Error_w_pitch;
 671              		.loc 1 135 0 discriminator 8
 672 0404 3D60     		str	r5, [r7]	@ float
 136:.\Control.c   **** 
 137:.\Control.c   ****     //å¯¹yawè§’åº¦çš„å¤„ç†ï¼Œå½¢æˆä¸€ä¸ªPIDé—­ç¯
 138:.\Control.c   ****     //å› ä¸ºå¯¹yawè§’åº¦æµ‹é‡ä¸å‡†ï¼Œå› æ­¤åªè€ƒè™‘è§’é€Ÿåº¦
 139:.\Control.c   ****     Error_w_yaw = Desire_w_yaw - OmegaZ;
 673              		.loc 1 139 0 discriminator 8
 674 0406 4846     		mov	r0, r9
 675 0408 1A4B     		ldr	r3, .L58+60
 676 040a 1968     		ldr	r1, [r3]	@ float
 677 040c FFF7FEFF 		bl	__aeabi_fsub
 678              	.LVL82:
 679 0410 0546     		mov	r5, r0
 680 0412 194B     		ldr	r3, .L58+64
 681 0414 1860     		str	r0, [r3]	@ float
 140:.\Control.c   ****     int_Error_w_yaw += Error_w_yaw;
 682              		.loc 1 140 0 discriminator 8
 683 0416 194B     		ldr	r3, .L58+68
 684 0418 1968     		ldr	r1, [r3]	@ float
 685 041a FFF7FEFF 		bl	__aeabi_fadd
 686              	.LVL83:
 687 041e 0746     		mov	r7, r0
 141:.\Control.c   ****     int_Error_w_yaw = (int_Error_w_yaw > Omega_Int_Sup)?(Omega_Int_Sup):((int_Error_w_yaw < -Omega_
 688              		.loc 1 141 0 discriminator 8
 689 0420 0F49     		ldr	r1, .L58+40
 690 0422 FFF7FEFF 		bl	__aeabi_fcmpgt
 691              	.LVL84:
 692 0426 78BB     		cbnz	r0, .L42
 693              		.loc 1 141 0 is_stmt 0 discriminator 2
 694 0428 3846     		mov	r0, r7
 695 042a 0E49     		ldr	r1, .L58+44
 696 042c FFF7FEFF 		bl	__aeabi_fcmplt
 697              	.LVL85:
 698 0430 58B3     		cbz	r0, .L27
 699              		.loc 1 141 0
 700 0432 0C4F     		ldr	r7, .L58+44
 701 0434 29E0     		b	.L27
 702              	.L59:
 703 0436 00BF     		.align	2
 704              	.L58:
 705 0438 00000000 		.word	int_Error_pitch
 706 043c 00000000 		.word	Desire_w_roll
 707 0440 00000000 		.word	last_Error_pitch
 708 0444 00000000 		.word	Desire_w_pitch
 709 0448 00000000 		.word	OmegaX
 710 044c 00000000 		.word	Error_w_roll
 711 0450 00000000 		.word	OmegaY
 712 0454 00000000 		.word	Error_w_pitch
 713 0458 00000000 		.word	int_Error_w_roll
 714 045c 00000000 		.word	int_Error_w_pitch
ARM GAS  C:\Users\ADMINI~1\AppData\Local\Temp\ccFqYBCc.s 			page 16


 715 0460 00007A44 		.word	1148846080
 716 0464 00007AC4 		.word	-998637568
 717 0468 00000000 		.word	Control_Roll
 718 046c 00000000 		.word	last_Error_w_pitch
 719 0470 00000000 		.word	Control_Pitch
 720 0474 00000000 		.word	OmegaZ
 721 0478 00000000 		.word	Error_w_yaw
 722 047c 00000000 		.word	int_Error_w_yaw
 723 0480 00000000 		.word	last_Error_roll
 724 0484 00000000 		.word	last_Error_w_roll
 725              	.L42:
 726 0488 724F     		ldr	r7, .L60
 727              	.L27:
 728              		.loc 1 141 0 discriminator 8
 729 048a 734B     		ldr	r3, .L60+4
 730 048c 1F60     		str	r7, [r3]	@ float
 142:.\Control.c   ****     Control_Yaw = Error_w_yaw*Omega_P_yaw + int_Error_w_yaw*Omega_I_yaw + (Error_w_yaw - last_Error
 731              		.loc 1 142 0 is_stmt 1 discriminator 8
 732 048e 2846     		mov	r0, r5
 733 0490 FFF7FEFF 		bl	__aeabi_f2d
 734              	.LVL86:
 735 0494 0022     		movs	r2, #0
 736 0496 714B     		ldr	r3, .L60+8
 737 0498 FFF7FEFF 		bl	__aeabi_dmul
 738              	.LVL87:
 739 049c 8046     		mov	r8, r0
 740 049e 8946     		mov	r9, r1
 741 04a0 3846     		mov	r0, r7
 742 04a2 FFF7FEFF 		bl	__aeabi_f2d
 743              	.LVL88:
 744 04a6 0022     		movs	r2, #0
 745 04a8 0023     		movs	r3, #0
 746 04aa FFF7FEFF 		bl	__aeabi_dmul
 747              	.LVL89:
 748 04ae 0246     		mov	r2, r0
 749 04b0 0B46     		mov	r3, r1
 750 04b2 4046     		mov	r0, r8
 751 04b4 4946     		mov	r1, r9
 752 04b6 FFF7FEFF 		bl	__aeabi_dadd
 753              	.LVL90:
 754 04ba 8046     		mov	r8, r0
 755 04bc 8946     		mov	r9, r1
 756 04be DFF8BCB1 		ldr	fp, .L60+40
 757 04c2 2846     		mov	r0, r5
 758 04c4 DBF80010 		ldr	r1, [fp]	@ float
 759 04c8 FFF7FEFF 		bl	__aeabi_fsub
 760              	.LVL91:
 761 04cc FFF7FEFF 		bl	__aeabi_f2d
 762              	.LVL92:
 763 04d0 0022     		movs	r2, #0
 764 04d2 0023     		movs	r3, #0
 765 04d4 FFF7FEFF 		bl	__aeabi_dmul
 766              	.LVL93:
 767 04d8 0246     		mov	r2, r0
 768 04da 0B46     		mov	r3, r1
 769 04dc 4046     		mov	r0, r8
 770 04de 4946     		mov	r1, r9
ARM GAS  C:\Users\ADMINI~1\AppData\Local\Temp\ccFqYBCc.s 			page 17


 771 04e0 FFF7FEFF 		bl	__aeabi_dadd
 772              	.LVL94:
 773 04e4 FFF7FEFF 		bl	__aeabi_d2f
 774              	.LVL95:
 775 04e8 0746     		mov	r7, r0
 776 04ea 5D4B     		ldr	r3, .L60+12
 777 04ec 1860     		str	r0, [r3]	@ float
 143:.\Control.c   ****     last_Error_w_yaw = Error_w_yaw;
 778              		.loc 1 143 0 discriminator 8
 779 04ee CBF80050 		str	r5, [fp]	@ float
 144:.\Control.c   ****     
 145:.\Control.c   ****     //æ§åˆ¶é‡è½¬åŒ–ä¸ºç”µæœºè½¬é€Ÿå˜åŒ–
 146:.\Control.c   ****     //å®é™…æ—‹è½¬æ–¹å‘å’Œç”µæœºç¼–å·éœ€è¦è¿›ä¸€æ­¥ç¡®è®¤
 147:.\Control.c   ****     set_speed_1 +=  Control_Roll + Control_Pitch + Control_Yaw;
 780              		.loc 1 147 0 discriminator 8
 781 04f2 2046     		mov	r0, r4
 782 04f4 FFF7FEFF 		bl	__aeabi_i2f
 783              	.LVL96:
 784 04f8 0446     		mov	r4, r0
 785 04fa 3046     		mov	r0, r6
 786 04fc 5146     		mov	r1, r10
 787 04fe FFF7FEFF 		bl	__aeabi_fadd
 788              	.LVL97:
 789 0502 0146     		mov	r1, r0
 790 0504 3846     		mov	r0, r7
 791 0506 FFF7FEFF 		bl	__aeabi_fadd
 792              	.LVL98:
 793 050a 0146     		mov	r1, r0
 794 050c 2046     		mov	r0, r4
 795 050e FFF7FEFF 		bl	__aeabi_fadd
 796              	.LVL99:
 797 0512 FFF7FEFF 		bl	__aeabi_f2iz
 798              	.LVL100:
 799 0516 8146     		mov	r9, r0
 148:.\Control.c   ****     set_speed_2 += -Control_Roll + Control_Pitch - Control_Yaw;
 800              		.loc 1 148 0 discriminator 8
 801 0518 5046     		mov	r0, r10
 802 051a 3146     		mov	r1, r6
 803 051c FFF7FEFF 		bl	__aeabi_fsub
 804              	.LVL101:
 805 0520 3946     		mov	r1, r7
 806 0522 FFF7FEFF 		bl	__aeabi_fsub
 807              	.LVL102:
 808 0526 0146     		mov	r1, r0
 809 0528 2046     		mov	r0, r4
 810 052a FFF7FEFF 		bl	__aeabi_fadd
 811              	.LVL103:
 812 052e FFF7FEFF 		bl	__aeabi_f2iz
 813              	.LVL104:
 814 0532 8046     		mov	r8, r0
 149:.\Control.c   ****     set_speed_3 += -Control_Roll - Control_Pitch + Control_Yaw;
 815              		.loc 1 149 0 discriminator 8
 816 0534 06F10040 		add	r0, r6, #-2147483648
 817 0538 5146     		mov	r1, r10
 818 053a FFF7FEFF 		bl	__aeabi_fsub
 819              	.LVL105:
 820 053e 0146     		mov	r1, r0
ARM GAS  C:\Users\ADMINI~1\AppData\Local\Temp\ccFqYBCc.s 			page 18


 821 0540 3846     		mov	r0, r7
 822 0542 FFF7FEFF 		bl	__aeabi_fadd
 823              	.LVL106:
 824 0546 0146     		mov	r1, r0
 825 0548 2046     		mov	r0, r4
 826 054a FFF7FEFF 		bl	__aeabi_fadd
 827              	.LVL107:
 828 054e FFF7FEFF 		bl	__aeabi_f2iz
 829              	.LVL108:
 830 0552 0546     		mov	r5, r0
 150:.\Control.c   ****     set_speed_4 +=  Control_Roll - Control_Pitch - Control_Yaw;
 831              		.loc 1 150 0 discriminator 8
 832 0554 3046     		mov	r0, r6
 833 0556 5146     		mov	r1, r10
 834 0558 FFF7FEFF 		bl	__aeabi_fsub
 835              	.LVL109:
 836 055c 3946     		mov	r1, r7
 837 055e FFF7FEFF 		bl	__aeabi_fsub
 838              	.LVL110:
 839 0562 0146     		mov	r1, r0
 840 0564 2046     		mov	r0, r4
 841 0566 FFF7FEFF 		bl	__aeabi_fadd
 842              	.LVL111:
 843 056a FFF7FEFF 		bl	__aeabi_f2iz
 844              	.LVL112:
 151:.\Control.c   ****     
 152:.\Control.c   ****     //é™åˆ¶ç”µæœºè½¬é€Ÿåœ¨0-1000
 153:.\Control.c   ****     set_speed_1 = (set_speed_1 < 0)?(0):((set_speed_1 > 1000)?(1000):(set_speed_1));
 845              		.loc 1 153 0 discriminator 8
 846 056e B9F1000F 		cmp	r9, #0
 847 0572 06DB     		blt	.L43
 848              		.loc 1 153 0 is_stmt 0 discriminator 1
 849 0574 4B46     		mov	r3, r9
 850 0576 B9F57A7F 		cmp	r9, #1000
 851 057a A8BF     		it	ge
 852 057c 4FF47A73 		movge	r3, #1000
 853 0580 00E0     		b	.L30
 854              	.L43:
 855              		.loc 1 153 0
 856 0582 0023     		movs	r3, #0
 857              	.L30:
 858              		.loc 1 153 0 discriminator 4
 859 0584 374A     		ldr	r2, .L60+16
 860 0586 1360     		str	r3, [r2]
 154:.\Control.c   ****     set_speed_2 = (set_speed_2 < 0)?(0):((set_speed_2 > 1000)?(1000):(set_speed_2));
 861              		.loc 1 154 0 is_stmt 1 discriminator 4
 862 0588 B8F1000F 		cmp	r8, #0
 863 058c 06DB     		blt	.L44
 864              		.loc 1 154 0 is_stmt 0 discriminator 1
 865 058e 4346     		mov	r3, r8
 866 0590 B8F57A7F 		cmp	r8, #1000
 867 0594 A8BF     		it	ge
 868 0596 4FF47A73 		movge	r3, #1000
 869 059a 00E0     		b	.L31
 870              	.L44:
 871              		.loc 1 154 0
 872 059c 0023     		movs	r3, #0
ARM GAS  C:\Users\ADMINI~1\AppData\Local\Temp\ccFqYBCc.s 			page 19


 873              	.L31:
 874              		.loc 1 154 0 discriminator 4
 875 059e 324A     		ldr	r2, .L60+20
 876 05a0 1360     		str	r3, [r2]
 155:.\Control.c   ****     set_speed_3 = (set_speed_3 < 0)?(0):((set_speed_3 > 1000)?(1000):(set_speed_3));
 877              		.loc 1 155 0 is_stmt 1 discriminator 4
 878 05a2 002D     		cmp	r5, #0
 879 05a4 05DB     		blt	.L45
 880              		.loc 1 155 0 is_stmt 0 discriminator 1
 881 05a6 B5F57A7F 		cmp	r5, #1000
 882 05aa A8BF     		it	ge
 883 05ac 4FF47A75 		movge	r5, #1000
 884 05b0 00E0     		b	.L32
 885              	.L45:
 886              		.loc 1 155 0
 887 05b2 0025     		movs	r5, #0
 888              	.L32:
 889              		.loc 1 155 0 discriminator 4
 890 05b4 2D4B     		ldr	r3, .L60+24
 891 05b6 1D60     		str	r5, [r3]
 156:.\Control.c   ****     set_speed_4 = (set_speed_4 < 0)?(0):((set_speed_4 > 1000)?(1000):(set_speed_4));
 892              		.loc 1 156 0 is_stmt 1 discriminator 4
 893 05b8 0028     		cmp	r0, #0
 894 05ba 05DB     		blt	.L46
 895              		.loc 1 156 0 is_stmt 0 discriminator 1
 896 05bc B0F57A7F 		cmp	r0, #1000
 897 05c0 A8BF     		it	ge
 898 05c2 4FF47A70 		movge	r0, #1000
 899 05c6 00E0     		b	.L33
 900              	.L46:
 901              		.loc 1 156 0
 902 05c8 0020     		movs	r0, #0
 903              	.L33:
 904              		.loc 1 156 0 discriminator 4
 905 05ca 294D     		ldr	r5, .L60+28
 906 05cc 2860     		str	r0, [r5]
 157:.\Control.c   ****     
 158:.\Control.c   ****     LCD_Position(0, 0);
 907              		.loc 1 158 0 is_stmt 1 discriminator 4
 908 05ce 0020     		movs	r0, #0
 909 05d0 0146     		mov	r1, r0
 910 05d2 FFF7FEFF 		bl	LCD_Position
 911              	.LVL113:
 159:.\Control.c   ****     LCD_PrintDecUint16(set_speed_1); //=========================
 912              		.loc 1 159 0 discriminator 4
 913 05d6 234B     		ldr	r3, .L60+16
 914 05d8 1888     		ldrh	r0, [r3]
 915 05da FFF7FEFF 		bl	LCD_PrintU32Number
 916              	.LVL114:
 160:.\Control.c   ****     LCD_PrintString("     ");
 917              		.loc 1 160 0 discriminator 4
 918 05de 254C     		ldr	r4, .L60+32
 919 05e0 2046     		mov	r0, r4
 920 05e2 FFF7FEFF 		bl	LCD_PrintString
 921              	.LVL115:
 161:.\Control.c   ****     LCD_Position(0, 4);
 922              		.loc 1 161 0 discriminator 4
ARM GAS  C:\Users\ADMINI~1\AppData\Local\Temp\ccFqYBCc.s 			page 20


 923 05e6 0020     		movs	r0, #0
 924 05e8 0421     		movs	r1, #4
 925 05ea FFF7FEFF 		bl	LCD_Position
 926              	.LVL116:
 162:.\Control.c   ****     LCD_PrintDecUint16(set_speed_2);
 927              		.loc 1 162 0 discriminator 4
 928 05ee 1E4B     		ldr	r3, .L60+20
 929 05f0 1888     		ldrh	r0, [r3]
 930 05f2 FFF7FEFF 		bl	LCD_PrintU32Number
 931              	.LVL117:
 163:.\Control.c   ****     LCD_PrintString("     ");
 932              		.loc 1 163 0 discriminator 4
 933 05f6 2046     		mov	r0, r4
 934 05f8 FFF7FEFF 		bl	LCD_PrintString
 935              	.LVL118:
 164:.\Control.c   ****     LCD_Position(0, 8);
 936              		.loc 1 164 0 discriminator 4
 937 05fc 0020     		movs	r0, #0
 938 05fe 0821     		movs	r1, #8
 939 0600 FFF7FEFF 		bl	LCD_Position
 940              	.LVL119:
 165:.\Control.c   ****     LCD_PrintDecUint16(set_speed_3);
 941              		.loc 1 165 0 discriminator 4
 942 0604 194B     		ldr	r3, .L60+24
 943 0606 1888     		ldrh	r0, [r3]
 944 0608 FFF7FEFF 		bl	LCD_PrintU32Number
 945              	.LVL120:
 166:.\Control.c   ****     LCD_PrintString("     ");
 946              		.loc 1 166 0 discriminator 4
 947 060c 2046     		mov	r0, r4
 948 060e FFF7FEFF 		bl	LCD_PrintString
 949              	.LVL121:
 167:.\Control.c   ****     LCD_Position(0, 12);
 950              		.loc 1 167 0 discriminator 4
 951 0612 0020     		movs	r0, #0
 952 0614 0C21     		movs	r1, #12
 953 0616 FFF7FEFF 		bl	LCD_Position
 954              	.LVL122:
 168:.\Control.c   ****     LCD_PrintDecUint16(set_speed_4);
 955              		.loc 1 168 0 discriminator 4
 956 061a 2888     		ldrh	r0, [r5]
 957 061c FFF7FEFF 		bl	LCD_PrintU32Number
 958              	.LVL123:
 169:.\Control.c   ****     LCD_PrintString("     ");
 959              		.loc 1 169 0 discriminator 4
 960 0620 2046     		mov	r0, r4
 961 0622 FFF7FEFF 		bl	LCD_PrintString
 962              	.LVL124:
 170:.\Control.c   ****     
 171:.\Control.c   ****     /*LCD_Position(1, 0);
 172:.\Control.c   ****     LCD_PrintDecUint16((int)(Desire_w_roll*10.0)); //=========================
 173:.\Control.c   ****     LCD_Position(1, 5);
 174:.\Control.c   ****     LCD_PrintDecUint16((int)(Desire_w_pitch*10.0));
 175:.\Control.c   ****     LCD_Position(1, 10);
 176:.\Control.c   ****     LCD_PrintDecUint16((int)(Desire_w_yaw*10.0));*/
 177:.\Control.c   ****     tmpcount++;
 963              		.loc 1 177 0 discriminator 4
ARM GAS  C:\Users\ADMINI~1\AppData\Local\Temp\ccFqYBCc.s 			page 21


 964 0626 144A     		ldr	r2, .L60+36
 965 0628 1368     		ldr	r3, [r2]
 966 062a 0133     		adds	r3, r3, #1
 967 062c 1360     		str	r3, [r2]
 178:.\Control.c   ****     if(tmpcount >= 100)
 968              		.loc 1 178 0 discriminator 4
 969 062e 632B     		cmp	r3, #99
 970 0630 02DD     		ble	.L34
 179:.\Control.c   ****         tmpcount = 0;
 971              		.loc 1 179 0
 972 0632 0022     		movs	r2, #0
 973 0634 104B     		ldr	r3, .L60+36
 974 0636 1A60     		str	r2, [r3]
 975              	.L34:
 180:.\Control.c   ****     LCD_Position(1, 0);
 976              		.loc 1 180 0
 977 0638 0120     		movs	r0, #1
 978 063a 0021     		movs	r1, #0
 979 063c FFF7FEFF 		bl	LCD_Position
 980              	.LVL125:
 181:.\Control.c   ****     LCD_PrintDecUint16(tmpcount);
 981              		.loc 1 181 0
 982 0640 0D4B     		ldr	r3, .L60+36
 983 0642 1888     		ldrh	r0, [r3]
 984 0644 FFF7FEFF 		bl	LCD_PrintU32Number
 985              	.LVL126:
 182:.\Control.c   ****     LCD_PrintString("     ");
 986              		.loc 1 182 0
 987 0648 0A48     		ldr	r0, .L60+32
 988 064a FFF7FEFF 		bl	LCD_PrintString
 989              	.LVL127:
 183:.\Control.c   ****     
 184:.\Control.c   ****     //Motor_v_1 = Motor_v_2 = Motor_v_3 = Motor_v_4 = 0;
 185:.\Control.c   ****     /*Motor_v_1 = set_speed_1;
 186:.\Control.c   ****     Motor_v_2 = set_speed_2;
 187:.\Control.c   ****     Motor_v_3 = set_speed_3;
 188:.\Control.c   ****     Motor_v_4 = set_speed_4;*/
 189:.\Control.c   **** }
 990              		.loc 1 189 0
 991 064e 03B0     		add	sp, sp, #12
 992              		.cfi_def_cfa_offset 36
 993              		@ sp needed
 994 0650 BDE8F08F 		pop	{r4, r5, r6, r7, r8, r9, r10, fp, pc}
 995              	.L61:
 996              		.align	2
 997              	.L60:
 998 0654 00007A44 		.word	1148846080
 999 0658 00000000 		.word	int_Error_w_yaw
 1000 065c 00000840 		.word	1074266112
 1001 0660 00000000 		.word	Control_Yaw
 1002 0664 00000000 		.word	set_speed_1
 1003 0668 00000000 		.word	set_speed_2
 1004 066c 00000000 		.word	set_speed_3
 1005 0670 00000000 		.word	set_speed_4
 1006 0674 00000000 		.word	.LC0
 1007 0678 00000000 		.word	.LANCHOR0
 1008 067c 00000000 		.word	last_Error_w_yaw
ARM GAS  C:\Users\ADMINI~1\AppData\Local\Temp\ccFqYBCc.s 			page 22


 1009              		.cfi_endproc
 1010              	.LFE64:
 1011              		.size	Control_Main, .-Control_Main
 1012              		.global	tmpcount
 1013              		.comm	Control_Yaw,4,4
 1014              		.comm	Control_Pitch,4,4
 1015              		.comm	Control_Roll,4,4
 1016              		.comm	int_Error_w_pitch,4,4
 1017              		.comm	int_Error_w_roll,4,4
 1018              		.comm	last_Error_w_pitch,4,4
 1019              		.comm	last_Error_w_roll,4,4
 1020              		.comm	Error_w_pitch,4,4
 1021              		.comm	Error_w_roll,4,4
 1022              		.comm	Desire_w_pitch,4,4
 1023              		.comm	Desire_w_roll,4,4
 1024              		.comm	int_Error_w_yaw,4,4
 1025              		.comm	int_Error_pitch,4,4
 1026              		.comm	int_Error_roll,4,4
 1027              		.comm	last_Error_w_yaw,4,4
 1028              		.comm	last_Error_pitch,4,4
 1029              		.comm	last_Error_roll,4,4
 1030              		.comm	Error_w_yaw,4,4
 1031              		.comm	Error_pitch,4,4
 1032              		.comm	Error_roll,4,4
 1033              		.comm	set_speed_4,4,4
 1034              		.comm	set_speed_3,4,4
 1035              		.comm	set_speed_2,4,4
 1036              		.comm	set_speed_1,4,4
 1037              		.section	.rodata.str1.4,"aMS",%progbits,1
 1038              		.align	2
 1039              	.LC0:
 1040 0000 20202020 		.ascii	"     \000"
 1040      2000
 1041 0006 0000     		.bss
 1042              		.align	2
 1043              		.set	.LANCHOR0,. + 0
 1044              		.type	tmpcount, %object
 1045              		.size	tmpcount, 4
 1046              	tmpcount:
 1047 0000 00000000 		.space	4
 1048              		.text
 1049              	.Letext0:
 1050              		.file 2 "d:\\program files (x86)\\cypress\\psoc creator\\3.3\\psoc creator\\import\\gnu\\arm\\4.9.
 1051              		.file 3 "d:\\program files (x86)\\cypress\\psoc creator\\3.3\\psoc creator\\import\\gnu\\arm\\4.9.
 1052              		.file 4 "Generated_Source\\PSoC5/cytypes.h"
 1053              		.file 5 "Generated_Source\\PSoC5/core_cm3.h"
 1054              		.file 6 "Generated_Source\\PSoC5/LCD.h"
 1055              		.section	.debug_info,"",%progbits
 1056              	.Ldebug_info0:
 1057 0000 8D040000 		.4byte	0x48d
 1058 0004 0400     		.2byte	0x4
 1059 0006 00000000 		.4byte	.Ldebug_abbrev0
 1060 000a 04       		.byte	0x4
 1061 000b 01       		.uleb128 0x1
 1062 000c 5D020000 		.4byte	.LASF62
 1063 0010 01       		.byte	0x1
 1064 0011 C6010000 		.4byte	.LASF63
ARM GAS  C:\Users\ADMINI~1\AppData\Local\Temp\ccFqYBCc.s 			page 23


 1065 0015 C8030000 		.4byte	.LASF64
 1066 0019 00000000 		.4byte	.Ldebug_ranges0+0
 1067 001d 00000000 		.4byte	0
 1068 0021 00000000 		.4byte	.Ldebug_line0
 1069 0025 02       		.uleb128 0x2
 1070 0026 01       		.byte	0x1
 1071 0027 06       		.byte	0x6
 1072 0028 D2010000 		.4byte	.LASF0
 1073 002c 02       		.uleb128 0x2
 1074 002d 01       		.byte	0x1
 1075 002e 08       		.byte	0x8
 1076 002f B8010000 		.4byte	.LASF1
 1077 0033 02       		.uleb128 0x2
 1078 0034 02       		.byte	0x2
 1079 0035 05       		.byte	0x5
 1080 0036 33000000 		.4byte	.LASF2
 1081 003a 02       		.uleb128 0x2
 1082 003b 02       		.byte	0x2
 1083 003c 07       		.byte	0x7
 1084 003d 32020000 		.4byte	.LASF3
 1085 0041 03       		.uleb128 0x3
 1086 0042 63030000 		.4byte	.LASF9
 1087 0046 02       		.byte	0x2
 1088 0047 3F       		.byte	0x3f
 1089 0048 4C000000 		.4byte	0x4c
 1090 004c 02       		.uleb128 0x2
 1091 004d 04       		.byte	0x4
 1092 004e 05       		.byte	0x5
 1093 004f 5F010000 		.4byte	.LASF4
 1094 0053 02       		.uleb128 0x2
 1095 0054 04       		.byte	0x4
 1096 0055 07       		.byte	0x7
 1097 0056 2E030000 		.4byte	.LASF5
 1098 005a 02       		.uleb128 0x2
 1099 005b 08       		.byte	0x8
 1100 005c 05       		.byte	0x5
 1101 005d 44010000 		.4byte	.LASF6
 1102 0061 02       		.uleb128 0x2
 1103 0062 08       		.byte	0x8
 1104 0063 07       		.byte	0x7
 1105 0064 DE010000 		.4byte	.LASF7
 1106 0068 04       		.uleb128 0x4
 1107 0069 04       		.byte	0x4
 1108 006a 05       		.byte	0x5
 1109 006b 696E7400 		.ascii	"int\000"
 1110 006f 02       		.uleb128 0x2
 1111 0070 04       		.byte	0x4
 1112 0071 07       		.byte	0x7
 1113 0072 F5010000 		.4byte	.LASF8
 1114 0076 03       		.uleb128 0x3
 1115 0077 EB020000 		.4byte	.LASF10
 1116 007b 03       		.byte	0x3
 1117 007c 2C       		.byte	0x2c
 1118 007d 41000000 		.4byte	0x41
 1119 0081 05       		.uleb128 0x5
 1120 0082 07010000 		.4byte	.LASF11
 1121 0086 04       		.byte	0x4
ARM GAS  C:\Users\ADMINI~1\AppData\Local\Temp\ccFqYBCc.s 			page 24


 1122 0087 9201     		.2byte	0x192
 1123 0089 2C000000 		.4byte	0x2c
 1124 008d 05       		.uleb128 0x5
 1125 008e DA000000 		.4byte	.LASF12
 1126 0092 04       		.byte	0x4
 1127 0093 9301     		.2byte	0x193
 1128 0095 3A000000 		.4byte	0x3a
 1129 0099 05       		.uleb128 0x5
 1130 009a 27030000 		.4byte	.LASF13
 1131 009e 04       		.byte	0x4
 1132 009f 9401     		.2byte	0x194
 1133 00a1 53000000 		.4byte	0x53
 1134 00a5 02       		.uleb128 0x2
 1135 00a6 04       		.byte	0x4
 1136 00a7 04       		.byte	0x4
 1137 00a8 3E010000 		.4byte	.LASF14
 1138 00ac 02       		.uleb128 0x2
 1139 00ad 08       		.byte	0x8
 1140 00ae 04       		.byte	0x4
 1141 00af 40030000 		.4byte	.LASF15
 1142 00b3 05       		.uleb128 0x5
 1143 00b4 8F000000 		.4byte	.LASF16
 1144 00b8 04       		.byte	0x4
 1145 00b9 A301     		.2byte	0x1a3
 1146 00bb BF000000 		.4byte	0xbf
 1147 00bf 02       		.uleb128 0x2
 1148 00c0 01       		.byte	0x1
 1149 00c1 08       		.byte	0x8
 1150 00c2 58020000 		.4byte	.LASF17
 1151 00c6 02       		.uleb128 0x2
 1152 00c7 04       		.byte	0x4
 1153 00c8 07       		.byte	0x7
 1154 00c9 4A000000 		.4byte	.LASF18
 1155 00cd 06       		.uleb128 0x6
 1156 00ce ED000000 		.4byte	.LASF65
 1157 00d2 01       		.byte	0x1
 1158 00d3 3D       		.byte	0x3d
 1159 00d4 00000000 		.4byte	.LFB63
 1160 00d8 C8000000 		.4byte	.LFE63-.LFB63
 1161 00dc 01       		.uleb128 0x1
 1162 00dd 9C       		.byte	0x9c
 1163 00de 07       		.uleb128 0x7
 1164 00df A9030000 		.4byte	.LASF66
 1165 00e3 01       		.byte	0x1
 1166 00e4 47       		.byte	0x47
 1167 00e5 00000000 		.4byte	.LFB64
 1168 00e9 80060000 		.4byte	.LFE64-.LFB64
 1169 00ed 01       		.uleb128 0x1
 1170 00ee 9C       		.byte	0x9c
 1171 00ef F9010000 		.4byte	0x1f9
 1172 00f3 08       		.uleb128 0x8
 1173 00f4 D6050000 		.4byte	.LVL113
 1174 00f8 4D040000 		.4byte	0x44d
 1175 00fc 0B010000 		.4byte	0x10b
 1176 0100 09       		.uleb128 0x9
 1177 0101 01       		.uleb128 0x1
 1178 0102 51       		.byte	0x51
ARM GAS  C:\Users\ADMINI~1\AppData\Local\Temp\ccFqYBCc.s 			page 25


 1179 0103 01       		.uleb128 0x1
 1180 0104 30       		.byte	0x30
 1181 0105 09       		.uleb128 0x9
 1182 0106 01       		.uleb128 0x1
 1183 0107 50       		.byte	0x50
 1184 0108 01       		.uleb128 0x1
 1185 0109 30       		.byte	0x30
 1186 010a 00       		.byte	0
 1187 010b 0A       		.uleb128 0xa
 1188 010c DE050000 		.4byte	.LVL114
 1189 0110 63040000 		.4byte	0x463
 1190 0114 08       		.uleb128 0x8
 1191 0115 E6050000 		.4byte	.LVL115
 1192 0119 74040000 		.4byte	0x474
 1193 011d 28010000 		.4byte	0x128
 1194 0121 09       		.uleb128 0x9
 1195 0122 01       		.uleb128 0x1
 1196 0123 50       		.byte	0x50
 1197 0124 02       		.uleb128 0x2
 1198 0125 74       		.byte	0x74
 1199 0126 00       		.sleb128 0
 1200 0127 00       		.byte	0
 1201 0128 08       		.uleb128 0x8
 1202 0129 EE050000 		.4byte	.LVL116
 1203 012d 4D040000 		.4byte	0x44d
 1204 0131 40010000 		.4byte	0x140
 1205 0135 09       		.uleb128 0x9
 1206 0136 01       		.uleb128 0x1
 1207 0137 51       		.byte	0x51
 1208 0138 01       		.uleb128 0x1
 1209 0139 34       		.byte	0x34
 1210 013a 09       		.uleb128 0x9
 1211 013b 01       		.uleb128 0x1
 1212 013c 50       		.byte	0x50
 1213 013d 01       		.uleb128 0x1
 1214 013e 30       		.byte	0x30
 1215 013f 00       		.byte	0
 1216 0140 0A       		.uleb128 0xa
 1217 0141 F6050000 		.4byte	.LVL117
 1218 0145 63040000 		.4byte	0x463
 1219 0149 08       		.uleb128 0x8
 1220 014a FC050000 		.4byte	.LVL118
 1221 014e 74040000 		.4byte	0x474
 1222 0152 5D010000 		.4byte	0x15d
 1223 0156 09       		.uleb128 0x9
 1224 0157 01       		.uleb128 0x1
 1225 0158 50       		.byte	0x50
 1226 0159 02       		.uleb128 0x2
 1227 015a 74       		.byte	0x74
 1228 015b 00       		.sleb128 0
 1229 015c 00       		.byte	0
 1230 015d 08       		.uleb128 0x8
 1231 015e 04060000 		.4byte	.LVL119
 1232 0162 4D040000 		.4byte	0x44d
 1233 0166 75010000 		.4byte	0x175
 1234 016a 09       		.uleb128 0x9
 1235 016b 01       		.uleb128 0x1
ARM GAS  C:\Users\ADMINI~1\AppData\Local\Temp\ccFqYBCc.s 			page 26


 1236 016c 51       		.byte	0x51
 1237 016d 01       		.uleb128 0x1
 1238 016e 38       		.byte	0x38
 1239 016f 09       		.uleb128 0x9
 1240 0170 01       		.uleb128 0x1
 1241 0171 50       		.byte	0x50
 1242 0172 01       		.uleb128 0x1
 1243 0173 30       		.byte	0x30
 1244 0174 00       		.byte	0
 1245 0175 0A       		.uleb128 0xa
 1246 0176 0C060000 		.4byte	.LVL120
 1247 017a 63040000 		.4byte	0x463
 1248 017e 08       		.uleb128 0x8
 1249 017f 12060000 		.4byte	.LVL121
 1250 0183 74040000 		.4byte	0x474
 1251 0187 92010000 		.4byte	0x192
 1252 018b 09       		.uleb128 0x9
 1253 018c 01       		.uleb128 0x1
 1254 018d 50       		.byte	0x50
 1255 018e 02       		.uleb128 0x2
 1256 018f 74       		.byte	0x74
 1257 0190 00       		.sleb128 0
 1258 0191 00       		.byte	0
 1259 0192 08       		.uleb128 0x8
 1260 0193 1A060000 		.4byte	.LVL122
 1261 0197 4D040000 		.4byte	0x44d
 1262 019b AA010000 		.4byte	0x1aa
 1263 019f 09       		.uleb128 0x9
 1264 01a0 01       		.uleb128 0x1
 1265 01a1 51       		.byte	0x51
 1266 01a2 01       		.uleb128 0x1
 1267 01a3 3C       		.byte	0x3c
 1268 01a4 09       		.uleb128 0x9
 1269 01a5 01       		.uleb128 0x1
 1270 01a6 50       		.byte	0x50
 1271 01a7 01       		.uleb128 0x1
 1272 01a8 30       		.byte	0x30
 1273 01a9 00       		.byte	0
 1274 01aa 0A       		.uleb128 0xa
 1275 01ab 20060000 		.4byte	.LVL123
 1276 01af 63040000 		.4byte	0x463
 1277 01b3 08       		.uleb128 0x8
 1278 01b4 26060000 		.4byte	.LVL124
 1279 01b8 74040000 		.4byte	0x474
 1280 01bc C7010000 		.4byte	0x1c7
 1281 01c0 09       		.uleb128 0x9
 1282 01c1 01       		.uleb128 0x1
 1283 01c2 50       		.byte	0x50
 1284 01c3 02       		.uleb128 0x2
 1285 01c4 74       		.byte	0x74
 1286 01c5 00       		.sleb128 0
 1287 01c6 00       		.byte	0
 1288 01c7 08       		.uleb128 0x8
 1289 01c8 40060000 		.4byte	.LVL125
 1290 01cc 4D040000 		.4byte	0x44d
 1291 01d0 DF010000 		.4byte	0x1df
 1292 01d4 09       		.uleb128 0x9
ARM GAS  C:\Users\ADMINI~1\AppData\Local\Temp\ccFqYBCc.s 			page 27


 1293 01d5 01       		.uleb128 0x1
 1294 01d6 51       		.byte	0x51
 1295 01d7 01       		.uleb128 0x1
 1296 01d8 30       		.byte	0x30
 1297 01d9 09       		.uleb128 0x9
 1298 01da 01       		.uleb128 0x1
 1299 01db 50       		.byte	0x50
 1300 01dc 01       		.uleb128 0x1
 1301 01dd 31       		.byte	0x31
 1302 01de 00       		.byte	0
 1303 01df 0A       		.uleb128 0xa
 1304 01e0 48060000 		.4byte	.LVL126
 1305 01e4 63040000 		.4byte	0x463
 1306 01e8 0B       		.uleb128 0xb
 1307 01e9 4E060000 		.4byte	.LVL127
 1308 01ed 74040000 		.4byte	0x474
 1309 01f1 09       		.uleb128 0x9
 1310 01f2 01       		.uleb128 0x1
 1311 01f3 50       		.byte	0x50
 1312 01f4 02       		.uleb128 0x2
 1313 01f5 74       		.byte	0x74
 1314 01f6 00       		.sleb128 0
 1315 01f7 00       		.byte	0
 1316 01f8 00       		.byte	0
 1317 01f9 0C       		.uleb128 0xc
 1318 01fa 47030000 		.4byte	.LASF19
 1319 01fe 05       		.byte	0x5
 1320 01ff 9606     		.2byte	0x696
 1321 0201 05020000 		.4byte	0x205
 1322 0205 0D       		.uleb128 0xd
 1323 0206 76000000 		.4byte	0x76
 1324 020a 0E       		.uleb128 0xe
 1325 020b E1000000 		.4byte	.LASF20
 1326 020f 01       		.byte	0x1
 1327 0210 04       		.byte	0x4
 1328 0211 68000000 		.4byte	0x68
 1329 0215 0E       		.uleb128 0xe
 1330 0216 1E000000 		.4byte	.LASF21
 1331 021a 01       		.byte	0x1
 1332 021b 04       		.byte	0x4
 1333 021c 68000000 		.4byte	0x68
 1334 0220 0E       		.uleb128 0xe
 1335 0221 9E010000 		.4byte	.LASF22
 1336 0225 01       		.byte	0x1
 1337 0226 04       		.byte	0x4
 1338 0227 68000000 		.4byte	0x68
 1339 022b 0E       		.uleb128 0xe
 1340 022c 57010000 		.4byte	.LASF23
 1341 0230 01       		.byte	0x1
 1342 0231 04       		.byte	0x4
 1343 0232 68000000 		.4byte	0x68
 1344 0236 0E       		.uleb128 0xe
 1345 0237 12020000 		.4byte	.LASF24
 1346 023b 01       		.byte	0x1
 1347 023c 05       		.byte	0x5
 1348 023d A5000000 		.4byte	0xa5
 1349 0241 0E       		.uleb128 0xe
ARM GAS  C:\Users\ADMINI~1\AppData\Local\Temp\ccFqYBCc.s 			page 28


 1350 0242 8B010000 		.4byte	.LASF25
 1351 0246 01       		.byte	0x1
 1352 0247 05       		.byte	0x5
 1353 0248 A5000000 		.4byte	0xa5
 1354 024c 0E       		.uleb128 0xe
 1355 024d 0D010000 		.4byte	.LASF26
 1356 0251 01       		.byte	0x1
 1357 0252 06       		.byte	0x6
 1358 0253 A5000000 		.4byte	0xa5
 1359 0257 0E       		.uleb128 0xe
 1360 0258 B6030000 		.4byte	.LASF27
 1361 025c 01       		.byte	0x1
 1362 025d 06       		.byte	0x6
 1363 025e A5000000 		.4byte	0xa5
 1364 0262 0E       		.uleb128 0xe
 1365 0263 9C030000 		.4byte	.LASF28
 1366 0267 01       		.byte	0x1
 1367 0268 06       		.byte	0x6
 1368 0269 A5000000 		.4byte	0xa5
 1369 026d 0E       		.uleb128 0xe
 1370 026e 00000000 		.4byte	.LASF29
 1371 0272 01       		.byte	0x1
 1372 0273 09       		.byte	0x9
 1373 0274 A5000000 		.4byte	0xa5
 1374 0278 0E       		.uleb128 0xe
 1375 0279 07000000 		.4byte	.LASF30
 1376 027d 01       		.byte	0x1
 1377 027e 09       		.byte	0x9
 1378 027f A5000000 		.4byte	0xa5
 1379 0283 0E       		.uleb128 0xe
 1380 0284 84010000 		.4byte	.LASF31
 1381 0288 01       		.byte	0x1
 1382 0289 09       		.byte	0x9
 1383 028a A5000000 		.4byte	0xa5
 1384 028e 0E       		.uleb128 0xe
 1385 028f 52010000 		.4byte	.LASF32
 1386 0293 01       		.byte	0x1
 1387 0294 0B       		.byte	0xb
 1388 0295 A5000000 		.4byte	0xa5
 1389 0299 0E       		.uleb128 0xe
 1390 029a 21030000 		.4byte	.LASF33
 1391 029e 01       		.byte	0x1
 1392 029f 0B       		.byte	0xb
 1393 02a0 A5000000 		.4byte	0xa5
 1394 02a4 0F       		.uleb128 0xf
 1395 02a5 5F000000 		.4byte	.LASF34
 1396 02a9 01       		.byte	0x1
 1397 02aa 0F       		.byte	0xf
 1398 02ab 68000000 		.4byte	0x68
 1399 02af 05       		.uleb128 0x5
 1400 02b0 03       		.byte	0x3
 1401 02b1 00000000 		.4byte	set_speed_1
 1402 02b5 0F       		.uleb128 0xf
 1403 02b6 6B000000 		.4byte	.LASF35
 1404 02ba 01       		.byte	0x1
 1405 02bb 0F       		.byte	0xf
 1406 02bc 68000000 		.4byte	0x68
ARM GAS  C:\Users\ADMINI~1\AppData\Local\Temp\ccFqYBCc.s 			page 29


 1407 02c0 05       		.uleb128 0x5
 1408 02c1 03       		.byte	0x3
 1409 02c2 00000000 		.4byte	set_speed_2
 1410 02c6 0F       		.uleb128 0xf
 1411 02c7 77000000 		.4byte	.LASF36
 1412 02cb 01       		.byte	0x1
 1413 02cc 0F       		.byte	0xf
 1414 02cd 68000000 		.4byte	0x68
 1415 02d1 05       		.uleb128 0x5
 1416 02d2 03       		.byte	0x3
 1417 02d3 00000000 		.4byte	set_speed_3
 1418 02d7 0F       		.uleb128 0xf
 1419 02d8 83000000 		.4byte	.LASF37
 1420 02dc 01       		.byte	0x1
 1421 02dd 0F       		.byte	0xf
 1422 02de 68000000 		.4byte	0x68
 1423 02e2 05       		.uleb128 0x5
 1424 02e3 03       		.byte	0x3
 1425 02e4 00000000 		.4byte	set_speed_4
 1426 02e8 0F       		.uleb128 0xf
 1427 02e9 79010000 		.4byte	.LASF38
 1428 02ed 01       		.byte	0x1
 1429 02ee 10       		.byte	0x10
 1430 02ef A5000000 		.4byte	0xa5
 1431 02f3 05       		.uleb128 0x5
 1432 02f4 03       		.byte	0x3
 1433 02f5 00000000 		.4byte	Error_roll
 1434 02f9 0F       		.uleb128 0xf
 1435 02fa 53000000 		.4byte	.LASF39
 1436 02fe 01       		.byte	0x1
 1437 02ff 10       		.byte	0x10
 1438 0300 A5000000 		.4byte	0xa5
 1439 0304 05       		.uleb128 0x5
 1440 0305 03       		.byte	0x3
 1441 0306 00000000 		.4byte	Error_pitch
 1442 030a 0F       		.uleb128 0xf
 1443 030b BB000000 		.4byte	.LASF40
 1444 030f 01       		.byte	0x1
 1445 0310 10       		.byte	0x10
 1446 0311 A5000000 		.4byte	0xa5
 1447 0315 05       		.uleb128 0x5
 1448 0316 03       		.byte	0x3
 1449 0317 00000000 		.4byte	Error_w_yaw
 1450 031b 0F       		.uleb128 0xf
 1451 031c 7F030000 		.4byte	.LASF41
 1452 0320 01       		.byte	0x1
 1453 0321 11       		.byte	0x11
 1454 0322 A5000000 		.4byte	0xa5
 1455 0326 05       		.uleb128 0x5
 1456 0327 03       		.byte	0x3
 1457 0328 00000000 		.4byte	last_Error_roll
 1458 032c 0F       		.uleb128 0xf
 1459 032d A7010000 		.4byte	.LASF42
 1460 0331 01       		.byte	0x1
 1461 0332 11       		.byte	0x11
 1462 0333 A5000000 		.4byte	0xa5
 1463 0337 05       		.uleb128 0x5
ARM GAS  C:\Users\ADMINI~1\AppData\Local\Temp\ccFqYBCc.s 			page 30


 1464 0338 03       		.byte	0x3
 1465 0339 00000000 		.4byte	last_Error_pitch
 1466 033d 0F       		.uleb128 0xf
 1467 033e 20010000 		.4byte	.LASF43
 1468 0342 01       		.byte	0x1
 1469 0343 11       		.byte	0x11
 1470 0344 A5000000 		.4byte	0xa5
 1471 0348 05       		.uleb128 0x5
 1472 0349 03       		.byte	0x3
 1473 034a 00000000 		.4byte	last_Error_w_yaw
 1474 034e 0F       		.uleb128 0xf
 1475 034f 95000000 		.4byte	.LASF44
 1476 0353 01       		.byte	0x1
 1477 0354 12       		.byte	0x12
 1478 0355 A5000000 		.4byte	0xa5
 1479 0359 05       		.uleb128 0x5
 1480 035a 03       		.byte	0x3
 1481 035b 00000000 		.4byte	int_Error_roll
 1482 035f 0F       		.uleb128 0xf
 1483 0360 F3020000 		.4byte	.LASF45
 1484 0364 01       		.byte	0x1
 1485 0365 12       		.byte	0x12
 1486 0366 A5000000 		.4byte	0xa5
 1487 036a 05       		.uleb128 0x5
 1488 036b 03       		.byte	0x3
 1489 036c 00000000 		.4byte	int_Error_pitch
 1490 0370 0F       		.uleb128 0xf
 1491 0371 0E000000 		.4byte	.LASF46
 1492 0375 01       		.byte	0x1
 1493 0376 12       		.byte	0x12
 1494 0377 A5000000 		.4byte	0xa5
 1495 037b 05       		.uleb128 0x5
 1496 037c 03       		.byte	0x3
 1497 037d 00000000 		.4byte	int_Error_w_yaw
 1498 0381 0F       		.uleb128 0xf
 1499 0382 25000000 		.4byte	.LASF47
 1500 0386 01       		.byte	0x1
 1501 0387 14       		.byte	0x14
 1502 0388 A5000000 		.4byte	0xa5
 1503 038c 05       		.uleb128 0x5
 1504 038d 03       		.byte	0x3
 1505 038e 00000000 		.4byte	Desire_w_roll
 1506 0392 0F       		.uleb128 0xf
 1507 0393 54030000 		.4byte	.LASF48
 1508 0397 01       		.byte	0x1
 1509 0398 14       		.byte	0x14
 1510 0399 A5000000 		.4byte	0xa5
 1511 039d 05       		.uleb128 0x5
 1512 039e 03       		.byte	0x3
 1513 039f 00000000 		.4byte	Desire_w_pitch
 1514 03a3 0F       		.uleb128 0xf
 1515 03a4 3D000000 		.4byte	.LASF49
 1516 03a8 01       		.byte	0x1
 1517 03a9 15       		.byte	0x15
 1518 03aa A5000000 		.4byte	0xa5
 1519 03ae 05       		.uleb128 0x5
 1520 03af 03       		.byte	0x3
ARM GAS  C:\Users\ADMINI~1\AppData\Local\Temp\ccFqYBCc.s 			page 31


 1521 03b0 00000000 		.4byte	Error_w_roll
 1522 03b4 0F       		.uleb128 0xf
 1523 03b5 24020000 		.4byte	.LASF50
 1524 03b9 01       		.byte	0x1
 1525 03ba 15       		.byte	0x15
 1526 03bb A5000000 		.4byte	0xa5
 1527 03bf 05       		.uleb128 0x5
 1528 03c0 03       		.byte	0x3
 1529 03c1 00000000 		.4byte	Error_w_pitch
 1530 03c5 0F       		.uleb128 0xf
 1531 03c6 03030000 		.4byte	.LASF51
 1532 03ca 01       		.byte	0x1
 1533 03cb 16       		.byte	0x16
 1534 03cc A5000000 		.4byte	0xa5
 1535 03d0 05       		.uleb128 0x5
 1536 03d1 03       		.byte	0x3
 1537 03d2 00000000 		.4byte	last_Error_w_roll
 1538 03d6 0F       		.uleb128 0xf
 1539 03d7 C7000000 		.4byte	.LASF52
 1540 03db 01       		.byte	0x1
 1541 03dc 16       		.byte	0x16
 1542 03dd A5000000 		.4byte	0xa5
 1543 03e1 05       		.uleb128 0x5
 1544 03e2 03       		.byte	0x3
 1545 03e3 00000000 		.4byte	last_Error_w_pitch
 1546 03e7 0F       		.uleb128 0xf
 1547 03e8 68010000 		.4byte	.LASF53
 1548 03ec 01       		.byte	0x1
 1549 03ed 17       		.byte	0x17
 1550 03ee A5000000 		.4byte	0xa5
 1551 03f2 05       		.uleb128 0x5
 1552 03f3 03       		.byte	0x3
 1553 03f4 00000000 		.4byte	int_Error_w_roll
 1554 03f8 0F       		.uleb128 0xf
 1555 03f9 6D030000 		.4byte	.LASF54
 1556 03fd 01       		.byte	0x1
 1557 03fe 17       		.byte	0x17
 1558 03ff A5000000 		.4byte	0xa5
 1559 0403 05       		.uleb128 0x5
 1560 0404 03       		.byte	0x3
 1561 0405 00000000 		.4byte	int_Error_w_pitch
 1562 0409 0F       		.uleb128 0xf
 1563 040a 31010000 		.4byte	.LASF55
 1564 040e 01       		.byte	0x1
 1565 040f 18       		.byte	0x18
 1566 0410 A5000000 		.4byte	0xa5
 1567 0414 05       		.uleb128 0x5
 1568 0415 03       		.byte	0x3
 1569 0416 00000000 		.4byte	Control_Roll
 1570 041a 0F       		.uleb128 0xf
 1571 041b A4000000 		.4byte	.LASF56
 1572 041f 01       		.byte	0x1
 1573 0420 18       		.byte	0x18
 1574 0421 A5000000 		.4byte	0xa5
 1575 0425 05       		.uleb128 0x5
 1576 0426 03       		.byte	0x3
 1577 0427 00000000 		.4byte	Control_Pitch
ARM GAS  C:\Users\ADMINI~1\AppData\Local\Temp\ccFqYBCc.s 			page 32


 1578 042b 0F       		.uleb128 0xf
 1579 042c 15030000 		.4byte	.LASF57
 1580 0430 01       		.byte	0x1
 1581 0431 18       		.byte	0x18
 1582 0432 A5000000 		.4byte	0xa5
 1583 0436 05       		.uleb128 0x5
 1584 0437 03       		.byte	0x3
 1585 0438 00000000 		.4byte	Control_Yaw
 1586 043c 0F       		.uleb128 0xf
 1587 043d B2000000 		.4byte	.LASF58
 1588 0441 01       		.byte	0x1
 1589 0442 3A       		.byte	0x3a
 1590 0443 68000000 		.4byte	0x68
 1591 0447 05       		.uleb128 0x5
 1592 0448 03       		.byte	0x3
 1593 0449 00000000 		.4byte	tmpcount
 1594 044d 10       		.uleb128 0x10
 1595 044e 8F030000 		.4byte	.LASF59
 1596 0452 06       		.byte	0x6
 1597 0453 3D       		.byte	0x3d
 1598 0454 63040000 		.4byte	0x463
 1599 0458 11       		.uleb128 0x11
 1600 0459 81000000 		.4byte	0x81
 1601 045d 11       		.uleb128 0x11
 1602 045e 81000000 		.4byte	0x81
 1603 0462 00       		.byte	0
 1604 0463 10       		.uleb128 0x10
 1605 0464 45020000 		.4byte	.LASF60
 1606 0468 06       		.byte	0x6
 1607 0469 61       		.byte	0x61
 1608 046a 74040000 		.4byte	0x474
 1609 046e 11       		.uleb128 0x11
 1610 046f 99000000 		.4byte	0x99
 1611 0473 00       		.byte	0
 1612 0474 10       		.uleb128 0x10
 1613 0475 02020000 		.4byte	.LASF61
 1614 0479 06       		.byte	0x6
 1615 047a 3C       		.byte	0x3c
 1616 047b 85040000 		.4byte	0x485
 1617 047f 11       		.uleb128 0x11
 1618 0480 85040000 		.4byte	0x485
 1619 0484 00       		.byte	0
 1620 0485 12       		.uleb128 0x12
 1621 0486 04       		.byte	0x4
 1622 0487 8B040000 		.4byte	0x48b
 1623 048b 13       		.uleb128 0x13
 1624 048c B3000000 		.4byte	0xb3
 1625 0490 00       		.byte	0
 1626              		.section	.debug_abbrev,"",%progbits
 1627              	.Ldebug_abbrev0:
 1628 0000 01       		.uleb128 0x1
 1629 0001 11       		.uleb128 0x11
 1630 0002 01       		.byte	0x1
 1631 0003 25       		.uleb128 0x25
 1632 0004 0E       		.uleb128 0xe
 1633 0005 13       		.uleb128 0x13
 1634 0006 0B       		.uleb128 0xb
ARM GAS  C:\Users\ADMINI~1\AppData\Local\Temp\ccFqYBCc.s 			page 33


 1635 0007 03       		.uleb128 0x3
 1636 0008 0E       		.uleb128 0xe
 1637 0009 1B       		.uleb128 0x1b
 1638 000a 0E       		.uleb128 0xe
 1639 000b 55       		.uleb128 0x55
 1640 000c 17       		.uleb128 0x17
 1641 000d 11       		.uleb128 0x11
 1642 000e 01       		.uleb128 0x1
 1643 000f 10       		.uleb128 0x10
 1644 0010 17       		.uleb128 0x17
 1645 0011 00       		.byte	0
 1646 0012 00       		.byte	0
 1647 0013 02       		.uleb128 0x2
 1648 0014 24       		.uleb128 0x24
 1649 0015 00       		.byte	0
 1650 0016 0B       		.uleb128 0xb
 1651 0017 0B       		.uleb128 0xb
 1652 0018 3E       		.uleb128 0x3e
 1653 0019 0B       		.uleb128 0xb
 1654 001a 03       		.uleb128 0x3
 1655 001b 0E       		.uleb128 0xe
 1656 001c 00       		.byte	0
 1657 001d 00       		.byte	0
 1658 001e 03       		.uleb128 0x3
 1659 001f 16       		.uleb128 0x16
 1660 0020 00       		.byte	0
 1661 0021 03       		.uleb128 0x3
 1662 0022 0E       		.uleb128 0xe
 1663 0023 3A       		.uleb128 0x3a
 1664 0024 0B       		.uleb128 0xb
 1665 0025 3B       		.uleb128 0x3b
 1666 0026 0B       		.uleb128 0xb
 1667 0027 49       		.uleb128 0x49
 1668 0028 13       		.uleb128 0x13
 1669 0029 00       		.byte	0
 1670 002a 00       		.byte	0
 1671 002b 04       		.uleb128 0x4
 1672 002c 24       		.uleb128 0x24
 1673 002d 00       		.byte	0
 1674 002e 0B       		.uleb128 0xb
 1675 002f 0B       		.uleb128 0xb
 1676 0030 3E       		.uleb128 0x3e
 1677 0031 0B       		.uleb128 0xb
 1678 0032 03       		.uleb128 0x3
 1679 0033 08       		.uleb128 0x8
 1680 0034 00       		.byte	0
 1681 0035 00       		.byte	0
 1682 0036 05       		.uleb128 0x5
 1683 0037 16       		.uleb128 0x16
 1684 0038 00       		.byte	0
 1685 0039 03       		.uleb128 0x3
 1686 003a 0E       		.uleb128 0xe
 1687 003b 3A       		.uleb128 0x3a
 1688 003c 0B       		.uleb128 0xb
 1689 003d 3B       		.uleb128 0x3b
 1690 003e 05       		.uleb128 0x5
 1691 003f 49       		.uleb128 0x49
ARM GAS  C:\Users\ADMINI~1\AppData\Local\Temp\ccFqYBCc.s 			page 34


 1692 0040 13       		.uleb128 0x13
 1693 0041 00       		.byte	0
 1694 0042 00       		.byte	0
 1695 0043 06       		.uleb128 0x6
 1696 0044 2E       		.uleb128 0x2e
 1697 0045 00       		.byte	0
 1698 0046 3F       		.uleb128 0x3f
 1699 0047 19       		.uleb128 0x19
 1700 0048 03       		.uleb128 0x3
 1701 0049 0E       		.uleb128 0xe
 1702 004a 3A       		.uleb128 0x3a
 1703 004b 0B       		.uleb128 0xb
 1704 004c 3B       		.uleb128 0x3b
 1705 004d 0B       		.uleb128 0xb
 1706 004e 11       		.uleb128 0x11
 1707 004f 01       		.uleb128 0x1
 1708 0050 12       		.uleb128 0x12
 1709 0051 06       		.uleb128 0x6
 1710 0052 40       		.uleb128 0x40
 1711 0053 18       		.uleb128 0x18
 1712 0054 9742     		.uleb128 0x2117
 1713 0056 19       		.uleb128 0x19
 1714 0057 00       		.byte	0
 1715 0058 00       		.byte	0
 1716 0059 07       		.uleb128 0x7
 1717 005a 2E       		.uleb128 0x2e
 1718 005b 01       		.byte	0x1
 1719 005c 3F       		.uleb128 0x3f
 1720 005d 19       		.uleb128 0x19
 1721 005e 03       		.uleb128 0x3
 1722 005f 0E       		.uleb128 0xe
 1723 0060 3A       		.uleb128 0x3a
 1724 0061 0B       		.uleb128 0xb
 1725 0062 3B       		.uleb128 0x3b
 1726 0063 0B       		.uleb128 0xb
 1727 0064 11       		.uleb128 0x11
 1728 0065 01       		.uleb128 0x1
 1729 0066 12       		.uleb128 0x12
 1730 0067 06       		.uleb128 0x6
 1731 0068 40       		.uleb128 0x40
 1732 0069 18       		.uleb128 0x18
 1733 006a 9642     		.uleb128 0x2116
 1734 006c 19       		.uleb128 0x19
 1735 006d 01       		.uleb128 0x1
 1736 006e 13       		.uleb128 0x13
 1737 006f 00       		.byte	0
 1738 0070 00       		.byte	0
 1739 0071 08       		.uleb128 0x8
 1740 0072 898201   		.uleb128 0x4109
 1741 0075 01       		.byte	0x1
 1742 0076 11       		.uleb128 0x11
 1743 0077 01       		.uleb128 0x1
 1744 0078 31       		.uleb128 0x31
 1745 0079 13       		.uleb128 0x13
 1746 007a 01       		.uleb128 0x1
 1747 007b 13       		.uleb128 0x13
 1748 007c 00       		.byte	0
ARM GAS  C:\Users\ADMINI~1\AppData\Local\Temp\ccFqYBCc.s 			page 35


 1749 007d 00       		.byte	0
 1750 007e 09       		.uleb128 0x9
 1751 007f 8A8201   		.uleb128 0x410a
 1752 0082 00       		.byte	0
 1753 0083 02       		.uleb128 0x2
 1754 0084 18       		.uleb128 0x18
 1755 0085 9142     		.uleb128 0x2111
 1756 0087 18       		.uleb128 0x18
 1757 0088 00       		.byte	0
 1758 0089 00       		.byte	0
 1759 008a 0A       		.uleb128 0xa
 1760 008b 898201   		.uleb128 0x4109
 1761 008e 00       		.byte	0
 1762 008f 11       		.uleb128 0x11
 1763 0090 01       		.uleb128 0x1
 1764 0091 31       		.uleb128 0x31
 1765 0092 13       		.uleb128 0x13
 1766 0093 00       		.byte	0
 1767 0094 00       		.byte	0
 1768 0095 0B       		.uleb128 0xb
 1769 0096 898201   		.uleb128 0x4109
 1770 0099 01       		.byte	0x1
 1771 009a 11       		.uleb128 0x11
 1772 009b 01       		.uleb128 0x1
 1773 009c 31       		.uleb128 0x31
 1774 009d 13       		.uleb128 0x13
 1775 009e 00       		.byte	0
 1776 009f 00       		.byte	0
 1777 00a0 0C       		.uleb128 0xc
 1778 00a1 34       		.uleb128 0x34
 1779 00a2 00       		.byte	0
 1780 00a3 03       		.uleb128 0x3
 1781 00a4 0E       		.uleb128 0xe
 1782 00a5 3A       		.uleb128 0x3a
 1783 00a6 0B       		.uleb128 0xb
 1784 00a7 3B       		.uleb128 0x3b
 1785 00a8 05       		.uleb128 0x5
 1786 00a9 49       		.uleb128 0x49
 1787 00aa 13       		.uleb128 0x13
 1788 00ab 3F       		.uleb128 0x3f
 1789 00ac 19       		.uleb128 0x19
 1790 00ad 3C       		.uleb128 0x3c
 1791 00ae 19       		.uleb128 0x19
 1792 00af 00       		.byte	0
 1793 00b0 00       		.byte	0
 1794 00b1 0D       		.uleb128 0xd
 1795 00b2 35       		.uleb128 0x35
 1796 00b3 00       		.byte	0
 1797 00b4 49       		.uleb128 0x49
 1798 00b5 13       		.uleb128 0x13
 1799 00b6 00       		.byte	0
 1800 00b7 00       		.byte	0
 1801 00b8 0E       		.uleb128 0xe
 1802 00b9 34       		.uleb128 0x34
 1803 00ba 00       		.byte	0
 1804 00bb 03       		.uleb128 0x3
 1805 00bc 0E       		.uleb128 0xe
ARM GAS  C:\Users\ADMINI~1\AppData\Local\Temp\ccFqYBCc.s 			page 36


 1806 00bd 3A       		.uleb128 0x3a
 1807 00be 0B       		.uleb128 0xb
 1808 00bf 3B       		.uleb128 0x3b
 1809 00c0 0B       		.uleb128 0xb
 1810 00c1 49       		.uleb128 0x49
 1811 00c2 13       		.uleb128 0x13
 1812 00c3 3F       		.uleb128 0x3f
 1813 00c4 19       		.uleb128 0x19
 1814 00c5 3C       		.uleb128 0x3c
 1815 00c6 19       		.uleb128 0x19
 1816 00c7 00       		.byte	0
 1817 00c8 00       		.byte	0
 1818 00c9 0F       		.uleb128 0xf
 1819 00ca 34       		.uleb128 0x34
 1820 00cb 00       		.byte	0
 1821 00cc 03       		.uleb128 0x3
 1822 00cd 0E       		.uleb128 0xe
 1823 00ce 3A       		.uleb128 0x3a
 1824 00cf 0B       		.uleb128 0xb
 1825 00d0 3B       		.uleb128 0x3b
 1826 00d1 0B       		.uleb128 0xb
 1827 00d2 49       		.uleb128 0x49
 1828 00d3 13       		.uleb128 0x13
 1829 00d4 3F       		.uleb128 0x3f
 1830 00d5 19       		.uleb128 0x19
 1831 00d6 02       		.uleb128 0x2
 1832 00d7 18       		.uleb128 0x18
 1833 00d8 00       		.byte	0
 1834 00d9 00       		.byte	0
 1835 00da 10       		.uleb128 0x10
 1836 00db 2E       		.uleb128 0x2e
 1837 00dc 01       		.byte	0x1
 1838 00dd 3F       		.uleb128 0x3f
 1839 00de 19       		.uleb128 0x19
 1840 00df 03       		.uleb128 0x3
 1841 00e0 0E       		.uleb128 0xe
 1842 00e1 3A       		.uleb128 0x3a
 1843 00e2 0B       		.uleb128 0xb
 1844 00e3 3B       		.uleb128 0x3b
 1845 00e4 0B       		.uleb128 0xb
 1846 00e5 27       		.uleb128 0x27
 1847 00e6 19       		.uleb128 0x19
 1848 00e7 3C       		.uleb128 0x3c
 1849 00e8 19       		.uleb128 0x19
 1850 00e9 01       		.uleb128 0x1
 1851 00ea 13       		.uleb128 0x13
 1852 00eb 00       		.byte	0
 1853 00ec 00       		.byte	0
 1854 00ed 11       		.uleb128 0x11
 1855 00ee 05       		.uleb128 0x5
 1856 00ef 00       		.byte	0
 1857 00f0 49       		.uleb128 0x49
 1858 00f1 13       		.uleb128 0x13
 1859 00f2 00       		.byte	0
 1860 00f3 00       		.byte	0
 1861 00f4 12       		.uleb128 0x12
 1862 00f5 0F       		.uleb128 0xf
ARM GAS  C:\Users\ADMINI~1\AppData\Local\Temp\ccFqYBCc.s 			page 37


 1863 00f6 00       		.byte	0
 1864 00f7 0B       		.uleb128 0xb
 1865 00f8 0B       		.uleb128 0xb
 1866 00f9 49       		.uleb128 0x49
 1867 00fa 13       		.uleb128 0x13
 1868 00fb 00       		.byte	0
 1869 00fc 00       		.byte	0
 1870 00fd 13       		.uleb128 0x13
 1871 00fe 26       		.uleb128 0x26
 1872 00ff 00       		.byte	0
 1873 0100 49       		.uleb128 0x49
 1874 0101 13       		.uleb128 0x13
 1875 0102 00       		.byte	0
 1876 0103 00       		.byte	0
 1877 0104 00       		.byte	0
 1878              		.section	.debug_aranges,"",%progbits
 1879 0000 24000000 		.4byte	0x24
 1880 0004 0200     		.2byte	0x2
 1881 0006 00000000 		.4byte	.Ldebug_info0
 1882 000a 04       		.byte	0x4
 1883 000b 00       		.byte	0
 1884 000c 0000     		.2byte	0
 1885 000e 0000     		.2byte	0
 1886 0010 00000000 		.4byte	.LFB63
 1887 0014 C8000000 		.4byte	.LFE63-.LFB63
 1888 0018 00000000 		.4byte	.LFB64
 1889 001c 80060000 		.4byte	.LFE64-.LFB64
 1890 0020 00000000 		.4byte	0
 1891 0024 00000000 		.4byte	0
 1892              		.section	.debug_ranges,"",%progbits
 1893              	.Ldebug_ranges0:
 1894 0000 00000000 		.4byte	.LFB63
 1895 0004 C8000000 		.4byte	.LFE63
 1896 0008 00000000 		.4byte	.LFB64
 1897 000c 80060000 		.4byte	.LFE64
 1898 0010 00000000 		.4byte	0
 1899 0014 00000000 		.4byte	0
 1900              		.section	.debug_line,"",%progbits
 1901              	.Ldebug_line0:
 1902 0000 31030000 		.section	.debug_str,"MS",%progbits,1
 1902      02005501 
 1902      00000201 
 1902      FB0E0D00 
 1902      01010101 
 1903              	.LASF29:
 1904 0000 4F6D6567 		.ascii	"OmegaX\000"
 1904      615800
 1905              	.LASF30:
 1906 0007 4F6D6567 		.ascii	"OmegaY\000"
 1906      615900
 1907              	.LASF46:
 1908 000e 696E745F 		.ascii	"int_Error_w_yaw\000"
 1908      4572726F 
 1908      725F775F 
 1908      79617700 
 1909              	.LASF21:
 1910 001e 42545F59 		.ascii	"BT_Yaw\000"
ARM GAS  C:\Users\ADMINI~1\AppData\Local\Temp\ccFqYBCc.s 			page 38


 1910      617700
 1911              	.LASF47:
 1912 0025 44657369 		.ascii	"Desire_w_roll\000"
 1912      72655F77 
 1912      5F726F6C 
 1912      6C00
 1913              	.LASF2:
 1914 0033 73686F72 		.ascii	"short int\000"
 1914      7420696E 
 1914      7400
 1915              	.LASF49:
 1916 003d 4572726F 		.ascii	"Error_w_roll\000"
 1916      725F775F 
 1916      726F6C6C 
 1916      00
 1917              	.LASF18:
 1918 004a 73697A65 		.ascii	"sizetype\000"
 1918      74797065 
 1918      00
 1919              	.LASF39:
 1920 0053 4572726F 		.ascii	"Error_pitch\000"
 1920      725F7069 
 1920      74636800 
 1921              	.LASF34:
 1922 005f 7365745F 		.ascii	"set_speed_1\000"
 1922      73706565 
 1922      645F3100 
 1923              	.LASF35:
 1924 006b 7365745F 		.ascii	"set_speed_2\000"
 1924      73706565 
 1924      645F3200 
 1925              	.LASF36:
 1926 0077 7365745F 		.ascii	"set_speed_3\000"
 1926      73706565 
 1926      645F3300 
 1927              	.LASF37:
 1928 0083 7365745F 		.ascii	"set_speed_4\000"
 1928      73706565 
 1928      645F3400 
 1929              	.LASF16:
 1930 008f 63686172 		.ascii	"char8\000"
 1930      3800
 1931              	.LASF44:
 1932 0095 696E745F 		.ascii	"int_Error_roll\000"
 1932      4572726F 
 1932      725F726F 
 1932      6C6C00
 1933              	.LASF56:
 1934 00a4 436F6E74 		.ascii	"Control_Pitch\000"
 1934      726F6C5F 
 1934      50697463 
 1934      6800
 1935              	.LASF58:
 1936 00b2 746D7063 		.ascii	"tmpcount\000"
 1936      6F756E74 
 1936      00
 1937              	.LASF40:
ARM GAS  C:\Users\ADMINI~1\AppData\Local\Temp\ccFqYBCc.s 			page 39


 1938 00bb 4572726F 		.ascii	"Error_w_yaw\000"
 1938      725F775F 
 1938      79617700 
 1939              	.LASF52:
 1940 00c7 6C617374 		.ascii	"last_Error_w_pitch\000"
 1940      5F457272 
 1940      6F725F77 
 1940      5F706974 
 1940      636800
 1941              	.LASF12:
 1942 00da 75696E74 		.ascii	"uint16\000"
 1942      313600
 1943              	.LASF20:
 1944 00e1 42545F54 		.ascii	"BT_Throttle\000"
 1944      68726F74 
 1944      746C6500 
 1945              	.LASF65:
 1946 00ed 436F6E74 		.ascii	"Control_Func_InitVariable\000"
 1946      726F6C5F 
 1946      46756E63 
 1946      5F496E69 
 1946      74566172 
 1947              	.LASF11:
 1948 0107 75696E74 		.ascii	"uint8\000"
 1948      3800
 1949              	.LASF26:
 1950 010d 44657369 		.ascii	"Desire_angle_pitch\000"
 1950      72655F61 
 1950      6E676C65 
 1950      5F706974 
 1950      636800
 1951              	.LASF43:
 1952 0120 6C617374 		.ascii	"last_Error_w_yaw\000"
 1952      5F457272 
 1952      6F725F77 
 1952      5F796177 
 1952      00
 1953              	.LASF55:
 1954 0131 436F6E74 		.ascii	"Control_Roll\000"
 1954      726F6C5F 
 1954      526F6C6C 
 1954      00
 1955              	.LASF14:
 1956 013e 666C6F61 		.ascii	"float\000"
 1956      7400
 1957              	.LASF6:
 1958 0144 6C6F6E67 		.ascii	"long long int\000"
 1958      206C6F6E 
 1958      6720696E 
 1958      7400
 1959              	.LASF32:
 1960 0152 526F6C6C 		.ascii	"Roll\000"
 1960      00
 1961              	.LASF23:
 1962 0157 42545F52 		.ascii	"BT_Roll\000"
 1962      6F6C6C00 
 1963              	.LASF4:
ARM GAS  C:\Users\ADMINI~1\AppData\Local\Temp\ccFqYBCc.s 			page 40


 1964 015f 6C6F6E67 		.ascii	"long int\000"
 1964      20696E74 
 1964      00
 1965              	.LASF53:
 1966 0168 696E745F 		.ascii	"int_Error_w_roll\000"
 1966      4572726F 
 1966      725F775F 
 1966      726F6C6C 
 1966      00
 1967              	.LASF38:
 1968 0179 4572726F 		.ascii	"Error_roll\000"
 1968      725F726F 
 1968      6C6C00
 1969              	.LASF31:
 1970 0184 4F6D6567 		.ascii	"OmegaZ\000"
 1970      615A00
 1971              	.LASF25:
 1972 018b 70697463 		.ascii	"pitch_angle_offset\000"
 1972      685F616E 
 1972      676C655F 
 1972      6F666673 
 1972      657400
 1973              	.LASF22:
 1974 019e 42545F50 		.ascii	"BT_Pitch\000"
 1974      69746368 
 1974      00
 1975              	.LASF42:
 1976 01a7 6C617374 		.ascii	"last_Error_pitch\000"
 1976      5F457272 
 1976      6F725F70 
 1976      69746368 
 1976      00
 1977              	.LASF1:
 1978 01b8 756E7369 		.ascii	"unsigned char\000"
 1978      676E6564 
 1978      20636861 
 1978      7200
 1979              	.LASF63:
 1980 01c6 2E5C436F 		.ascii	".\\Control.c\000"
 1980      6E74726F 
 1980      6C2E6300 
 1981              	.LASF0:
 1982 01d2 7369676E 		.ascii	"signed char\000"
 1982      65642063 
 1982      68617200 
 1983              	.LASF7:
 1984 01de 6C6F6E67 		.ascii	"long long unsigned int\000"
 1984      206C6F6E 
 1984      6720756E 
 1984      7369676E 
 1984      65642069 
 1985              	.LASF8:
 1986 01f5 756E7369 		.ascii	"unsigned int\000"
 1986      676E6564 
 1986      20696E74 
 1986      00
 1987              	.LASF61:
ARM GAS  C:\Users\ADMINI~1\AppData\Local\Temp\ccFqYBCc.s 			page 41


 1988 0202 4C43445F 		.ascii	"LCD_PrintString\000"
 1988      5072696E 
 1988      74537472 
 1988      696E6700 
 1989              	.LASF24:
 1990 0212 726F6C6C 		.ascii	"roll_angle_offset\000"
 1990      5F616E67 
 1990      6C655F6F 
 1990      66667365 
 1990      7400
 1991              	.LASF50:
 1992 0224 4572726F 		.ascii	"Error_w_pitch\000"
 1992      725F775F 
 1992      70697463 
 1992      6800
 1993              	.LASF3:
 1994 0232 73686F72 		.ascii	"short unsigned int\000"
 1994      7420756E 
 1994      7369676E 
 1994      65642069 
 1994      6E7400
 1995              	.LASF60:
 1996 0245 4C43445F 		.ascii	"LCD_PrintU32Number\000"
 1996      5072696E 
 1996      74553332 
 1996      4E756D62 
 1996      657200
 1997              	.LASF17:
 1998 0258 63686172 		.ascii	"char\000"
 1998      00
 1999              	.LASF62:
 2000 025d 474E5520 		.ascii	"GNU C 4.9.3 20150303 (release) [ARM/embedded-4_9-br"
 2000      4320342E 
 2000      392E3320 
 2000      32303135 
 2000      30333033 
 2001 0290 616E6368 		.ascii	"anch revision 221220] -mcpu=cortex-m3 -mthumb -g -O"
 2001      20726576 
 2001      6973696F 
 2001      6E203232 
 2001      31323230 
 2002 02c3 67202D66 		.ascii	"g -ffunction-sections -ffat-lto-objects\000"
 2002      66756E63 
 2002      74696F6E 
 2002      2D736563 
 2002      74696F6E 
 2003              	.LASF10:
 2004 02eb 696E7433 		.ascii	"int32_t\000"
 2004      325F7400 
 2005              	.LASF45:
 2006 02f3 696E745F 		.ascii	"int_Error_pitch\000"
 2006      4572726F 
 2006      725F7069 
 2006      74636800 
 2007              	.LASF51:
 2008 0303 6C617374 		.ascii	"last_Error_w_roll\000"
 2008      5F457272 
ARM GAS  C:\Users\ADMINI~1\AppData\Local\Temp\ccFqYBCc.s 			page 42


 2008      6F725F77 
 2008      5F726F6C 
 2008      6C00
 2009              	.LASF57:
 2010 0315 436F6E74 		.ascii	"Control_Yaw\000"
 2010      726F6C5F 
 2010      59617700 
 2011              	.LASF33:
 2012 0321 50697463 		.ascii	"Pitch\000"
 2012      6800
 2013              	.LASF13:
 2014 0327 75696E74 		.ascii	"uint32\000"
 2014      333200
 2015              	.LASF5:
 2016 032e 6C6F6E67 		.ascii	"long unsigned int\000"
 2016      20756E73 
 2016      69676E65 
 2016      6420696E 
 2016      7400
 2017              	.LASF15:
 2018 0340 646F7562 		.ascii	"double\000"
 2018      6C6500
 2019              	.LASF19:
 2020 0347 49544D5F 		.ascii	"ITM_RxBuffer\000"
 2020      52784275 
 2020      66666572 
 2020      00
 2021              	.LASF48:
 2022 0354 44657369 		.ascii	"Desire_w_pitch\000"
 2022      72655F77 
 2022      5F706974 
 2022      636800
 2023              	.LASF9:
 2024 0363 5F5F696E 		.ascii	"__int32_t\000"
 2024      7433325F 
 2024      7400
 2025              	.LASF54:
 2026 036d 696E745F 		.ascii	"int_Error_w_pitch\000"
 2026      4572726F 
 2026      725F775F 
 2026      70697463 
 2026      6800
 2027              	.LASF41:
 2028 037f 6C617374 		.ascii	"last_Error_roll\000"
 2028      5F457272 
 2028      6F725F72 
 2028      6F6C6C00 
 2029              	.LASF59:
 2030 038f 4C43445F 		.ascii	"LCD_Position\000"
 2030      506F7369 
 2030      74696F6E 
 2030      00
 2031              	.LASF28:
 2032 039c 44657369 		.ascii	"Desire_w_yaw\000"
 2032      72655F77 
 2032      5F796177 
 2032      00
ARM GAS  C:\Users\ADMINI~1\AppData\Local\Temp\ccFqYBCc.s 			page 43


 2033              	.LASF66:
 2034 03a9 436F6E74 		.ascii	"Control_Main\000"
 2034      726F6C5F 
 2034      4D61696E 
 2034      00
 2035              	.LASF27:
 2036 03b6 44657369 		.ascii	"Desire_angle_roll\000"
 2036      72655F61 
 2036      6E676C65 
 2036      5F726F6C 
 2036      6C00
 2037              	.LASF64:
 2038 03c8 443A5C73 		.ascii	"D:\\sjh\\10.11\\UAV_Control\\UAV_Control.cydsn\000"
 2038      6A685C31 
 2038      302E3131 
 2038      5C554156 
 2038      5F436F6E 
 2039              		.ident	"GCC: (GNU Tools for ARM Embedded Processors) 4.9.3 20150303 (release) [ARM/embedded-4_9-br
