ARM GAS  C:\Users\admin\AppData\Local\Temp\ccvyHFKe.s 			page 1


   1              		.syntax unified
   2              		.cpu cortex-m3
   3              		.fpu softvfp
   4              		.eabi_attribute 20, 1
   5              		.eabi_attribute 21, 1
   6              		.eabi_attribute 23, 3
   7              		.eabi_attribute 24, 1
   8              		.eabi_attribute 25, 1
   9              		.eabi_attribute 26, 1
  10              		.eabi_attribute 30, 1
  11              		.eabi_attribute 34, 1
  12              		.eabi_attribute 18, 4
  13              		.thumb
  14              		.file	"Control.c"
  15              		.text
  16              	.Ltext0:
  17              		.cfi_sections	.debug_frame
  18              		.section	.text.Control_Func_InitVariable,"ax",%progbits
  19              		.align	2
  20              		.global	Control_Func_InitVariable
  21              		.thumb
  22              		.thumb_func
  23              		.type	Control_Func_InitVariable, %function
  24              	Control_Func_InitVariable:
  25              	.LFB63:
  26              		.file 1 ".\\Control.c"
   1:.\Control.c   **** #include "Control.h"
   2:.\Control.c   **** #include <stdio.h>
   3:.\Control.c   **** #include "math.h"
   4:.\Control.c   **** 
   5:.\Control.c   **** //æ¥è‡ªè“ç‰™çš„æ•°æ®
   6:.\Control.c   **** extern int BT_Throttle, BT_Yaw, BT_Pitch, BT_Roll;
   7:.\Control.c   **** extern float roll_angle_offset, pitch_angle_offset;
   8:.\Control.c   **** extern float Desire_angle_pitch, Desire_angle_roll, Desire_w_yaw;
   9:.\Control.c   **** //æ¥è‡ªJY901çš„æ•°æ®
  10:.\Control.c   **** extern float AccelX, AccelY, AccelZ;     //ä¸‰è½´åŠ é€Ÿåº¦ï¼Œå•ä½ä¸ºg
  11:.\Control.c   **** extern float OmegaX, OmegaY, OmegaZ;     //ä¸‰è½´è§’é€Ÿåº¦ï¼Œå•ä½ä¸ºÂ°/s
  12:.\Control.c   **** extern float Temperature;                //æµ‹é‡æ¸©åº¦
  13:.\Control.c   **** extern float Roll, Pitch, Yaw;           //ä¸‰è½´è§’åº¦ï¼Œå•ä½ä¸ºÂ°
  14:.\Control.c   **** extern int MagX, MagY, MagZ;             //ä¸‰è½´ç£åœº
  15:.\Control.c   **** 
  16:.\Control.c   **** //å…¶ä»–ä¸´æ—¶å˜é‡
  17:.\Control.c   **** float set_power_1, set_power_2, set_power_3, set_power_4; //å‚¨å­˜è®¾å®šçš„åŠ¨åŠ›ï¼ŒèŒƒå›´0-10000
  18:.\Control.c   **** float Error_roll, Error_pitch, Error_w_yaw; //ä¸‰è½´è§’åº¦/Yawè§’é€Ÿåº¦çš„è¯¯å·®
  19:.\Control.c   **** float last_Error_roll, last_Error_pitch, last_Error_w_yaw; //ä¸Šä¸€æ—¶åˆ»çš„è§’åº¦è¯¯å·®ï¼Œç”¨äºæ±
  20:.\Control.c   **** float int_Error_roll, int_Error_pitch, int_Error_w_yaw; //è¯¯å·®çš„ç§¯åˆ†
  21:.\Control.c   **** 
  22:.\Control.c   **** float Desire_w_roll, Desire_w_pitch; //æœŸæœ›çš„Rollå’ŒPitchçš„è§’é€Ÿåº¦
  23:.\Control.c   **** float Error_w_roll, Error_w_pitch; //Rollå’ŒPitchè§’é€Ÿåº¦çš„è¯¯å·®
  24:.\Control.c   **** float last_Error_w_roll, last_Error_w_pitch; //ä¸Šä¸€æ—¶åˆ»çš„Rollå’ŒPitchè§’é€Ÿåº¦è¯¯å·®ï¼Œç”¨äºæ
  25:.\Control.c   **** float int_Error_w_roll, int_Error_w_pitch; //è§’é€Ÿåº¦è¯¯å·®çš„ç§¯åˆ†
  26:.\Control.c   **** float Control_Roll, Control_Pitch, Control_Yaw;
  27:.\Control.c   **** 
  28:.\Control.c   **** float last_power_1, last_power_2, last_power_3, last_power_4;
  29:.\Control.c   **** #define MAX_POWER_ACCELERATION 150
  30:.\Control.c   **** 
  31:.\Control.c   **** //PIDç›¸å…³å‚æ•°
ARM GAS  C:\Users\admin\AppData\Local\Temp\ccvyHFKe.s 			page 2


  32:.\Control.c   **** // å…¨ä¸ºæ­£æ•°
  33:.\Control.c   **** #define angle_P_roll  0.5 //PIDå‚æ•°æœ‰å¾…è°ƒæ•´
  34:.\Control.c   **** #define angle_I_roll  0.000
  35:.\Control.c   **** #define angle_D_roll  1.0
  36:.\Control.c   **** #define angle_P_pitch 0.5
  37:.\Control.c   **** #define angle_I_pitch 0.000
  38:.\Control.c   **** #define angle_D_pitch 1.0
  39:.\Control.c   **** #define Omega_P_roll  10.0
  40:.\Control.c   **** #define Omega_I_roll  0.00
  41:.\Control.c   **** #define Omega_D_roll  15.0
  42:.\Control.c   **** #define Omega_P_pitch 10.0
  43:.\Control.c   **** #define Omega_I_pitch 0.00
  44:.\Control.c   **** #define Omega_D_pitch 15.0
  45:.\Control.c   **** #define Omega_P_yaw   5.0
  46:.\Control.c   **** #define Omega_I_yaw   0.00
  47:.\Control.c   **** #define Omega_D_yaw   12.0
  48:.\Control.c   **** 
  49:.\Control.c   **** //ç§¯åˆ†ä¸Šé™
  50:.\Control.c   **** #define Angle_Int_Sup 5000.0
  51:.\Control.c   **** #define Omega_Int_Sup 5000.0
  52:.\Control.c   **** 
  53:.\Control.c   **** //æœŸæœ›åè§’/è§’é€Ÿåº¦é™åˆ¶
  54:.\Control.c   **** #define Angle_Roll_Sup   30.0
  55:.\Control.c   **** #define Angle_Roll_Inf  -30.0
  56:.\Control.c   **** #define Angle_Pitch_Sup  30.0
  57:.\Control.c   **** #define Angle_Pitch_Inf -30.0
  58:.\Control.c   **** #define Omega_Yaw_Sup    40.0
  59:.\Control.c   **** #define Omega_Yaw_Inf   -40.0
  60:.\Control.c   **** 
  61:.\Control.c   **** //ç”µæœºè½¬é€Ÿ
  62:.\Control.c   **** extern int Motor_v_1, Motor_v_2,  Motor_v_3,  Motor_v_4;
  63:.\Control.c   **** 
  64:.\Control.c   **** volatile int connection_lost_time = 0; //================================
  65:.\Control.c   **** 
  66:.\Control.c   **** //åˆå§‹åŒ–æ‰€æœ‰å˜é‡
  67:.\Control.c   **** void Control_Func_InitVariable() {
  27              		.loc 1 67 0
  28              		.cfi_startproc
  29              		@ args = 0, pretend = 0, frame = 0
  30              		@ frame_needed = 0, uses_anonymous_args = 0
  31              		@ link register save eliminated.
  68:.\Control.c   ****     set_power_1 = set_power_2 = set_power_3 = set_power_4 = 0;
  32              		.loc 1 68 0
  33 0000 0023     		movs	r3, #0
  34 0002 184A     		ldr	r2, .L2
  35 0004 1360     		str	r3, [r2]	@ float
  36 0006 184A     		ldr	r2, .L2+4
  37 0008 1360     		str	r3, [r2]	@ float
  38 000a 184A     		ldr	r2, .L2+8
  39 000c 1360     		str	r3, [r2]	@ float
  40 000e 184A     		ldr	r2, .L2+12
  41 0010 1360     		str	r3, [r2]	@ float
  69:.\Control.c   ****     Error_roll = Error_pitch = Error_w_yaw = Error_w_pitch = Error_w_roll = 0.0;
  42              		.loc 1 69 0
  43 0012 184A     		ldr	r2, .L2+16
  44 0014 1360     		str	r3, [r2]	@ float
  45 0016 184A     		ldr	r2, .L2+20
ARM GAS  C:\Users\admin\AppData\Local\Temp\ccvyHFKe.s 			page 3


  46 0018 1360     		str	r3, [r2]	@ float
  47 001a 184A     		ldr	r2, .L2+24
  48 001c 1360     		str	r3, [r2]	@ float
  49 001e 184A     		ldr	r2, .L2+28
  50 0020 1360     		str	r3, [r2]	@ float
  51 0022 184A     		ldr	r2, .L2+32
  52 0024 1360     		str	r3, [r2]	@ float
  70:.\Control.c   ****     last_Error_roll = last_Error_pitch = last_Error_w_yaw = last_Error_w_pitch = last_Error_w_roll 
  53              		.loc 1 70 0
  54 0026 184A     		ldr	r2, .L2+36
  55 0028 1360     		str	r3, [r2]	@ float
  56 002a 184A     		ldr	r2, .L2+40
  57 002c 1360     		str	r3, [r2]	@ float
  58 002e 184A     		ldr	r2, .L2+44
  59 0030 1360     		str	r3, [r2]	@ float
  60 0032 184A     		ldr	r2, .L2+48
  61 0034 1360     		str	r3, [r2]	@ float
  62 0036 184A     		ldr	r2, .L2+52
  63 0038 1360     		str	r3, [r2]	@ float
  71:.\Control.c   ****     int_Error_pitch = int_Error_roll = int_Error_w_pitch = int_Error_w_roll = int_Error_w_yaw = 0.0
  64              		.loc 1 71 0
  65 003a 184A     		ldr	r2, .L2+56
  66 003c 1360     		str	r3, [r2]	@ float
  67 003e 184A     		ldr	r2, .L2+60
  68 0040 1360     		str	r3, [r2]	@ float
  69 0042 184A     		ldr	r2, .L2+64
  70 0044 1360     		str	r3, [r2]	@ float
  71 0046 184A     		ldr	r2, .L2+68
  72 0048 1360     		str	r3, [r2]	@ float
  73 004a 184A     		ldr	r2, .L2+72
  74 004c 1360     		str	r3, [r2]	@ float
  72:.\Control.c   ****     Desire_w_pitch = Desire_w_roll = 0.0;
  75              		.loc 1 72 0
  76 004e 184A     		ldr	r2, .L2+76
  77 0050 1360     		str	r3, [r2]	@ float
  78 0052 184A     		ldr	r2, .L2+80
  79 0054 1360     		str	r3, [r2]	@ float
  73:.\Control.c   ****     Control_Roll = Control_Pitch = Control_Yaw = 0.0;
  80              		.loc 1 73 0
  81 0056 184A     		ldr	r2, .L2+84
  82 0058 1360     		str	r3, [r2]	@ float
  83 005a 184A     		ldr	r2, .L2+88
  84 005c 1360     		str	r3, [r2]	@ float
  85 005e 184A     		ldr	r2, .L2+92
  86 0060 1360     		str	r3, [r2]	@ float
  87 0062 7047     		bx	lr
  88              	.L3:
  89              		.align	2
  90              	.L2:
  91 0064 00000000 		.word	set_power_4
  92 0068 00000000 		.word	set_power_3
  93 006c 00000000 		.word	set_power_2
  94 0070 00000000 		.word	set_power_1
  95 0074 00000000 		.word	Error_w_roll
  96 0078 00000000 		.word	Error_w_pitch
  97 007c 00000000 		.word	Error_w_yaw
  98 0080 00000000 		.word	Error_pitch
ARM GAS  C:\Users\admin\AppData\Local\Temp\ccvyHFKe.s 			page 4


  99 0084 00000000 		.word	Error_roll
 100 0088 00000000 		.word	last_Error_w_roll
 101 008c 00000000 		.word	last_Error_w_pitch
 102 0090 00000000 		.word	last_Error_w_yaw
 103 0094 00000000 		.word	last_Error_pitch
 104 0098 00000000 		.word	last_Error_roll
 105 009c 00000000 		.word	int_Error_w_yaw
 106 00a0 00000000 		.word	int_Error_w_roll
 107 00a4 00000000 		.word	int_Error_w_pitch
 108 00a8 00000000 		.word	int_Error_roll
 109 00ac 00000000 		.word	int_Error_pitch
 110 00b0 00000000 		.word	Desire_w_roll
 111 00b4 00000000 		.word	Desire_w_pitch
 112 00b8 00000000 		.word	Control_Yaw
 113 00bc 00000000 		.word	Control_Pitch
 114 00c0 00000000 		.word	Control_Roll
 115              		.cfi_endproc
 116              	.LFE63:
 117              		.size	Control_Func_InitVariable, .-Control_Func_InitVariable
 118              		.global	__aeabi_i2f
 119              		.global	__aeabi_f2d
 120              		.global	__aeabi_dsub
 121              		.global	__aeabi_dmul
 122              		.global	__aeabi_d2f
 123              		.global	__aeabi_fadd
 124              		.global	__aeabi_fcmplt
 125              		.global	__aeabi_fcmpgt
 126              		.global	__aeabi_fsub
 127              		.global	__aeabi_dadd
 128              		.global	__aeabi_d2iz
 129              		.global	__aeabi_f2iz
 130              		.global	__aeabi_ddiv
 131              		.section	.text.Control_Main,"ax",%progbits
 132              		.align	2
 133              		.global	Control_Main
 134              		.thumb
 135              		.thumb_func
 136              		.type	Control_Main, %function
 137              	Control_Main:
 138              	.LFB64:
  74:.\Control.c   **** }
  75:.\Control.c   **** 
  76:.\Control.c   **** extern int Debug_Mode;
  77:.\Control.c   **** char displayBuffer[16];
  78:.\Control.c   **** //ä¸»è¦æ§åˆ¶ç®—æ³•
  79:.\Control.c   **** void Control_Main() {
 139              		.loc 1 79 0
 140              		.cfi_startproc
 141              		@ args = 0, pretend = 0, frame = 8
 142              		@ frame_needed = 0, uses_anonymous_args = 0
 143 0000 2DE9F04F 		push	{r4, r5, r6, r7, r8, r9, r10, fp, lr}
 144              		.cfi_def_cfa_offset 36
 145              		.cfi_offset 4, -36
 146              		.cfi_offset 5, -32
 147              		.cfi_offset 6, -28
 148              		.cfi_offset 7, -24
 149              		.cfi_offset 8, -20
ARM GAS  C:\Users\admin\AppData\Local\Temp\ccvyHFKe.s 			page 5


 150              		.cfi_offset 9, -16
 151              		.cfi_offset 10, -12
 152              		.cfi_offset 11, -8
 153              		.cfi_offset 14, -4
 154 0004 83B0     		sub	sp, sp, #12
 155              		.cfi_def_cfa_offset 48
  80:.\Control.c   ****     //è®¾å®šæ ¹æ®æ²¹é—¨å¤§å°è®¾å®šåŠ¨åŠ›ï¼Œå¹¶ç•™å‡ºæ§åˆ¶ä½™é‡
  81:.\Control.c   ****     set_power_1 = BT_Throttle * 9000 / 1024;
 156              		.loc 1 81 0
 157 0006 AA4B     		ldr	r3, .L84
 158 0008 1868     		ldr	r0, [r3]
 159 000a 42F22833 		movw	r3, #9000
 160 000e 03FB00F0 		mul	r0, r3, r0
 161 0012 0028     		cmp	r0, #0
 162 0014 01DA     		bge	.L5
 163 0016 00F2FF30 		addw	r0, r0, #1023
 164              	.L5:
 165 001a 8012     		asrs	r0, r0, #10
 166 001c FFF7FEFF 		bl	__aeabi_i2f
 167              	.LVL0:
 168 0020 8246     		mov	r10, r0
  82:.\Control.c   ****     set_power_2 = BT_Throttle * 9000 / 1024;
  83:.\Control.c   ****     set_power_3 = BT_Throttle * 9000 / 1024;
  84:.\Control.c   ****     set_power_4 = BT_Throttle * 9000 / 1024;
  85:.\Control.c   ****     
  86:.\Control.c   ****     //è§£ç è“ç‰™ä¼ è¾“çš„è®¾å®šè§’åº¦
  87:.\Control.c   ****     //Desire_angle_pitch = -((float)BT_Pitch - 512.0) * 30.0 / 512.0;
  88:.\Control.c   ****     //Desire_angle_roll = ((float)BT_Roll - 512.0) * 30.0 / 512.0;
  89:.\Control.c   ****     Desire_angle_pitch = ((float)BT_Roll - 512.0) * 30.0 / 512.0;
 169              		.loc 1 89 0
 170 0022 A44B     		ldr	r3, .L84+4
 171 0024 1868     		ldr	r0, [r3]
 172 0026 FFF7FEFF 		bl	__aeabi_i2f
 173              	.LVL1:
 174 002a FFF7FEFF 		bl	__aeabi_f2d
 175              	.LVL2:
 176 002e 0022     		movs	r2, #0
 177 0030 4FF08143 		mov	r3, #1082130432
 178 0034 FFF7FEFF 		bl	__aeabi_dsub
 179              	.LVL3:
 180 0038 0022     		movs	r2, #0
 181 003a 9F4B     		ldr	r3, .L84+8
 182 003c FFF7FEFF 		bl	__aeabi_dmul
 183              	.LVL4:
 184 0040 0022     		movs	r2, #0
 185 0042 9E4B     		ldr	r3, .L84+12
 186 0044 FFF7FEFF 		bl	__aeabi_dmul
 187              	.LVL5:
 188 0048 FFF7FEFF 		bl	__aeabi_d2f
 189              	.LVL6:
 190 004c 0446     		mov	r4, r0
  90:.\Control.c   ****     Desire_angle_roll = ((float)BT_Pitch - 512.0) * 30.0 / 512.0;
 191              		.loc 1 90 0
 192 004e 9C4B     		ldr	r3, .L84+16
 193 0050 1868     		ldr	r0, [r3]
 194 0052 FFF7FEFF 		bl	__aeabi_i2f
 195              	.LVL7:
ARM GAS  C:\Users\admin\AppData\Local\Temp\ccvyHFKe.s 			page 6


 196 0056 FFF7FEFF 		bl	__aeabi_f2d
 197              	.LVL8:
 198 005a 0022     		movs	r2, #0
 199 005c 4FF08143 		mov	r3, #1082130432
 200 0060 FFF7FEFF 		bl	__aeabi_dsub
 201              	.LVL9:
 202 0064 0022     		movs	r2, #0
 203 0066 944B     		ldr	r3, .L84+8
 204 0068 FFF7FEFF 		bl	__aeabi_dmul
 205              	.LVL10:
 206 006c 0022     		movs	r2, #0
 207 006e 934B     		ldr	r3, .L84+12
 208 0070 FFF7FEFF 		bl	__aeabi_dmul
 209              	.LVL11:
 210 0074 FFF7FEFF 		bl	__aeabi_d2f
 211              	.LVL12:
 212 0078 0546     		mov	r5, r0
  91:.\Control.c   ****     Desire_w_yaw = ((float)BT_Yaw - 512.0) * 40.0 / 512.0;
 213              		.loc 1 91 0
 214 007a 924B     		ldr	r3, .L84+20
 215 007c 1868     		ldr	r0, [r3]
 216 007e FFF7FEFF 		bl	__aeabi_i2f
 217              	.LVL13:
 218 0082 FFF7FEFF 		bl	__aeabi_f2d
 219              	.LVL14:
 220 0086 0022     		movs	r2, #0
 221 0088 4FF08143 		mov	r3, #1082130432
 222 008c FFF7FEFF 		bl	__aeabi_dsub
 223              	.LVL15:
 224 0090 0022     		movs	r2, #0
 225 0092 8D4B     		ldr	r3, .L84+24
 226 0094 FFF7FEFF 		bl	__aeabi_dmul
 227              	.LVL16:
 228 0098 0022     		movs	r2, #0
 229 009a 884B     		ldr	r3, .L84+12
 230 009c FFF7FEFF 		bl	__aeabi_dmul
 231              	.LVL17:
 232 00a0 FFF7FEFF 		bl	__aeabi_d2f
 233              	.LVL18:
 234 00a4 8046     		mov	r8, r0
  92:.\Control.c   ****     
  93:.\Control.c   ****     //åº”ç”¨è§’åº¦åç½®
  94:.\Control.c   ****     Roll += roll_angle_offset;
 235              		.loc 1 94 0
 236 00a6 894E     		ldr	r6, .L84+28
 237 00a8 3068     		ldr	r0, [r6]	@ float
 238 00aa 894B     		ldr	r3, .L84+32
 239 00ac 1968     		ldr	r1, [r3]	@ float
 240 00ae FFF7FEFF 		bl	__aeabi_fadd
 241              	.LVL19:
 242 00b2 0746     		mov	r7, r0
 243 00b4 3060     		str	r0, [r6]	@ float
  95:.\Control.c   ****     Pitch += pitch_angle_offset;
 244              		.loc 1 95 0
 245 00b6 DFF87C92 		ldr	r9, .L84+132
 246 00ba D9F80000 		ldr	r0, [r9]	@ float
 247 00be 854B     		ldr	r3, .L84+36
ARM GAS  C:\Users\admin\AppData\Local\Temp\ccvyHFKe.s 			page 7


 248 00c0 1968     		ldr	r1, [r3]	@ float
 249 00c2 FFF7FEFF 		bl	__aeabi_fadd
 250              	.LVL20:
 251 00c6 0646     		mov	r6, r0
 252 00c8 C9F80000 		str	r0, [r9]	@ float
  96:.\Control.c   ****     
  97:.\Control.c   ****     //PIDæ§åˆ¶
  98:.\Control.c   ****     //å¯¹äºRollå’ŒPitchï¼Œä½¿ç”¨ä¸¤å±‚é—­ç¯PID
  99:.\Control.c   ****     //ç¬¬ä¸€å±‚æ ¹æ®è§’åº¦çš„è¯¯å·®ç”ŸæˆæœŸæœ›è§’é€Ÿåº¦
 100:.\Control.c   ****     //ç¬¬äºŒå±‚æ ¹æ®è§’é€Ÿåº¦è¯¯å·®è¿›è¡Œæ§åˆ¶
 101:.\Control.c   ****     //å¯¹äºYawï¼Œå› ä¸ºæ— æ³•ç²¾ç¡®è®¡ç®—è§’åº¦ï¼Œä»…å¯¹è§’é€Ÿåº¦è¿›è¡Œä¸€å±‚é—­ç¯çš„PIDæ§åˆ¶
 102:.\Control.c   ****     
 103:.\Control.c   ****     //é™åˆ¶æœŸæœ›åè§’
 104:.\Control.c   ****     Desire_angle_pitch = (Desire_angle_pitch < Angle_Pitch_Inf)?(Angle_Pitch_Inf):((Desire_angle_pi
 253              		.loc 1 104 0
 254 00cc 2046     		mov	r0, r4
 255 00ce 8249     		ldr	r1, .L84+40
 256 00d0 FFF7FEFF 		bl	__aeabi_fcmplt
 257              	.LVL21:
 258 00d4 30B9     		cbnz	r0, .L55
 259              		.loc 1 104 0 is_stmt 0 discriminator 2
 260 00d6 2046     		mov	r0, r4
 261 00d8 8049     		ldr	r1, .L84+44
 262 00da FFF7FEFF 		bl	__aeabi_fcmpgt
 263              	.LVL22:
 264 00de 10B1     		cbz	r0, .L6
 265              		.loc 1 104 0
 266 00e0 7E4C     		ldr	r4, .L84+44
 267 00e2 00E0     		b	.L6
 268              	.L55:
 269 00e4 7C4C     		ldr	r4, .L84+40
 270              	.L6:
 271              		.loc 1 104 0 discriminator 8
 272 00e6 7E4B     		ldr	r3, .L84+48
 273 00e8 1C60     		str	r4, [r3]	@ float
 105:.\Control.c   ****     Desire_angle_roll = (Desire_angle_roll < Angle_Roll_Inf)?(Angle_Roll_Inf):((Desire_angle_roll >
 274              		.loc 1 105 0 is_stmt 1 discriminator 8
 275 00ea 2846     		mov	r0, r5
 276 00ec 7A49     		ldr	r1, .L84+40
 277 00ee FFF7FEFF 		bl	__aeabi_fcmplt
 278              	.LVL23:
 279 00f2 30B9     		cbnz	r0, .L56
 280              		.loc 1 105 0 is_stmt 0 discriminator 2
 281 00f4 2846     		mov	r0, r5
 282 00f6 7949     		ldr	r1, .L84+44
 283 00f8 FFF7FEFF 		bl	__aeabi_fcmpgt
 284              	.LVL24:
 285 00fc 10B1     		cbz	r0, .L9
 286              		.loc 1 105 0
 287 00fe 774D     		ldr	r5, .L84+44
 288 0100 00E0     		b	.L9
 289              	.L56:
 290 0102 754D     		ldr	r5, .L84+40
 291              	.L9:
 292              		.loc 1 105 0 discriminator 8
 293 0104 774B     		ldr	r3, .L84+52
 294 0106 1D60     		str	r5, [r3]	@ float
ARM GAS  C:\Users\admin\AppData\Local\Temp\ccvyHFKe.s 			page 8


 106:.\Control.c   ****     Desire_w_yaw = (Desire_w_yaw < Omega_Yaw_Inf)?(Omega_Yaw_Inf):((Desire_w_yaw > Omega_Yaw_Sup)?(
 295              		.loc 1 106 0 is_stmt 1 discriminator 8
 296 0108 4046     		mov	r0, r8
 297 010a 7749     		ldr	r1, .L84+56
 298 010c FFF7FEFF 		bl	__aeabi_fcmplt
 299              	.LVL25:
 300 0110 38B9     		cbnz	r0, .L57
 301              		.loc 1 106 0 is_stmt 0 discriminator 2
 302 0112 4046     		mov	r0, r8
 303 0114 7549     		ldr	r1, .L84+60
 304 0116 FFF7FEFF 		bl	__aeabi_fcmpgt
 305              	.LVL26:
 306 011a 20B1     		cbz	r0, .L12
 307              		.loc 1 106 0
 308 011c DFF8CC81 		ldr	r8, .L84+60
 309 0120 01E0     		b	.L12
 310              	.L57:
 311 0122 DFF8C481 		ldr	r8, .L84+56
 312              	.L12:
 313              		.loc 1 106 0 discriminator 8
 314 0126 724B     		ldr	r3, .L84+64
 315 0128 C3F80080 		str	r8, [r3]	@ float
 107:.\Control.c   ****     
 108:.\Control.c   ****     //å¯¹Pitchå’ŒRollè§’åº¦ä¸¤å±‚PIDæ§åˆ¶
 109:.\Control.c   ****     //è®¡ç®—è§’åº¦è¯¯å·®
 110:.\Control.c   ****     Error_roll = Desire_angle_roll - Roll;
 316              		.loc 1 110 0 is_stmt 1 discriminator 8
 317 012c 2846     		mov	r0, r5
 318 012e 3946     		mov	r1, r7
 319 0130 FFF7FEFF 		bl	__aeabi_fsub
 320              	.LVL27:
 321 0134 0546     		mov	r5, r0
 322 0136 6F4B     		ldr	r3, .L84+68
 323 0138 1860     		str	r0, [r3]	@ float
 111:.\Control.c   ****     Error_pitch = Desire_angle_pitch - Pitch;
 324              		.loc 1 111 0 discriminator 8
 325 013a 2046     		mov	r0, r4
 326 013c 3146     		mov	r1, r6
 327 013e FFF7FEFF 		bl	__aeabi_fsub
 328              	.LVL28:
 329 0142 0446     		mov	r4, r0
 330 0144 6C4B     		ldr	r3, .L84+72
 331 0146 1860     		str	r0, [r3]	@ float
 112:.\Control.c   ****     
 113:.\Control.c   ****     //ç§¯åˆ†å’Œç§¯åˆ†é™å¹…
 114:.\Control.c   ****     int_Error_roll += Error_roll;
 332              		.loc 1 114 0 discriminator 8
 333 0148 2846     		mov	r0, r5
 334 014a 6C4B     		ldr	r3, .L84+76
 335 014c 1968     		ldr	r1, [r3]	@ float
 336 014e FFF7FEFF 		bl	__aeabi_fadd
 337              	.LVL29:
 338 0152 8346     		mov	fp, r0
 115:.\Control.c   ****     int_Error_pitch += Error_pitch;
 339              		.loc 1 115 0 discriminator 8
 340 0154 2046     		mov	r0, r4
 341 0156 6A4B     		ldr	r3, .L84+80
ARM GAS  C:\Users\admin\AppData\Local\Temp\ccvyHFKe.s 			page 9


 342 0158 1968     		ldr	r1, [r3]	@ float
 343 015a FFF7FEFF 		bl	__aeabi_fadd
 344              	.LVL30:
 345 015e 8146     		mov	r9, r0
 116:.\Control.c   ****     int_Error_roll = (int_Error_roll > Angle_Int_Sup)?(Angle_Int_Sup):((int_Error_roll < -Angle_Int
 346              		.loc 1 116 0 discriminator 8
 347 0160 5846     		mov	r0, fp
 348 0162 6849     		ldr	r1, .L84+84
 349 0164 FFF7FEFF 		bl	__aeabi_fcmpgt
 350              	.LVL31:
 351 0168 38B9     		cbnz	r0, .L58
 352              		.loc 1 116 0 is_stmt 0 discriminator 2
 353 016a 5846     		mov	r0, fp
 354 016c 6649     		ldr	r1, .L84+88
 355 016e FFF7FEFF 		bl	__aeabi_fcmplt
 356              	.LVL32:
 357 0172 20B1     		cbz	r0, .L15
 358              		.loc 1 116 0
 359 0174 DFF890B1 		ldr	fp, .L84+88
 360 0178 01E0     		b	.L15
 361              	.L58:
 362 017a DFF888B1 		ldr	fp, .L84+84
 363              	.L15:
 364              		.loc 1 116 0 discriminator 8
 365 017e 5F4B     		ldr	r3, .L84+76
 366 0180 C3F800B0 		str	fp, [r3]	@ float
 117:.\Control.c   ****     int_Error_pitch = (int_Error_pitch > Angle_Int_Sup)?(Angle_Int_Sup):((int_Error_pitch < -Angle_
 367              		.loc 1 117 0 is_stmt 1 discriminator 8
 368 0184 4846     		mov	r0, r9
 369 0186 5F49     		ldr	r1, .L84+84
 370 0188 FFF7FEFF 		bl	__aeabi_fcmpgt
 371              	.LVL33:
 372 018c 38B9     		cbnz	r0, .L59
 373              		.loc 1 117 0 is_stmt 0 discriminator 2
 374 018e 4846     		mov	r0, r9
 375 0190 5D49     		ldr	r1, .L84+88
 376 0192 FFF7FEFF 		bl	__aeabi_fcmplt
 377              	.LVL34:
 378 0196 20B1     		cbz	r0, .L18
 379              		.loc 1 117 0
 380 0198 DFF86C91 		ldr	r9, .L84+88
 381 019c 01E0     		b	.L18
 382              	.L59:
 383 019e DFF86491 		ldr	r9, .L84+84
 384              	.L18:
 385              		.loc 1 117 0 discriminator 8
 386 01a2 574B     		ldr	r3, .L84+80
 387 01a4 C3F80090 		str	r9, [r3]	@ float
 118:.\Control.c   ****     
 119:.\Control.c   ****     //PIDç”ŸæˆæœŸæœ›è§’é€Ÿåº¦
 120:.\Control.c   ****     Desire_w_roll = Error_roll*angle_P_roll + int_Error_roll*angle_I_roll + (Error_roll - last_Erro
 388              		.loc 1 120 0 is_stmt 1 discriminator 8
 389 01a8 2846     		mov	r0, r5
 390 01aa FFF7FEFF 		bl	__aeabi_f2d
 391              	.LVL35:
 392 01ae 0022     		movs	r2, #0
 393 01b0 564B     		ldr	r3, .L84+92
ARM GAS  C:\Users\admin\AppData\Local\Temp\ccvyHFKe.s 			page 10


 394 01b2 FFF7FEFF 		bl	__aeabi_dmul
 395              	.LVL36:
 396 01b6 0646     		mov	r6, r0
 397 01b8 0F46     		mov	r7, r1
 398 01ba 5846     		mov	r0, fp
 399 01bc FFF7FEFF 		bl	__aeabi_f2d
 400              	.LVL37:
 401 01c0 0022     		movs	r2, #0
 402 01c2 0023     		movs	r3, #0
 403 01c4 FFF7FEFF 		bl	__aeabi_dmul
 404              	.LVL38:
 405 01c8 0246     		mov	r2, r0
 406 01ca 0B46     		mov	r3, r1
 407 01cc 3046     		mov	r0, r6
 408 01ce 3946     		mov	r1, r7
 409 01d0 FFF7FEFF 		bl	__aeabi_dadd
 410              	.LVL39:
 411 01d4 0646     		mov	r6, r0
 412 01d6 0F46     		mov	r7, r1
 413 01d8 DFF85CB1 		ldr	fp, .L84+136
 414 01dc 2846     		mov	r0, r5
 415 01de DBF80010 		ldr	r1, [fp]	@ float
 416 01e2 FFF7FEFF 		bl	__aeabi_fsub
 417              	.LVL40:
 418 01e6 FFF7FEFF 		bl	__aeabi_f2d
 419              	.LVL41:
 420 01ea 0246     		mov	r2, r0
 421 01ec 0B46     		mov	r3, r1
 422 01ee 3046     		mov	r0, r6
 423 01f0 3946     		mov	r1, r7
 424 01f2 FFF7FEFF 		bl	__aeabi_dadd
 425              	.LVL42:
 426 01f6 FFF7FEFF 		bl	__aeabi_d2f
 427              	.LVL43:
 428 01fa 0646     		mov	r6, r0
 429 01fc 444B     		ldr	r3, .L84+96
 430 01fe 1860     		str	r0, [r3]	@ float
 121:.\Control.c   ****     Desire_w_pitch = Error_pitch*angle_P_roll + int_Error_pitch*angle_I_roll + (Error_pitch - last_
 431              		.loc 1 121 0 discriminator 8
 432 0200 2046     		mov	r0, r4
 433 0202 FFF7FEFF 		bl	__aeabi_f2d
 434              	.LVL44:
 435 0206 0022     		movs	r2, #0
 436 0208 404B     		ldr	r3, .L84+92
 437 020a FFF7FEFF 		bl	__aeabi_dmul
 438              	.LVL45:
 439 020e CDE90001 		strd	r0, [sp]
 440 0212 4846     		mov	r0, r9
 441 0214 FFF7FEFF 		bl	__aeabi_f2d
 442              	.LVL46:
 443 0218 0022     		movs	r2, #0
 444 021a 0023     		movs	r3, #0
 445 021c FFF7FEFF 		bl	__aeabi_dmul
 446              	.LVL47:
 447 0220 0246     		mov	r2, r0
 448 0222 0B46     		mov	r3, r1
 449 0224 DDE90001 		ldrd	r0, [sp]
ARM GAS  C:\Users\admin\AppData\Local\Temp\ccvyHFKe.s 			page 11


 450 0228 FFF7FEFF 		bl	__aeabi_dadd
 451              	.LVL48:
 452 022c CDE90001 		strd	r0, [sp]
 453 0230 384F     		ldr	r7, .L84+100
 454 0232 2046     		mov	r0, r4
 455 0234 3968     		ldr	r1, [r7]	@ float
 456 0236 FFF7FEFF 		bl	__aeabi_fsub
 457              	.LVL49:
 458 023a FFF7FEFF 		bl	__aeabi_f2d
 459              	.LVL50:
 460 023e 0246     		mov	r2, r0
 461 0240 0B46     		mov	r3, r1
 462 0242 DDE90001 		ldrd	r0, [sp]
 463 0246 FFF7FEFF 		bl	__aeabi_dadd
 464              	.LVL51:
 465 024a FFF7FEFF 		bl	__aeabi_d2f
 466              	.LVL52:
 467 024e 8146     		mov	r9, r0
 468 0250 314B     		ldr	r3, .L84+104
 469 0252 1860     		str	r0, [r3]	@ float
 122:.\Control.c   ****     
 123:.\Control.c   ****     //æ›´æ–°è§’åº¦è¯¯å·®
 124:.\Control.c   ****     last_Error_roll = Error_roll;
 470              		.loc 1 124 0 discriminator 8
 471 0254 CBF80050 		str	r5, [fp]	@ float
 125:.\Control.c   ****     last_Error_pitch = Error_pitch;
 472              		.loc 1 125 0 discriminator 8
 473 0258 3C60     		str	r4, [r7]	@ float
 126:.\Control.c   ****     
 127:.\Control.c   ****     //è®¡ç®—è§’é€Ÿåº¦è¯¯å·®
 128:.\Control.c   ****     Error_w_roll = Desire_w_roll - OmegaX; //å…·ä½“çš„è½´ä¸è§’é€Ÿåº¦çš„å¯¹åº”å…³ç³»æœ‰å¾…æµ‹é‡
 474              		.loc 1 128 0 discriminator 8
 475 025a 3046     		mov	r0, r6
 476 025c 2F4B     		ldr	r3, .L84+108
 477 025e 1968     		ldr	r1, [r3]	@ float
 478 0260 FFF7FEFF 		bl	__aeabi_fsub
 479              	.LVL53:
 480 0264 0746     		mov	r7, r0
 481 0266 2E4B     		ldr	r3, .L84+112
 482 0268 1860     		str	r0, [r3]	@ float
 129:.\Control.c   ****     Error_w_pitch = Desire_w_pitch - OmegaY;
 483              		.loc 1 129 0 discriminator 8
 484 026a 4846     		mov	r0, r9
 485 026c 2D4B     		ldr	r3, .L84+116
 486 026e 1968     		ldr	r1, [r3]	@ float
 487 0270 FFF7FEFF 		bl	__aeabi_fsub
 488              	.LVL54:
 489 0274 0646     		mov	r6, r0
 490 0276 2C4B     		ldr	r3, .L84+120
 491 0278 1860     		str	r0, [r3]	@ float
 130:.\Control.c   ****     
 131:.\Control.c   ****     //è§’é€Ÿåº¦è¯¯å·®ç§¯åˆ†å’Œç§¯åˆ†é™å¹…
 132:.\Control.c   ****     int_Error_w_roll += Error_w_roll;
 492              		.loc 1 132 0 discriminator 8
 493 027a 3846     		mov	r0, r7
 494 027c 2B4B     		ldr	r3, .L84+124
 495 027e 1968     		ldr	r1, [r3]	@ float
ARM GAS  C:\Users\admin\AppData\Local\Temp\ccvyHFKe.s 			page 12


 496 0280 FFF7FEFF 		bl	__aeabi_fadd
 497              	.LVL55:
 498 0284 8346     		mov	fp, r0
 133:.\Control.c   ****     int_Error_w_pitch += Error_w_pitch;
 499              		.loc 1 133 0 discriminator 8
 500 0286 3046     		mov	r0, r6
 501 0288 294B     		ldr	r3, .L84+128
 502 028a 1968     		ldr	r1, [r3]	@ float
 503 028c FFF7FEFF 		bl	__aeabi_fadd
 504              	.LVL56:
 505 0290 8146     		mov	r9, r0
 134:.\Control.c   ****     int_Error_w_roll = (int_Error_w_roll > Omega_Int_Sup)?(Omega_Int_Sup):((int_Error_w_roll < -Ome
 506              		.loc 1 134 0 discriminator 8
 507 0292 5846     		mov	r0, fp
 508 0294 1B49     		ldr	r1, .L84+84
 509 0296 FFF7FEFF 		bl	__aeabi_fcmpgt
 510              	.LVL57:
 511 029a 0028     		cmp	r0, #0
 512 029c 4ED1     		bne	.L60
 513              		.loc 1 134 0 is_stmt 0 discriminator 2
 514 029e 5846     		mov	r0, fp
 515 02a0 1949     		ldr	r1, .L84+88
 516 02a2 FFF7FEFF 		bl	__aeabi_fcmplt
 517              	.LVL58:
 518 02a6 0028     		cmp	r0, #0
 519 02a8 4AD0     		beq	.L21
 520              		.loc 1 134 0
 521 02aa DFF85CB0 		ldr	fp, .L84+88
 522 02ae 47E0     		b	.L21
 523              	.L85:
 524              		.align	2
 525              	.L84:
 526 02b0 00000000 		.word	BT_Throttle
 527 02b4 00000000 		.word	BT_Roll
 528 02b8 00003E40 		.word	1077805056
 529 02bc 0000603F 		.word	1063256064
 530 02c0 00000000 		.word	BT_Pitch
 531 02c4 00000000 		.word	BT_Yaw
 532 02c8 00004440 		.word	1078198272
 533 02cc 00000000 		.word	Roll
 534 02d0 00000000 		.word	roll_angle_offset
 535 02d4 00000000 		.word	pitch_angle_offset
 536 02d8 0000F0C1 		.word	-1041235968
 537 02dc 0000F041 		.word	1106247680
 538 02e0 00000000 		.word	Desire_angle_pitch
 539 02e4 00000000 		.word	Desire_angle_roll
 540 02e8 000020C2 		.word	-1038090240
 541 02ec 00002042 		.word	1109393408
 542 02f0 00000000 		.word	Desire_w_yaw
 543 02f4 00000000 		.word	Error_roll
 544 02f8 00000000 		.word	Error_pitch
 545 02fc 00000000 		.word	int_Error_roll
 546 0300 00000000 		.word	int_Error_pitch
 547 0304 00409C45 		.word	1167867904
 548 0308 00409CC5 		.word	-979615744
 549 030c 0000E03F 		.word	1071644672
 550 0310 00000000 		.word	Desire_w_roll
ARM GAS  C:\Users\admin\AppData\Local\Temp\ccvyHFKe.s 			page 13


 551 0314 00000000 		.word	last_Error_pitch
 552 0318 00000000 		.word	Desire_w_pitch
 553 031c 00000000 		.word	OmegaX
 554 0320 00000000 		.word	Error_w_roll
 555 0324 00000000 		.word	OmegaY
 556 0328 00000000 		.word	Error_w_pitch
 557 032c 00000000 		.word	int_Error_w_roll
 558 0330 00000000 		.word	int_Error_w_pitch
 559 0334 00000000 		.word	Pitch
 560 0338 00000000 		.word	last_Error_roll
 561              	.L60:
 562 033c DFF870B2 		ldr	fp, .L86+4
 563              	.L21:
 564              		.loc 1 134 0 discriminator 8
 565 0340 9A4B     		ldr	r3, .L86
 566 0342 C3F800B0 		str	fp, [r3]	@ float
 135:.\Control.c   ****     int_Error_w_pitch = (int_Error_w_pitch > Omega_Int_Sup)?(Omega_Int_Sup):((int_Error_w_pitch < -
 567              		.loc 1 135 0 is_stmt 1 discriminator 8
 568 0346 4846     		mov	r0, r9
 569 0348 9949     		ldr	r1, .L86+4
 570 034a FFF7FEFF 		bl	__aeabi_fcmpgt
 571              	.LVL59:
 572 034e 38B9     		cbnz	r0, .L61
 573              		.loc 1 135 0 is_stmt 0 discriminator 2
 574 0350 4846     		mov	r0, r9
 575 0352 9849     		ldr	r1, .L86+8
 576 0354 FFF7FEFF 		bl	__aeabi_fcmplt
 577              	.LVL60:
 578 0358 20B1     		cbz	r0, .L24
 579              		.loc 1 135 0
 580 035a DFF85892 		ldr	r9, .L86+8
 581 035e 01E0     		b	.L24
 582              	.L61:
 583 0360 DFF84C92 		ldr	r9, .L86+4
 584              	.L24:
 585              		.loc 1 135 0 discriminator 8
 586 0364 944B     		ldr	r3, .L86+12
 587 0366 C3F80090 		str	r9, [r3]	@ float
 136:.\Control.c   ****     
 137:.\Control.c   ****     //PIDç”Ÿæˆæ§åˆ¶é‡
 138:.\Control.c   ****     Control_Roll = Error_w_roll*Omega_P_roll + int_Error_w_roll*Omega_I_roll + (Error_w_roll - last
 588              		.loc 1 138 0 is_stmt 1 discriminator 8
 589 036a 3846     		mov	r0, r7
 590 036c FFF7FEFF 		bl	__aeabi_f2d
 591              	.LVL61:
 592 0370 0022     		movs	r2, #0
 593 0372 924B     		ldr	r3, .L86+16
 594 0374 FFF7FEFF 		bl	__aeabi_dmul
 595              	.LVL62:
 596 0378 0446     		mov	r4, r0
 597 037a 0D46     		mov	r5, r1
 598 037c 5846     		mov	r0, fp
 599 037e FFF7FEFF 		bl	__aeabi_f2d
 600              	.LVL63:
 601 0382 0022     		movs	r2, #0
 602 0384 0023     		movs	r3, #0
 603 0386 FFF7FEFF 		bl	__aeabi_dmul
ARM GAS  C:\Users\admin\AppData\Local\Temp\ccvyHFKe.s 			page 14


 604              	.LVL64:
 605 038a 0246     		mov	r2, r0
 606 038c 0B46     		mov	r3, r1
 607 038e 2046     		mov	r0, r4
 608 0390 2946     		mov	r1, r5
 609 0392 FFF7FEFF 		bl	__aeabi_dadd
 610              	.LVL65:
 611 0396 0446     		mov	r4, r0
 612 0398 0D46     		mov	r5, r1
 613 039a DFF85CB2 		ldr	fp, .L86+76
 614 039e 3846     		mov	r0, r7
 615 03a0 DBF80010 		ldr	r1, [fp]	@ float
 616 03a4 FFF7FEFF 		bl	__aeabi_fsub
 617              	.LVL66:
 618 03a8 FFF7FEFF 		bl	__aeabi_f2d
 619              	.LVL67:
 620 03ac 0022     		movs	r2, #0
 621 03ae 844B     		ldr	r3, .L86+20
 622 03b0 FFF7FEFF 		bl	__aeabi_dmul
 623              	.LVL68:
 624 03b4 0246     		mov	r2, r0
 625 03b6 0B46     		mov	r3, r1
 626 03b8 2046     		mov	r0, r4
 627 03ba 2946     		mov	r1, r5
 628 03bc FFF7FEFF 		bl	__aeabi_dadd
 629              	.LVL69:
 630 03c0 FFF7FEFF 		bl	__aeabi_d2f
 631              	.LVL70:
 632 03c4 0446     		mov	r4, r0
 633 03c6 7F4B     		ldr	r3, .L86+24
 634 03c8 1860     		str	r0, [r3]	@ float
 139:.\Control.c   ****     Control_Pitch = Error_w_pitch*Omega_P_pitch + int_Error_w_pitch*Omega_I_pitch + (Error_w_pitch 
 635              		.loc 1 139 0 discriminator 8
 636 03ca 3046     		mov	r0, r6
 637 03cc FFF7FEFF 		bl	__aeabi_f2d
 638              	.LVL71:
 639 03d0 0022     		movs	r2, #0
 640 03d2 7A4B     		ldr	r3, .L86+16
 641 03d4 FFF7FEFF 		bl	__aeabi_dmul
 642              	.LVL72:
 643 03d8 CDE90001 		strd	r0, [sp]
 644 03dc 4846     		mov	r0, r9
 645 03de FFF7FEFF 		bl	__aeabi_f2d
 646              	.LVL73:
 647 03e2 0022     		movs	r2, #0
 648 03e4 0023     		movs	r3, #0
 649 03e6 FFF7FEFF 		bl	__aeabi_dmul
 650              	.LVL74:
 651 03ea 0246     		mov	r2, r0
 652 03ec 0B46     		mov	r3, r1
 653 03ee DDE90001 		ldrd	r0, [sp]
 654 03f2 FFF7FEFF 		bl	__aeabi_dadd
 655              	.LVL75:
 656 03f6 CDE90001 		strd	r0, [sp]
 657 03fa 734D     		ldr	r5, .L86+28
 658 03fc 3046     		mov	r0, r6
 659 03fe 2968     		ldr	r1, [r5]	@ float
ARM GAS  C:\Users\admin\AppData\Local\Temp\ccvyHFKe.s 			page 15


 660 0400 FFF7FEFF 		bl	__aeabi_fsub
 661              	.LVL76:
 662 0404 FFF7FEFF 		bl	__aeabi_f2d
 663              	.LVL77:
 664 0408 0022     		movs	r2, #0
 665 040a 6D4B     		ldr	r3, .L86+20
 666 040c FFF7FEFF 		bl	__aeabi_dmul
 667              	.LVL78:
 668 0410 0246     		mov	r2, r0
 669 0412 0B46     		mov	r3, r1
 670 0414 DDE90001 		ldrd	r0, [sp]
 671 0418 FFF7FEFF 		bl	__aeabi_dadd
 672              	.LVL79:
 673 041c FFF7FEFF 		bl	__aeabi_d2f
 674              	.LVL80:
 675 0420 8146     		mov	r9, r0
 676 0422 6A4B     		ldr	r3, .L86+32
 677 0424 1860     		str	r0, [r3]	@ float
 140:.\Control.c   ****     
 141:.\Control.c   ****     //æ›´æ–°è§’é€Ÿåº¦è¯¯å·®
 142:.\Control.c   ****     last_Error_w_roll = Error_w_roll;
 678              		.loc 1 142 0 discriminator 8
 679 0426 CBF80070 		str	r7, [fp]	@ float
 143:.\Control.c   ****     last_Error_w_pitch = Error_w_pitch;
 680              		.loc 1 143 0 discriminator 8
 681 042a 2E60     		str	r6, [r5]	@ float
 144:.\Control.c   **** 
 145:.\Control.c   ****     //å¯¹yawè§’åº¦çš„å¤„ç†ï¼Œå½¢æˆä¸€ä¸ªPIDé—­ç¯
 146:.\Control.c   ****     //å› ä¸ºå¯¹yawè§’åº¦æµ‹é‡ä¸å‡†ï¼Œå› æ­¤åªè€ƒè™‘è§’é€Ÿåº¦
 147:.\Control.c   ****     Error_w_yaw = Desire_w_yaw - OmegaZ;
 682              		.loc 1 147 0 discriminator 8
 683 042c 4046     		mov	r0, r8
 684 042e 684B     		ldr	r3, .L86+36
 685 0430 1968     		ldr	r1, [r3]	@ float
 686 0432 FFF7FEFF 		bl	__aeabi_fsub
 687              	.LVL81:
 688 0436 0546     		mov	r5, r0
 689 0438 664B     		ldr	r3, .L86+40
 690 043a 1860     		str	r0, [r3]	@ float
 148:.\Control.c   ****     int_Error_w_yaw += Error_w_yaw;
 691              		.loc 1 148 0 discriminator 8
 692 043c 664B     		ldr	r3, .L86+44
 693 043e 1968     		ldr	r1, [r3]	@ float
 694 0440 FFF7FEFF 		bl	__aeabi_fadd
 695              	.LVL82:
 696 0444 8046     		mov	r8, r0
 149:.\Control.c   ****     int_Error_w_yaw = (int_Error_w_yaw > Omega_Int_Sup)?(Omega_Int_Sup):((int_Error_w_yaw < -Omega_
 697              		.loc 1 149 0 discriminator 8
 698 0446 5A49     		ldr	r1, .L86+4
 699 0448 FFF7FEFF 		bl	__aeabi_fcmpgt
 700              	.LVL83:
 701 044c 38B9     		cbnz	r0, .L62
 702              		.loc 1 149 0 is_stmt 0 discriminator 2
 703 044e 4046     		mov	r0, r8
 704 0450 5849     		ldr	r1, .L86+8
 705 0452 FFF7FEFF 		bl	__aeabi_fcmplt
 706              	.LVL84:
ARM GAS  C:\Users\admin\AppData\Local\Temp\ccvyHFKe.s 			page 16


 707 0456 20B1     		cbz	r0, .L27
 708              		.loc 1 149 0
 709 0458 DFF85881 		ldr	r8, .L86+8
 710 045c 01E0     		b	.L27
 711              	.L62:
 712 045e DFF85081 		ldr	r8, .L86+4
 713              	.L27:
 714              		.loc 1 149 0 discriminator 8
 715 0462 5D4B     		ldr	r3, .L86+44
 716 0464 C3F80080 		str	r8, [r3]	@ float
 150:.\Control.c   ****     Control_Yaw = Error_w_yaw*Omega_P_yaw + int_Error_w_yaw*Omega_I_yaw + (Error_w_yaw - last_Error
 717              		.loc 1 150 0 is_stmt 1 discriminator 8
 718 0468 2846     		mov	r0, r5
 719 046a FFF7FEFF 		bl	__aeabi_f2d
 720              	.LVL85:
 721 046e 0022     		movs	r2, #0
 722 0470 5A4B     		ldr	r3, .L86+48
 723 0472 FFF7FEFF 		bl	__aeabi_dmul
 724              	.LVL86:
 725 0476 0646     		mov	r6, r0
 726 0478 0F46     		mov	r7, r1
 727 047a 4046     		mov	r0, r8
 728 047c FFF7FEFF 		bl	__aeabi_f2d
 729              	.LVL87:
 730 0480 0022     		movs	r2, #0
 731 0482 0023     		movs	r3, #0
 732 0484 FFF7FEFF 		bl	__aeabi_dmul
 733              	.LVL88:
 734 0488 0246     		mov	r2, r0
 735 048a 0B46     		mov	r3, r1
 736 048c 3046     		mov	r0, r6
 737 048e 3946     		mov	r1, r7
 738 0490 FFF7FEFF 		bl	__aeabi_dadd
 739              	.LVL89:
 740 0494 0646     		mov	r6, r0
 741 0496 0F46     		mov	r7, r1
 742 0498 DFF86081 		ldr	r8, .L86+80
 743 049c 2846     		mov	r0, r5
 744 049e D8F80010 		ldr	r1, [r8]	@ float
 745 04a2 FFF7FEFF 		bl	__aeabi_fsub
 746              	.LVL90:
 747 04a6 FFF7FEFF 		bl	__aeabi_f2d
 748              	.LVL91:
 749 04aa 0022     		movs	r2, #0
 750 04ac 4C4B     		ldr	r3, .L86+52
 751 04ae FFF7FEFF 		bl	__aeabi_dmul
 752              	.LVL92:
 753 04b2 0246     		mov	r2, r0
 754 04b4 0B46     		mov	r3, r1
 755 04b6 3046     		mov	r0, r6
 756 04b8 3946     		mov	r1, r7
 757 04ba FFF7FEFF 		bl	__aeabi_dadd
 758              	.LVL93:
 759 04be FFF7FEFF 		bl	__aeabi_d2f
 760              	.LVL94:
 761 04c2 0646     		mov	r6, r0
 762 04c4 474B     		ldr	r3, .L86+56
ARM GAS  C:\Users\admin\AppData\Local\Temp\ccvyHFKe.s 			page 17


 763 04c6 1860     		str	r0, [r3]	@ float
 151:.\Control.c   ****     last_Error_w_yaw = Error_w_yaw;
 764              		.loc 1 151 0 discriminator 8
 765 04c8 C8F80050 		str	r5, [r8]	@ float
 152:.\Control.c   ****     
 153:.\Control.c   ****     //æ§åˆ¶é‡è½¬åŒ–ä¸ºç”µæœºè½¬é€Ÿå˜åŒ–
 154:.\Control.c   ****     //å®é™…æ—‹è½¬æ–¹å‘å’Œç”µæœºç¼–å·éœ€è¦è¿›ä¸€æ­¥ç¡®è®¤
 155:.\Control.c   ****     set_power_1 +=  Control_Roll + Control_Pitch + Control_Yaw;
 766              		.loc 1 155 0 discriminator 8
 767 04cc 2046     		mov	r0, r4
 768 04ce 4946     		mov	r1, r9
 769 04d0 FFF7FEFF 		bl	__aeabi_fadd
 770              	.LVL95:
 771 04d4 0146     		mov	r1, r0
 772 04d6 3046     		mov	r0, r6
 773 04d8 FFF7FEFF 		bl	__aeabi_fadd
 774              	.LVL96:
 775 04dc 0146     		mov	r1, r0
 776 04de 5046     		mov	r0, r10
 777 04e0 FFF7FEFF 		bl	__aeabi_fadd
 778              	.LVL97:
 779 04e4 8046     		mov	r8, r0
 156:.\Control.c   ****     set_power_2 += -Control_Roll + Control_Pitch - Control_Yaw;
 780              		.loc 1 156 0 discriminator 8
 781 04e6 4846     		mov	r0, r9
 782 04e8 2146     		mov	r1, r4
 783 04ea FFF7FEFF 		bl	__aeabi_fsub
 784              	.LVL98:
 785 04ee 3146     		mov	r1, r6
 786 04f0 FFF7FEFF 		bl	__aeabi_fsub
 787              	.LVL99:
 788 04f4 0146     		mov	r1, r0
 789 04f6 5046     		mov	r0, r10
 790 04f8 FFF7FEFF 		bl	__aeabi_fadd
 791              	.LVL100:
 792 04fc 0746     		mov	r7, r0
 157:.\Control.c   ****     set_power_3 += -Control_Roll - Control_Pitch + Control_Yaw;
 793              		.loc 1 157 0 discriminator 8
 794 04fe 04F10040 		add	r0, r4, #-2147483648
 795 0502 4946     		mov	r1, r9
 796 0504 FFF7FEFF 		bl	__aeabi_fsub
 797              	.LVL101:
 798 0508 0146     		mov	r1, r0
 799 050a 3046     		mov	r0, r6
 800 050c FFF7FEFF 		bl	__aeabi_fadd
 801              	.LVL102:
 802 0510 0146     		mov	r1, r0
 803 0512 5046     		mov	r0, r10
 804 0514 FFF7FEFF 		bl	__aeabi_fadd
 805              	.LVL103:
 806 0518 0546     		mov	r5, r0
 158:.\Control.c   ****     set_power_4 +=  Control_Roll - Control_Pitch - Control_Yaw;
 807              		.loc 1 158 0 discriminator 8
 808 051a 2046     		mov	r0, r4
 809 051c 4946     		mov	r1, r9
 810 051e FFF7FEFF 		bl	__aeabi_fsub
 811              	.LVL104:
ARM GAS  C:\Users\admin\AppData\Local\Temp\ccvyHFKe.s 			page 18


 812 0522 3146     		mov	r1, r6
 813 0524 FFF7FEFF 		bl	__aeabi_fsub
 814              	.LVL105:
 815 0528 0146     		mov	r1, r0
 816 052a 5046     		mov	r0, r10
 817 052c FFF7FEFF 		bl	__aeabi_fadd
 818              	.LVL106:
 819 0530 0446     		mov	r4, r0
 159:.\Control.c   ****     
 160:.\Control.c   ****     //é™åˆ¶ç›®æ ‡åŠ¨åŠ›åœ¨0-10000
 161:.\Control.c   ****     set_power_1 = (set_power_1 < 0)?(0):((set_power_1 > 10000)?(10000):(set_power_1));
 820              		.loc 1 161 0 discriminator 8
 821 0532 4046     		mov	r0, r8
 822 0534 0021     		movs	r1, #0
 823 0536 FFF7FEFF 		bl	__aeabi_fcmplt
 824              	.LVL107:
 825 053a 38B9     		cbnz	r0, .L63
 826              		.loc 1 161 0 is_stmt 0 discriminator 2
 827 053c 4046     		mov	r0, r8
 828 053e 2A49     		ldr	r1, .L86+60
 829 0540 FFF7FEFF 		bl	__aeabi_fcmpgt
 830              	.LVL108:
 831 0544 20B1     		cbz	r0, .L30
 832              		.loc 1 161 0
 833 0546 DFF8A080 		ldr	r8, .L86+60
 834 054a 01E0     		b	.L30
 835              	.L63:
 836 054c 4FF00008 		mov	r8, #0
 837              	.L30:
 838              		.loc 1 161 0 discriminator 8
 839 0550 264B     		ldr	r3, .L86+64
 840 0552 C3F80080 		str	r8, [r3]	@ float
 162:.\Control.c   ****     set_power_2 = (set_power_2 < 0)?(0):((set_power_2 > 10000)?(10000):(set_power_2));
 841              		.loc 1 162 0 is_stmt 1 discriminator 8
 842 0556 3846     		mov	r0, r7
 843 0558 0021     		movs	r1, #0
 844 055a FFF7FEFF 		bl	__aeabi_fcmplt
 845              	.LVL109:
 846 055e 30B9     		cbnz	r0, .L64
 847              		.loc 1 162 0 is_stmt 0 discriminator 2
 848 0560 3846     		mov	r0, r7
 849 0562 2149     		ldr	r1, .L86+60
 850 0564 FFF7FEFF 		bl	__aeabi_fcmpgt
 851              	.LVL110:
 852 0568 10B1     		cbz	r0, .L33
 853              		.loc 1 162 0
 854 056a 1F4F     		ldr	r7, .L86+60
 855 056c 00E0     		b	.L33
 856              	.L64:
 857 056e 0027     		movs	r7, #0
 858              	.L33:
 859              		.loc 1 162 0 discriminator 8
 860 0570 1F4B     		ldr	r3, .L86+68
 861 0572 1F60     		str	r7, [r3]	@ float
 163:.\Control.c   ****     set_power_3 = (set_power_3 < 0)?(0):((set_power_3 > 10000)?(10000):(set_power_3));
 862              		.loc 1 163 0 is_stmt 1 discriminator 8
 863 0574 2846     		mov	r0, r5
ARM GAS  C:\Users\admin\AppData\Local\Temp\ccvyHFKe.s 			page 19


 864 0576 0021     		movs	r1, #0
 865 0578 FFF7FEFF 		bl	__aeabi_fcmplt
 866              	.LVL111:
 867 057c 30B9     		cbnz	r0, .L65
 868              		.loc 1 163 0 is_stmt 0 discriminator 2
 869 057e 2846     		mov	r0, r5
 870 0580 1949     		ldr	r1, .L86+60
 871 0582 FFF7FEFF 		bl	__aeabi_fcmpgt
 872              	.LVL112:
 873 0586 10B1     		cbz	r0, .L36
 874              		.loc 1 163 0
 875 0588 174D     		ldr	r5, .L86+60
 876 058a 00E0     		b	.L36
 877              	.L65:
 878 058c 0025     		movs	r5, #0
 879              	.L36:
 880              		.loc 1 163 0 discriminator 8
 881 058e 194B     		ldr	r3, .L86+72
 882 0590 1D60     		str	r5, [r3]	@ float
 164:.\Control.c   ****     set_power_4 = (set_power_4 < 0)?(0):((set_power_4 > 10000)?(10000):(set_power_4));
 883              		.loc 1 164 0 is_stmt 1 discriminator 8
 884 0592 2046     		mov	r0, r4
 885 0594 0021     		movs	r1, #0
 886 0596 FFF7FEFF 		bl	__aeabi_fcmplt
 887              	.LVL113:
 888 059a 88BB     		cbnz	r0, .L66
 889              		.loc 1 164 0 is_stmt 0 discriminator 2
 890 059c 2046     		mov	r0, r4
 891 059e 1249     		ldr	r1, .L86+60
 892 05a0 FFF7FEFF 		bl	__aeabi_fcmpgt
 893              	.LVL114:
 894 05a4 68B3     		cbz	r0, .L39
 895              		.loc 1 164 0
 896 05a6 104C     		ldr	r4, .L86+60
 897 05a8 2BE0     		b	.L39
 898              	.L87:
 899 05aa 00BF     		.align	2
 900              	.L86:
 901 05ac 00000000 		.word	int_Error_w_roll
 902 05b0 00409C45 		.word	1167867904
 903 05b4 00409CC5 		.word	-979615744
 904 05b8 00000000 		.word	int_Error_w_pitch
 905 05bc 00002440 		.word	1076101120
 906 05c0 00002E40 		.word	1076756480
 907 05c4 00000000 		.word	Control_Roll
 908 05c8 00000000 		.word	last_Error_w_pitch
 909 05cc 00000000 		.word	Control_Pitch
 910 05d0 00000000 		.word	OmegaZ
 911 05d4 00000000 		.word	Error_w_yaw
 912 05d8 00000000 		.word	int_Error_w_yaw
 913 05dc 00001440 		.word	1075052544
 914 05e0 00002840 		.word	1076363264
 915 05e4 00000000 		.word	Control_Yaw
 916 05e8 00401C46 		.word	1176256512
 917 05ec 00000000 		.word	set_power_1
 918 05f0 00000000 		.word	set_power_2
 919 05f4 00000000 		.word	set_power_3
ARM GAS  C:\Users\admin\AppData\Local\Temp\ccvyHFKe.s 			page 20


 920 05f8 00000000 		.word	last_Error_w_roll
 921 05fc 00000000 		.word	last_Error_w_yaw
 922              	.L66:
 923 0600 0024     		movs	r4, #0
 924              	.L39:
 925              		.loc 1 164 0 discriminator 8
 926 0602 964B     		ldr	r3, .L88
 927 0604 1C60     		str	r4, [r3]	@ float
 165:.\Control.c   **** 
 166:.\Control.c   ****     connection_lost_time++;
 928              		.loc 1 166 0 is_stmt 1 discriminator 8
 929 0606 964B     		ldr	r3, .L88+4
 930 0608 1A68     		ldr	r2, [r3]
 931 060a 0132     		adds	r2, r2, #1
 932 060c 1A60     		str	r2, [r3]
 167:.\Control.c   ****     if(connection_lost_time >= 50)
 933              		.loc 1 167 0 discriminator 8
 934 060e 1B68     		ldr	r3, [r3]
 935 0610 312B     		cmp	r3, #49
 936 0612 02DD     		ble	.L42
 168:.\Control.c   ****         connection_lost_time = 50;
 937              		.loc 1 168 0
 938 0614 3222     		movs	r2, #50
 939 0616 924B     		ldr	r3, .L88+4
 940 0618 1A60     		str	r2, [r3]
 941              	.L42:
 169:.\Control.c   ****     
 170:.\Control.c   ****     //é™åˆ¶åŠ¨åŠ›å¢åŠ é€Ÿç‡ï¼Œæé«˜å®‰å…¨æ€§
 171:.\Control.c   ****     if(set_power_1 > last_power_1 + MAX_POWER_ACCELERATION)
 942              		.loc 1 171 0
 943 061a 924B     		ldr	r3, .L88+8
 944 061c 1868     		ldr	r0, [r3]	@ float
 945 061e 9249     		ldr	r1, .L88+12
 946 0620 FFF7FEFF 		bl	__aeabi_fadd
 947              	.LVL115:
 948 0624 0646     		mov	r6, r0
 949 0626 4046     		mov	r0, r8
 950 0628 3146     		mov	r1, r6
 951 062a FFF7FEFF 		bl	__aeabi_fcmpgt
 952              	.LVL116:
 953 062e 08B1     		cbz	r0, .L43
 172:.\Control.c   ****         set_power_1 = last_power_1 + MAX_POWER_ACCELERATION;
 954              		.loc 1 172 0
 955 0630 8E4B     		ldr	r3, .L88+16
 956 0632 1E60     		str	r6, [r3]	@ float
 957              	.L43:
 173:.\Control.c   ****     if(set_power_2 > last_power_2 + MAX_POWER_ACCELERATION)
 958              		.loc 1 173 0
 959 0634 8E4B     		ldr	r3, .L88+20
 960 0636 1868     		ldr	r0, [r3]	@ float
 961 0638 8B49     		ldr	r1, .L88+12
 962 063a FFF7FEFF 		bl	__aeabi_fadd
 963              	.LVL117:
 964 063e 0646     		mov	r6, r0
 965 0640 3846     		mov	r0, r7
 966 0642 3146     		mov	r1, r6
 967 0644 FFF7FEFF 		bl	__aeabi_fcmpgt
ARM GAS  C:\Users\admin\AppData\Local\Temp\ccvyHFKe.s 			page 21


 968              	.LVL118:
 969 0648 08B1     		cbz	r0, .L45
 174:.\Control.c   ****         set_power_2 = last_power_2 + MAX_POWER_ACCELERATION;
 970              		.loc 1 174 0
 971 064a 8A4B     		ldr	r3, .L88+24
 972 064c 1E60     		str	r6, [r3]	@ float
 973              	.L45:
 175:.\Control.c   ****     if(set_power_3 > last_power_3 + MAX_POWER_ACCELERATION)
 974              		.loc 1 175 0
 975 064e 8A4B     		ldr	r3, .L88+28
 976 0650 1868     		ldr	r0, [r3]	@ float
 977 0652 8549     		ldr	r1, .L88+12
 978 0654 FFF7FEFF 		bl	__aeabi_fadd
 979              	.LVL119:
 980 0658 0646     		mov	r6, r0
 981 065a 2846     		mov	r0, r5
 982 065c 3146     		mov	r1, r6
 983 065e FFF7FEFF 		bl	__aeabi_fcmpgt
 984              	.LVL120:
 985 0662 08B1     		cbz	r0, .L47
 176:.\Control.c   ****         set_power_3 = last_power_3 + MAX_POWER_ACCELERATION;
 986              		.loc 1 176 0
 987 0664 854B     		ldr	r3, .L88+32
 988 0666 1E60     		str	r6, [r3]	@ float
 989              	.L47:
 177:.\Control.c   ****     if(set_power_4 > last_power_4 + MAX_POWER_ACCELERATION)
 990              		.loc 1 177 0
 991 0668 854B     		ldr	r3, .L88+36
 992 066a 1868     		ldr	r0, [r3]	@ float
 993 066c 7E49     		ldr	r1, .L88+12
 994 066e FFF7FEFF 		bl	__aeabi_fadd
 995              	.LVL121:
 996 0672 0546     		mov	r5, r0
 997 0674 2046     		mov	r0, r4
 998 0676 2946     		mov	r1, r5
 999 0678 FFF7FEFF 		bl	__aeabi_fcmpgt
 1000              	.LVL122:
 1001 067c 08B1     		cbz	r0, .L49
 178:.\Control.c   ****         set_power_4 = last_power_4 + MAX_POWER_ACCELERATION;
 1002              		.loc 1 178 0
 1003 067e 774B     		ldr	r3, .L88
 1004 0680 1D60     		str	r5, [r3]	@ float
 1005              	.L49:
 179:.\Control.c   ****     
 180:.\Control.c   ****     last_power_1 = set_power_1;
 1006              		.loc 1 180 0
 1007 0682 7A4B     		ldr	r3, .L88+16
 1008 0684 1C68     		ldr	r4, [r3]	@ float
 1009 0686 774B     		ldr	r3, .L88+8
 1010 0688 1C60     		str	r4, [r3]	@ float
 181:.\Control.c   ****     last_power_2 = set_power_2;
 1011              		.loc 1 181 0
 1012 068a 7A4B     		ldr	r3, .L88+24
 1013 068c 1A68     		ldr	r2, [r3]	@ float
 1014 068e 784B     		ldr	r3, .L88+20
 1015 0690 1A60     		str	r2, [r3]	@ float
 182:.\Control.c   ****     last_power_3 = set_power_3;
ARM GAS  C:\Users\admin\AppData\Local\Temp\ccvyHFKe.s 			page 22


 1016              		.loc 1 182 0
 1017 0692 7A4B     		ldr	r3, .L88+32
 1018 0694 1A68     		ldr	r2, [r3]	@ float
 1019 0696 784B     		ldr	r3, .L88+28
 1020 0698 1A60     		str	r2, [r3]	@ float
 183:.\Control.c   ****     last_power_4 = set_power_4;
 1021              		.loc 1 183 0
 1022 069a 704B     		ldr	r3, .L88
 1023 069c 1A68     		ldr	r2, [r3]	@ float
 1024 069e 784B     		ldr	r3, .L88+36
 1025 06a0 1A60     		str	r2, [r3]	@ float
 184:.\Control.c   ****     
 185:.\Control.c   ****     //Motor_v_1 = Motor_v_2 = Motor_v_3 = Motor_v_4 = 0;
 186:.\Control.c   ****     //åŠ¨åŠ›è½¬é€Ÿæ¢ç®—ï¼Œå› ä¸ºæ¨åŠ›ä¸è½¬é€Ÿçš„å¹³æ–¹æˆæ­£æ¯”
 187:.\Control.c   ****     //ä»åŠ¨åŠ›0-10000æ¢ç®—åˆ°è½¬é€Ÿ0-1000
 188:.\Control.c   ****     if(connection_lost_time <= 30) { //ä¸€å®šæ—¶é—´æ¥æ”¶ä¸åˆ°è“ç‰™æ§åˆ¶ä¿¡å·å°±è‡ªåŠ¨åœæ­¢
 1026              		.loc 1 188 0
 1027 06a2 6F4B     		ldr	r3, .L88+4
 1028 06a4 1B68     		ldr	r3, [r3]
 1029 06a6 1E2B     		cmp	r3, #30
 1030 06a8 37DC     		bgt	.L51
 189:.\Control.c   ****         Motor_v_1 = (int)(10.0 * sqrt(set_power_1));
 1031              		.loc 1 189 0
 1032 06aa 2046     		mov	r0, r4
 1033 06ac FFF7FEFF 		bl	__aeabi_f2d
 1034              	.LVL123:
 1035 06b0 FFF7FEFF 		bl	sqrt
 1036              	.LVL124:
 1037 06b4 0022     		movs	r2, #0
 1038 06b6 734B     		ldr	r3, .L88+40
 1039 06b8 FFF7FEFF 		bl	__aeabi_dmul
 1040              	.LVL125:
 1041 06bc FFF7FEFF 		bl	__aeabi_d2iz
 1042              	.LVL126:
 1043 06c0 714B     		ldr	r3, .L88+44
 1044 06c2 1860     		str	r0, [r3]
 190:.\Control.c   ****         Motor_v_2 = (int)(10.0 * sqrt(set_power_2));
 1045              		.loc 1 190 0
 1046 06c4 6B4C     		ldr	r4, .L88+24
 1047 06c6 2068     		ldr	r0, [r4]	@ float
 1048 06c8 FFF7FEFF 		bl	__aeabi_f2d
 1049              	.LVL127:
 1050 06cc FFF7FEFF 		bl	sqrt
 1051              	.LVL128:
 1052 06d0 0022     		movs	r2, #0
 1053 06d2 6C4B     		ldr	r3, .L88+40
 1054 06d4 FFF7FEFF 		bl	__aeabi_dmul
 1055              	.LVL129:
 1056 06d8 FFF7FEFF 		bl	__aeabi_d2iz
 1057              	.LVL130:
 1058 06dc 6B4B     		ldr	r3, .L88+48
 1059 06de 1860     		str	r0, [r3]
 191:.\Control.c   ****         Motor_v_3 = (int)(10.0 * sqrt(set_power_3));
 1060              		.loc 1 191 0
 1061 06e0 664C     		ldr	r4, .L88+32
 1062 06e2 2068     		ldr	r0, [r4]	@ float
 1063 06e4 FFF7FEFF 		bl	__aeabi_f2d
ARM GAS  C:\Users\admin\AppData\Local\Temp\ccvyHFKe.s 			page 23


 1064              	.LVL131:
 1065 06e8 FFF7FEFF 		bl	sqrt
 1066              	.LVL132:
 1067 06ec 0022     		movs	r2, #0
 1068 06ee 654B     		ldr	r3, .L88+40
 1069 06f0 FFF7FEFF 		bl	__aeabi_dmul
 1070              	.LVL133:
 1071 06f4 FFF7FEFF 		bl	__aeabi_d2iz
 1072              	.LVL134:
 1073 06f8 654B     		ldr	r3, .L88+52
 1074 06fa 1860     		str	r0, [r3]
 192:.\Control.c   ****         Motor_v_4 = (int)(10.0 * sqrt(set_power_4));
 1075              		.loc 1 192 0
 1076 06fc 574C     		ldr	r4, .L88
 1077 06fe 2068     		ldr	r0, [r4]	@ float
 1078 0700 FFF7FEFF 		bl	__aeabi_f2d
 1079              	.LVL135:
 1080 0704 FFF7FEFF 		bl	sqrt
 1081              	.LVL136:
 1082 0708 0022     		movs	r2, #0
 1083 070a 5E4B     		ldr	r3, .L88+40
 1084 070c FFF7FEFF 		bl	__aeabi_dmul
 1085              	.LVL137:
 1086 0710 FFF7FEFF 		bl	__aeabi_d2iz
 1087              	.LVL138:
 1088 0714 5F4B     		ldr	r3, .L88+56
 1089 0716 1860     		str	r0, [r3]
 1090 0718 08E0     		b	.L52
 1091              	.L51:
 193:.\Control.c   ****     }
 194:.\Control.c   ****     else
 195:.\Control.c   ****         Motor_v_1 = Motor_v_2 = Motor_v_3 = Motor_v_4 = 0;
 1092              		.loc 1 195 0
 1093 071a 0023     		movs	r3, #0
 1094 071c 5D4A     		ldr	r2, .L88+56
 1095 071e 1360     		str	r3, [r2]
 1096 0720 5B4A     		ldr	r2, .L88+52
 1097 0722 1360     		str	r3, [r2]
 1098 0724 594A     		ldr	r2, .L88+48
 1099 0726 1360     		str	r3, [r2]
 1100 0728 574A     		ldr	r2, .L88+44
 1101 072a 1360     		str	r3, [r2]
 1102              	.L52:
 196:.\Control.c   ****     
 197:.\Control.c   ****     //å‘LCDå±è¾“å‡º3ä¸ªæ§åˆ¶é‡ï¼Œä»…ä¾›è°ƒè¯•
 198:.\Control.c   ****     if(Debug_Mode) {
 1103              		.loc 1 198 0
 1104 072c 5A4B     		ldr	r3, .L88+60
 1105 072e 1B68     		ldr	r3, [r3]
 1106 0730 002B     		cmp	r3, #0
 1107 0732 3BD0     		beq	.L53
 199:.\Control.c   ****         LCD_Position(1, 0);
 1108              		.loc 1 199 0
 1109 0734 0120     		movs	r0, #1
 1110 0736 0021     		movs	r1, #0
 1111 0738 FFF7FEFF 		bl	LCD_Position
 1112              	.LVL139:
ARM GAS  C:\Users\admin\AppData\Local\Temp\ccvyHFKe.s 			page 24


 200:.\Control.c   ****         sprintf(displayBuffer, "%d", (int)Control_Roll);
 1113              		.loc 1 200 0
 1114 073c 574C     		ldr	r4, .L88+64
 1115 073e 584E     		ldr	r6, .L88+68
 1116 0740 584B     		ldr	r3, .L88+72
 1117 0742 1868     		ldr	r0, [r3]	@ float
 1118 0744 FFF7FEFF 		bl	__aeabi_f2iz
 1119              	.LVL140:
 1120 0748 0246     		mov	r2, r0
 1121 074a 2046     		mov	r0, r4
 1122 074c 3146     		mov	r1, r6
 1123 074e FFF7FEFF 		bl	sprintf
 1124              	.LVL141:
 201:.\Control.c   ****         LCD_PrintString(displayBuffer);
 1125              		.loc 1 201 0
 1126 0752 2046     		mov	r0, r4
 1127 0754 FFF7FEFF 		bl	LCD_PrintString
 1128              	.LVL142:
 202:.\Control.c   ****         LCD_PrintString("     ");
 1129              		.loc 1 202 0
 1130 0758 534D     		ldr	r5, .L88+76
 1131 075a 2846     		mov	r0, r5
 1132 075c FFF7FEFF 		bl	LCD_PrintString
 1133              	.LVL143:
 203:.\Control.c   ****         LCD_Position(1, 5);
 1134              		.loc 1 203 0
 1135 0760 0120     		movs	r0, #1
 1136 0762 0521     		movs	r1, #5
 1137 0764 FFF7FEFF 		bl	LCD_Position
 1138              	.LVL144:
 204:.\Control.c   ****         sprintf(displayBuffer, "%d", (int)Control_Pitch);
 1139              		.loc 1 204 0
 1140 0768 504B     		ldr	r3, .L88+80
 1141 076a 1868     		ldr	r0, [r3]	@ float
 1142 076c FFF7FEFF 		bl	__aeabi_f2iz
 1143              	.LVL145:
 1144 0770 0246     		mov	r2, r0
 1145 0772 2046     		mov	r0, r4
 1146 0774 3146     		mov	r1, r6
 1147 0776 FFF7FEFF 		bl	sprintf
 1148              	.LVL146:
 205:.\Control.c   ****         LCD_PrintString(displayBuffer);
 1149              		.loc 1 205 0
 1150 077a 2046     		mov	r0, r4
 1151 077c FFF7FEFF 		bl	LCD_PrintString
 1152              	.LVL147:
 206:.\Control.c   ****         LCD_PrintString("     ");
 1153              		.loc 1 206 0
 1154 0780 2846     		mov	r0, r5
 1155 0782 FFF7FEFF 		bl	LCD_PrintString
 1156              	.LVL148:
 207:.\Control.c   ****         LCD_Position(1, 10);
 1157              		.loc 1 207 0
 1158 0786 0120     		movs	r0, #1
 1159 0788 0A21     		movs	r1, #10
 1160 078a FFF7FEFF 		bl	LCD_Position
 1161              	.LVL149:
ARM GAS  C:\Users\admin\AppData\Local\Temp\ccvyHFKe.s 			page 25


 208:.\Control.c   ****         sprintf(displayBuffer, "%d", (int)Control_Yaw);
 1162              		.loc 1 208 0
 1163 078e 484B     		ldr	r3, .L88+84
 1164 0790 1868     		ldr	r0, [r3]	@ float
 1165 0792 FFF7FEFF 		bl	__aeabi_f2iz
 1166              	.LVL150:
 1167 0796 0246     		mov	r2, r0
 1168 0798 2046     		mov	r0, r4
 1169 079a 3146     		mov	r1, r6
 1170 079c FFF7FEFF 		bl	sprintf
 1171              	.LVL151:
 209:.\Control.c   ****         LCD_PrintString(displayBuffer);
 1172              		.loc 1 209 0
 1173 07a0 2046     		mov	r0, r4
 1174 07a2 FFF7FEFF 		bl	LCD_PrintString
 1175              	.LVL152:
 210:.\Control.c   ****         LCD_PrintString("     ");
 1176              		.loc 1 210 0
 1177 07a6 2846     		mov	r0, r5
 1178 07a8 FFF7FEFF 		bl	LCD_PrintString
 1179              	.LVL153:
 1180              	.L53:
 211:.\Control.c   ****     }
 212:.\Control.c   ****     
 213:.\Control.c   ****     //å‘LCDå±è¾“å‡ºè®¾å®šçš„åŠ¨åŠ›ï¼Œä»…ä¾›è°ƒè¯•
 214:.\Control.c   ****     if(Debug_Mode) {
 1181              		.loc 1 214 0
 1182 07ac 3A4B     		ldr	r3, .L88+60
 1183 07ae 1B68     		ldr	r3, [r3]
 1184 07b0 002B     		cmp	r3, #0
 1185 07b2 50D0     		beq	.L4
 215:.\Control.c   ****         LCD_Position(0, 0);
 1186              		.loc 1 215 0
 1187 07b4 0020     		movs	r0, #0
 1188 07b6 0146     		mov	r1, r0
 1189 07b8 FFF7FEFF 		bl	LCD_Position
 1190              	.LVL154:
 216:.\Control.c   ****         LCD_PrintDecUint16((int)(set_power_1 / 10.0));
 1191              		.loc 1 216 0
 1192 07bc 2B4B     		ldr	r3, .L88+16
 1193 07be 1868     		ldr	r0, [r3]	@ float
 1194 07c0 FFF7FEFF 		bl	__aeabi_f2d
 1195              	.LVL155:
 1196 07c4 0022     		movs	r2, #0
 1197 07c6 2F4B     		ldr	r3, .L88+40
 1198 07c8 FFF7FEFF 		bl	__aeabi_ddiv
 1199              	.LVL156:
 1200 07cc FFF7FEFF 		bl	__aeabi_d2iz
 1201              	.LVL157:
 1202 07d0 80B2     		uxth	r0, r0
 1203 07d2 FFF7FEFF 		bl	LCD_PrintU32Number
 1204              	.LVL158:
 217:.\Control.c   ****         LCD_PrintString("     ");
 1205              		.loc 1 217 0
 1206 07d6 344C     		ldr	r4, .L88+76
 1207 07d8 2046     		mov	r0, r4
 1208 07da FFF7FEFF 		bl	LCD_PrintString
ARM GAS  C:\Users\admin\AppData\Local\Temp\ccvyHFKe.s 			page 26


 1209              	.LVL159:
 218:.\Control.c   ****         LCD_Position(0, 4);
 1210              		.loc 1 218 0
 1211 07de 0020     		movs	r0, #0
 1212 07e0 0421     		movs	r1, #4
 1213 07e2 FFF7FEFF 		bl	LCD_Position
 1214              	.LVL160:
 219:.\Control.c   ****         LCD_PrintDecUint16((int)(set_power_2 / 10.0));
 1215              		.loc 1 219 0
 1216 07e6 234B     		ldr	r3, .L88+24
 1217 07e8 1868     		ldr	r0, [r3]	@ float
 1218 07ea FFF7FEFF 		bl	__aeabi_f2d
 1219              	.LVL161:
 1220 07ee 0022     		movs	r2, #0
 1221 07f0 244B     		ldr	r3, .L88+40
 1222 07f2 FFF7FEFF 		bl	__aeabi_ddiv
 1223              	.LVL162:
 1224 07f6 FFF7FEFF 		bl	__aeabi_d2iz
 1225              	.LVL163:
 1226 07fa 80B2     		uxth	r0, r0
 1227 07fc FFF7FEFF 		bl	LCD_PrintU32Number
 1228              	.LVL164:
 220:.\Control.c   ****         LCD_PrintString("     ");
 1229              		.loc 1 220 0
 1230 0800 2046     		mov	r0, r4
 1231 0802 FFF7FEFF 		bl	LCD_PrintString
 1232              	.LVL165:
 221:.\Control.c   ****         LCD_Position(0, 8);
 1233              		.loc 1 221 0
 1234 0806 0020     		movs	r0, #0
 1235 0808 0821     		movs	r1, #8
 1236 080a FFF7FEFF 		bl	LCD_Position
 1237              	.LVL166:
 222:.\Control.c   ****         LCD_PrintDecUint16((int)(set_power_3 / 10.0));
 1238              		.loc 1 222 0
 1239 080e 1B4B     		ldr	r3, .L88+32
 1240 0810 1868     		ldr	r0, [r3]	@ float
 1241 0812 FFF7FEFF 		bl	__aeabi_f2d
 1242              	.LVL167:
 1243 0816 0022     		movs	r2, #0
 1244 0818 1A4B     		ldr	r3, .L88+40
 1245 081a FFF7FEFF 		bl	__aeabi_ddiv
 1246              	.LVL168:
 1247 081e FFF7FEFF 		bl	__aeabi_d2iz
 1248              	.LVL169:
 1249 0822 80B2     		uxth	r0, r0
 1250 0824 FFF7FEFF 		bl	LCD_PrintU32Number
 1251              	.LVL170:
 223:.\Control.c   ****         LCD_PrintString("     ");
 1252              		.loc 1 223 0
 1253 0828 2046     		mov	r0, r4
 1254 082a FFF7FEFF 		bl	LCD_PrintString
 1255              	.LVL171:
 224:.\Control.c   ****         LCD_Position(0, 12);
 1256              		.loc 1 224 0
 1257 082e 0020     		movs	r0, #0
 1258 0830 0C21     		movs	r1, #12
ARM GAS  C:\Users\admin\AppData\Local\Temp\ccvyHFKe.s 			page 27


 1259 0832 FFF7FEFF 		bl	LCD_Position
 1260              	.LVL172:
 225:.\Control.c   ****         LCD_PrintDecUint16((int)(set_power_4 / 10.0));
 1261              		.loc 1 225 0
 1262 0836 094B     		ldr	r3, .L88
 1263 0838 1868     		ldr	r0, [r3]	@ float
 1264 083a FFF7FEFF 		bl	__aeabi_f2d
 1265              	.LVL173:
 1266 083e 0022     		movs	r2, #0
 1267 0840 104B     		ldr	r3, .L88+40
 1268 0842 FFF7FEFF 		bl	__aeabi_ddiv
 1269              	.LVL174:
 1270 0846 FFF7FEFF 		bl	__aeabi_d2iz
 1271              	.LVL175:
 1272 084a 80B2     		uxth	r0, r0
 1273 084c FFF7FEFF 		bl	LCD_PrintU32Number
 1274              	.LVL176:
 226:.\Control.c   ****         LCD_PrintString("     ");
 1275              		.loc 1 226 0
 1276 0850 2046     		mov	r0, r4
 1277 0852 FFF7FEFF 		bl	LCD_PrintString
 1278              	.LVL177:
 1279              	.L4:
 227:.\Control.c   ****     }
 228:.\Control.c   ****     
 229:.\Control.c   ****     //å‘LCDå±è¾“å‡ºè®¾å®šçš„ç”µæœºè½¬é€Ÿï¼ˆPWMï¼‰ï¼Œä»…ä¾›è°ƒè¯•
 230:.\Control.c   ****     /*if(Debug_Mode) {
 231:.\Control.c   ****         LCD_Position(1, 0);
 232:.\Control.c   ****         LCD_PrintDecUint16(Motor_v_1);
 233:.\Control.c   ****         LCD_PrintString("     ");
 234:.\Control.c   ****         LCD_Position(1, 4);
 235:.\Control.c   ****         LCD_PrintDecUint16(Motor_v_2);
 236:.\Control.c   ****         LCD_PrintString("     ");
 237:.\Control.c   ****         LCD_Position(1, 8);
 238:.\Control.c   ****         LCD_PrintDecUint16(Motor_v_3);
 239:.\Control.c   ****         LCD_PrintString("     ");
 240:.\Control.c   ****         LCD_Position(1, 12);
 241:.\Control.c   ****         LCD_PrintDecUint16(Motor_v_4);
 242:.\Control.c   ****         LCD_PrintString("     ");
 243:.\Control.c   ****     }*/
 244:.\Control.c   **** }
 1280              		.loc 1 244 0
 1281 0856 03B0     		add	sp, sp, #12
 1282              		.cfi_def_cfa_offset 36
 1283              		@ sp needed
 1284 0858 BDE8F08F 		pop	{r4, r5, r6, r7, r8, r9, r10, fp, pc}
 1285              	.L89:
 1286              		.align	2
 1287              	.L88:
 1288 085c 00000000 		.word	set_power_4
 1289 0860 00000000 		.word	.LANCHOR0
 1290 0864 00000000 		.word	last_power_1
 1291 0868 00001643 		.word	1125515264
 1292 086c 00000000 		.word	set_power_1
 1293 0870 00000000 		.word	last_power_2
 1294 0874 00000000 		.word	set_power_2
 1295 0878 00000000 		.word	last_power_3
ARM GAS  C:\Users\admin\AppData\Local\Temp\ccvyHFKe.s 			page 28


 1296 087c 00000000 		.word	set_power_3
 1297 0880 00000000 		.word	last_power_4
 1298 0884 00002440 		.word	1076101120
 1299 0888 00000000 		.word	Motor_v_1
 1300 088c 00000000 		.word	Motor_v_2
 1301 0890 00000000 		.word	Motor_v_3
 1302 0894 00000000 		.word	Motor_v_4
 1303 0898 00000000 		.word	Debug_Mode
 1304 089c 00000000 		.word	displayBuffer
 1305 08a0 00000000 		.word	.LC0
 1306 08a4 00000000 		.word	Control_Roll
 1307 08a8 04000000 		.word	.LC1
 1308 08ac 00000000 		.word	Control_Pitch
 1309 08b0 00000000 		.word	Control_Yaw
 1310              		.cfi_endproc
 1311              	.LFE64:
 1312              		.size	Control_Main, .-Control_Main
 1313              		.comm	displayBuffer,16,4
 1314              		.global	connection_lost_time
 1315              		.comm	last_power_4,4,4
 1316              		.comm	last_power_3,4,4
 1317              		.comm	last_power_2,4,4
 1318              		.comm	last_power_1,4,4
 1319              		.comm	Control_Yaw,4,4
 1320              		.comm	Control_Pitch,4,4
 1321              		.comm	Control_Roll,4,4
 1322              		.comm	int_Error_w_pitch,4,4
 1323              		.comm	int_Error_w_roll,4,4
 1324              		.comm	last_Error_w_pitch,4,4
 1325              		.comm	last_Error_w_roll,4,4
 1326              		.comm	Error_w_pitch,4,4
 1327              		.comm	Error_w_roll,4,4
 1328              		.comm	Desire_w_pitch,4,4
 1329              		.comm	Desire_w_roll,4,4
 1330              		.comm	int_Error_w_yaw,4,4
 1331              		.comm	int_Error_pitch,4,4
 1332              		.comm	int_Error_roll,4,4
 1333              		.comm	last_Error_w_yaw,4,4
 1334              		.comm	last_Error_pitch,4,4
 1335              		.comm	last_Error_roll,4,4
 1336              		.comm	Error_w_yaw,4,4
 1337              		.comm	Error_pitch,4,4
 1338              		.comm	Error_roll,4,4
 1339              		.comm	set_power_4,4,4
 1340              		.comm	set_power_3,4,4
 1341              		.comm	set_power_2,4,4
 1342              		.comm	set_power_1,4,4
 1343              		.section	.rodata.str1.4,"aMS",%progbits,1
 1344              		.align	2
 1345              	.LC0:
 1346 0000 256400   		.ascii	"%d\000"
 1347 0003 00       		.space	1
 1348              	.LC1:
 1349 0004 20202020 		.ascii	"     \000"
 1349      2000
 1350 000a 0000     		.bss
 1351              		.align	2
ARM GAS  C:\Users\admin\AppData\Local\Temp\ccvyHFKe.s 			page 29


 1352              		.set	.LANCHOR0,. + 0
 1353              		.type	connection_lost_time, %object
 1354              		.size	connection_lost_time, 4
 1355              	connection_lost_time:
 1356 0000 00000000 		.space	4
 1357              		.text
 1358              	.Letext0:
 1359              		.file 2 "d:\\program files (x86)\\cypress\\psoc creator\\3.3\\psoc creator\\import\\gnu\\arm\\4.9.
 1360              		.file 3 "d:\\program files (x86)\\cypress\\psoc creator\\3.3\\psoc creator\\import\\gnu\\arm\\4.9.
 1361              		.file 4 "Generated_Source\\PSoC5/cytypes.h"
 1362              		.file 5 "Generated_Source\\PSoC5/core_cm3.h"
 1363              		.file 6 "d:\\program files (x86)\\cypress\\psoc creator\\3.3\\psoc creator\\import\\gnu\\arm\\4.9.
 1364              		.file 7 "d:\\program files (x86)\\cypress\\psoc creator\\3.3\\psoc creator\\import\\gnu\\arm\\4.9.
 1365              		.file 8 "Generated_Source\\PSoC5/LCD.h"
 1366              		.section	.debug_info,"",%progbits
 1367              	.Ldebug_info0:
 1368 0000 6F060000 		.4byte	0x66f
 1369 0004 0400     		.2byte	0x4
 1370 0006 00000000 		.4byte	.Ldebug_abbrev0
 1371 000a 04       		.byte	0x4
 1372 000b 01       		.uleb128 0x1
 1373 000c 93030000 		.4byte	.LASF74
 1374 0010 01       		.byte	0x1
 1375 0011 57020000 		.4byte	.LASF75
 1376 0015 A4010000 		.4byte	.LASF76
 1377 0019 00000000 		.4byte	.Ldebug_ranges0+0
 1378 001d 00000000 		.4byte	0
 1379 0021 00000000 		.4byte	.Ldebug_line0
 1380 0025 02       		.uleb128 0x2
 1381 0026 01       		.byte	0x1
 1382 0027 06       		.byte	0x6
 1383 0028 63020000 		.4byte	.LASF0
 1384 002c 02       		.uleb128 0x2
 1385 002d 01       		.byte	0x1
 1386 002e 08       		.byte	0x8
 1387 002f 41020000 		.4byte	.LASF1
 1388 0033 02       		.uleb128 0x2
 1389 0034 02       		.byte	0x2
 1390 0035 05       		.byte	0x5
 1391 0036 41000000 		.4byte	.LASF2
 1392 003a 02       		.uleb128 0x2
 1393 003b 02       		.byte	0x2
 1394 003c 07       		.byte	0x7
 1395 003d D8020000 		.4byte	.LASF3
 1396 0041 03       		.uleb128 0x3
 1397 0042 89030000 		.4byte	.LASF9
 1398 0046 02       		.byte	0x2
 1399 0047 3F       		.byte	0x3f
 1400 0048 4C000000 		.4byte	0x4c
 1401 004c 02       		.uleb128 0x2
 1402 004d 04       		.byte	0x4
 1403 004e 05       		.byte	0x5
 1404 004f 03030000 		.4byte	.LASF4
 1405 0053 02       		.uleb128 0x2
 1406 0054 04       		.byte	0x4
 1407 0055 07       		.byte	0x7
 1408 0056 4F030000 		.4byte	.LASF5
ARM GAS  C:\Users\admin\AppData\Local\Temp\ccvyHFKe.s 			page 30


 1409 005a 02       		.uleb128 0x2
 1410 005b 08       		.byte	0x8
 1411 005c 05       		.byte	0x5
 1412 005d 89010000 		.4byte	.LASF6
 1413 0061 02       		.uleb128 0x2
 1414 0062 08       		.byte	0x8
 1415 0063 07       		.byte	0x7
 1416 0064 6F020000 		.4byte	.LASF7
 1417 0068 04       		.uleb128 0x4
 1418 0069 04       		.byte	0x4
 1419 006a 05       		.byte	0x5
 1420 006b 696E7400 		.ascii	"int\000"
 1421 006f 02       		.uleb128 0x2
 1422 0070 04       		.byte	0x4
 1423 0071 07       		.byte	0x7
 1424 0072 86020000 		.4byte	.LASF8
 1425 0076 03       		.uleb128 0x3
 1426 0077 0C030000 		.4byte	.LASF10
 1427 007b 03       		.byte	0x3
 1428 007c 2C       		.byte	0x2c
 1429 007d 41000000 		.4byte	0x41
 1430 0081 05       		.uleb128 0x5
 1431 0082 3E010000 		.4byte	.LASF11
 1432 0086 04       		.byte	0x4
 1433 0087 9201     		.2byte	0x192
 1434 0089 2C000000 		.4byte	0x2c
 1435 008d 05       		.uleb128 0x5
 1436 008e 04010000 		.4byte	.LASF12
 1437 0092 04       		.byte	0x4
 1438 0093 9301     		.2byte	0x193
 1439 0095 3A000000 		.4byte	0x3a
 1440 0099 05       		.uleb128 0x5
 1441 009a 48030000 		.4byte	.LASF13
 1442 009e 04       		.byte	0x4
 1443 009f 9401     		.2byte	0x194
 1444 00a1 53000000 		.4byte	0x53
 1445 00a5 02       		.uleb128 0x2
 1446 00a6 04       		.byte	0x4
 1447 00a7 04       		.byte	0x4
 1448 00a8 83010000 		.4byte	.LASF14
 1449 00ac 02       		.uleb128 0x2
 1450 00ad 08       		.byte	0x8
 1451 00ae 04       		.byte	0x4
 1452 00af 61030000 		.4byte	.LASF15
 1453 00b3 05       		.uleb128 0x5
 1454 00b4 6D000000 		.4byte	.LASF16
 1455 00b8 04       		.byte	0x4
 1456 00b9 A301     		.2byte	0x1a3
 1457 00bb BF000000 		.4byte	0xbf
 1458 00bf 02       		.uleb128 0x2
 1459 00c0 01       		.byte	0x1
 1460 00c1 08       		.byte	0x8
 1461 00c2 FE020000 		.4byte	.LASF17
 1462 00c6 02       		.uleb128 0x2
 1463 00c7 04       		.byte	0x4
 1464 00c8 07       		.byte	0x7
 1465 00c9 58000000 		.4byte	.LASF18
ARM GAS  C:\Users\admin\AppData\Local\Temp\ccvyHFKe.s 			page 31


 1466 00cd 06       		.uleb128 0x6
 1467 00ce 04       		.byte	0x4
 1468 00cf BF000000 		.4byte	0xbf
 1469 00d3 06       		.uleb128 0x6
 1470 00d4 04       		.byte	0x4
 1471 00d5 D9000000 		.4byte	0xd9
 1472 00d9 07       		.uleb128 0x7
 1473 00da BF000000 		.4byte	0xbf
 1474 00de 02       		.uleb128 0x2
 1475 00df 08       		.byte	0x8
 1476 00e0 04       		.byte	0x4
 1477 00e1 24020000 		.4byte	.LASF19
 1478 00e5 08       		.uleb128 0x8
 1479 00e6 24010000 		.4byte	.LASF77
 1480 00ea 01       		.byte	0x1
 1481 00eb 43       		.byte	0x43
 1482 00ec 00000000 		.4byte	.LFB63
 1483 00f0 C4000000 		.4byte	.LFE63-.LFB63
 1484 00f4 01       		.uleb128 0x1
 1485 00f5 9C       		.byte	0x9c
 1486 00f6 09       		.uleb128 0x9
 1487 00f7 0B010000 		.4byte	.LASF78
 1488 00fb 01       		.byte	0x1
 1489 00fc 4F       		.byte	0x4f
 1490 00fd 00000000 		.4byte	.LFB64
 1491 0101 B4080000 		.4byte	.LFE64-.LFB64
 1492 0105 01       		.uleb128 0x1
 1493 0106 9C       		.byte	0x9c
 1494 0107 0E030000 		.4byte	0x30e
 1495 010b 0A       		.uleb128 0xa
 1496 010c B4060000 		.4byte	.LVL124
 1497 0110 03060000 		.4byte	0x603
 1498 0114 0A       		.uleb128 0xa
 1499 0115 D0060000 		.4byte	.LVL128
 1500 0119 03060000 		.4byte	0x603
 1501 011d 0A       		.uleb128 0xa
 1502 011e EC060000 		.4byte	.LVL132
 1503 0122 03060000 		.4byte	0x603
 1504 0126 0A       		.uleb128 0xa
 1505 0127 08070000 		.4byte	.LVL136
 1506 012b 03060000 		.4byte	0x603
 1507 012f 0B       		.uleb128 0xb
 1508 0130 3C070000 		.4byte	.LVL139
 1509 0134 18060000 		.4byte	0x618
 1510 0138 47010000 		.4byte	0x147
 1511 013c 0C       		.uleb128 0xc
 1512 013d 01       		.uleb128 0x1
 1513 013e 51       		.byte	0x51
 1514 013f 01       		.uleb128 0x1
 1515 0140 30       		.byte	0x30
 1516 0141 0C       		.uleb128 0xc
 1517 0142 01       		.uleb128 0x1
 1518 0143 50       		.byte	0x50
 1519 0144 01       		.uleb128 0x1
 1520 0145 31       		.byte	0x31
 1521 0146 00       		.byte	0
 1522 0147 0B       		.uleb128 0xb
ARM GAS  C:\Users\admin\AppData\Local\Temp\ccvyHFKe.s 			page 32


 1523 0148 52070000 		.4byte	.LVL141
 1524 014c 2E060000 		.4byte	0x62e
 1525 0150 61010000 		.4byte	0x161
 1526 0154 0C       		.uleb128 0xc
 1527 0155 01       		.uleb128 0x1
 1528 0156 51       		.byte	0x51
 1529 0157 02       		.uleb128 0x2
 1530 0158 76       		.byte	0x76
 1531 0159 00       		.sleb128 0
 1532 015a 0C       		.uleb128 0xc
 1533 015b 01       		.uleb128 0x1
 1534 015c 50       		.byte	0x50
 1535 015d 02       		.uleb128 0x2
 1536 015e 74       		.byte	0x74
 1537 015f 00       		.sleb128 0
 1538 0160 00       		.byte	0
 1539 0161 0B       		.uleb128 0xb
 1540 0162 58070000 		.4byte	.LVL142
 1541 0166 49060000 		.4byte	0x649
 1542 016a 75010000 		.4byte	0x175
 1543 016e 0C       		.uleb128 0xc
 1544 016f 01       		.uleb128 0x1
 1545 0170 50       		.byte	0x50
 1546 0171 02       		.uleb128 0x2
 1547 0172 74       		.byte	0x74
 1548 0173 00       		.sleb128 0
 1549 0174 00       		.byte	0
 1550 0175 0B       		.uleb128 0xb
 1551 0176 60070000 		.4byte	.LVL143
 1552 017a 49060000 		.4byte	0x649
 1553 017e 89010000 		.4byte	0x189
 1554 0182 0C       		.uleb128 0xc
 1555 0183 01       		.uleb128 0x1
 1556 0184 50       		.byte	0x50
 1557 0185 02       		.uleb128 0x2
 1558 0186 75       		.byte	0x75
 1559 0187 00       		.sleb128 0
 1560 0188 00       		.byte	0
 1561 0189 0B       		.uleb128 0xb
 1562 018a 68070000 		.4byte	.LVL144
 1563 018e 18060000 		.4byte	0x618
 1564 0192 A1010000 		.4byte	0x1a1
 1565 0196 0C       		.uleb128 0xc
 1566 0197 01       		.uleb128 0x1
 1567 0198 51       		.byte	0x51
 1568 0199 01       		.uleb128 0x1
 1569 019a 35       		.byte	0x35
 1570 019b 0C       		.uleb128 0xc
 1571 019c 01       		.uleb128 0x1
 1572 019d 50       		.byte	0x50
 1573 019e 01       		.uleb128 0x1
 1574 019f 31       		.byte	0x31
 1575 01a0 00       		.byte	0
 1576 01a1 0B       		.uleb128 0xb
 1577 01a2 7A070000 		.4byte	.LVL146
 1578 01a6 2E060000 		.4byte	0x62e
 1579 01aa BB010000 		.4byte	0x1bb
ARM GAS  C:\Users\admin\AppData\Local\Temp\ccvyHFKe.s 			page 33


 1580 01ae 0C       		.uleb128 0xc
 1581 01af 01       		.uleb128 0x1
 1582 01b0 51       		.byte	0x51
 1583 01b1 02       		.uleb128 0x2
 1584 01b2 76       		.byte	0x76
 1585 01b3 00       		.sleb128 0
 1586 01b4 0C       		.uleb128 0xc
 1587 01b5 01       		.uleb128 0x1
 1588 01b6 50       		.byte	0x50
 1589 01b7 02       		.uleb128 0x2
 1590 01b8 74       		.byte	0x74
 1591 01b9 00       		.sleb128 0
 1592 01ba 00       		.byte	0
 1593 01bb 0B       		.uleb128 0xb
 1594 01bc 80070000 		.4byte	.LVL147
 1595 01c0 49060000 		.4byte	0x649
 1596 01c4 CF010000 		.4byte	0x1cf
 1597 01c8 0C       		.uleb128 0xc
 1598 01c9 01       		.uleb128 0x1
 1599 01ca 50       		.byte	0x50
 1600 01cb 02       		.uleb128 0x2
 1601 01cc 74       		.byte	0x74
 1602 01cd 00       		.sleb128 0
 1603 01ce 00       		.byte	0
 1604 01cf 0B       		.uleb128 0xb
 1605 01d0 86070000 		.4byte	.LVL148
 1606 01d4 49060000 		.4byte	0x649
 1607 01d8 E3010000 		.4byte	0x1e3
 1608 01dc 0C       		.uleb128 0xc
 1609 01dd 01       		.uleb128 0x1
 1610 01de 50       		.byte	0x50
 1611 01df 02       		.uleb128 0x2
 1612 01e0 75       		.byte	0x75
 1613 01e1 00       		.sleb128 0
 1614 01e2 00       		.byte	0
 1615 01e3 0B       		.uleb128 0xb
 1616 01e4 8E070000 		.4byte	.LVL149
 1617 01e8 18060000 		.4byte	0x618
 1618 01ec FB010000 		.4byte	0x1fb
 1619 01f0 0C       		.uleb128 0xc
 1620 01f1 01       		.uleb128 0x1
 1621 01f2 51       		.byte	0x51
 1622 01f3 01       		.uleb128 0x1
 1623 01f4 3A       		.byte	0x3a
 1624 01f5 0C       		.uleb128 0xc
 1625 01f6 01       		.uleb128 0x1
 1626 01f7 50       		.byte	0x50
 1627 01f8 01       		.uleb128 0x1
 1628 01f9 31       		.byte	0x31
 1629 01fa 00       		.byte	0
 1630 01fb 0B       		.uleb128 0xb
 1631 01fc A0070000 		.4byte	.LVL151
 1632 0200 2E060000 		.4byte	0x62e
 1633 0204 15020000 		.4byte	0x215
 1634 0208 0C       		.uleb128 0xc
 1635 0209 01       		.uleb128 0x1
 1636 020a 51       		.byte	0x51
ARM GAS  C:\Users\admin\AppData\Local\Temp\ccvyHFKe.s 			page 34


 1637 020b 02       		.uleb128 0x2
 1638 020c 76       		.byte	0x76
 1639 020d 00       		.sleb128 0
 1640 020e 0C       		.uleb128 0xc
 1641 020f 01       		.uleb128 0x1
 1642 0210 50       		.byte	0x50
 1643 0211 02       		.uleb128 0x2
 1644 0212 74       		.byte	0x74
 1645 0213 00       		.sleb128 0
 1646 0214 00       		.byte	0
 1647 0215 0B       		.uleb128 0xb
 1648 0216 A6070000 		.4byte	.LVL152
 1649 021a 49060000 		.4byte	0x649
 1650 021e 29020000 		.4byte	0x229
 1651 0222 0C       		.uleb128 0xc
 1652 0223 01       		.uleb128 0x1
 1653 0224 50       		.byte	0x50
 1654 0225 02       		.uleb128 0x2
 1655 0226 74       		.byte	0x74
 1656 0227 00       		.sleb128 0
 1657 0228 00       		.byte	0
 1658 0229 0B       		.uleb128 0xb
 1659 022a AC070000 		.4byte	.LVL153
 1660 022e 49060000 		.4byte	0x649
 1661 0232 3D020000 		.4byte	0x23d
 1662 0236 0C       		.uleb128 0xc
 1663 0237 01       		.uleb128 0x1
 1664 0238 50       		.byte	0x50
 1665 0239 02       		.uleb128 0x2
 1666 023a 75       		.byte	0x75
 1667 023b 00       		.sleb128 0
 1668 023c 00       		.byte	0
 1669 023d 0B       		.uleb128 0xb
 1670 023e BC070000 		.4byte	.LVL154
 1671 0242 18060000 		.4byte	0x618
 1672 0246 55020000 		.4byte	0x255
 1673 024a 0C       		.uleb128 0xc
 1674 024b 01       		.uleb128 0x1
 1675 024c 51       		.byte	0x51
 1676 024d 01       		.uleb128 0x1
 1677 024e 30       		.byte	0x30
 1678 024f 0C       		.uleb128 0xc
 1679 0250 01       		.uleb128 0x1
 1680 0251 50       		.byte	0x50
 1681 0252 01       		.uleb128 0x1
 1682 0253 30       		.byte	0x30
 1683 0254 00       		.byte	0
 1684 0255 0A       		.uleb128 0xa
 1685 0256 D6070000 		.4byte	.LVL158
 1686 025a 65060000 		.4byte	0x665
 1687 025e 0B       		.uleb128 0xb
 1688 025f DE070000 		.4byte	.LVL159
 1689 0263 49060000 		.4byte	0x649
 1690 0267 72020000 		.4byte	0x272
 1691 026b 0C       		.uleb128 0xc
 1692 026c 01       		.uleb128 0x1
 1693 026d 50       		.byte	0x50
ARM GAS  C:\Users\admin\AppData\Local\Temp\ccvyHFKe.s 			page 35


 1694 026e 02       		.uleb128 0x2
 1695 026f 74       		.byte	0x74
 1696 0270 00       		.sleb128 0
 1697 0271 00       		.byte	0
 1698 0272 0B       		.uleb128 0xb
 1699 0273 E6070000 		.4byte	.LVL160
 1700 0277 18060000 		.4byte	0x618
 1701 027b 8A020000 		.4byte	0x28a
 1702 027f 0C       		.uleb128 0xc
 1703 0280 01       		.uleb128 0x1
 1704 0281 51       		.byte	0x51
 1705 0282 01       		.uleb128 0x1
 1706 0283 34       		.byte	0x34
 1707 0284 0C       		.uleb128 0xc
 1708 0285 01       		.uleb128 0x1
 1709 0286 50       		.byte	0x50
 1710 0287 01       		.uleb128 0x1
 1711 0288 30       		.byte	0x30
 1712 0289 00       		.byte	0
 1713 028a 0A       		.uleb128 0xa
 1714 028b 00080000 		.4byte	.LVL164
 1715 028f 65060000 		.4byte	0x665
 1716 0293 0B       		.uleb128 0xb
 1717 0294 06080000 		.4byte	.LVL165
 1718 0298 49060000 		.4byte	0x649
 1719 029c A7020000 		.4byte	0x2a7
 1720 02a0 0C       		.uleb128 0xc
 1721 02a1 01       		.uleb128 0x1
 1722 02a2 50       		.byte	0x50
 1723 02a3 02       		.uleb128 0x2
 1724 02a4 74       		.byte	0x74
 1725 02a5 00       		.sleb128 0
 1726 02a6 00       		.byte	0
 1727 02a7 0B       		.uleb128 0xb
 1728 02a8 0E080000 		.4byte	.LVL166
 1729 02ac 18060000 		.4byte	0x618
 1730 02b0 BF020000 		.4byte	0x2bf
 1731 02b4 0C       		.uleb128 0xc
 1732 02b5 01       		.uleb128 0x1
 1733 02b6 51       		.byte	0x51
 1734 02b7 01       		.uleb128 0x1
 1735 02b8 38       		.byte	0x38
 1736 02b9 0C       		.uleb128 0xc
 1737 02ba 01       		.uleb128 0x1
 1738 02bb 50       		.byte	0x50
 1739 02bc 01       		.uleb128 0x1
 1740 02bd 30       		.byte	0x30
 1741 02be 00       		.byte	0
 1742 02bf 0A       		.uleb128 0xa
 1743 02c0 28080000 		.4byte	.LVL170
 1744 02c4 65060000 		.4byte	0x665
 1745 02c8 0B       		.uleb128 0xb
 1746 02c9 2E080000 		.4byte	.LVL171
 1747 02cd 49060000 		.4byte	0x649
 1748 02d1 DC020000 		.4byte	0x2dc
 1749 02d5 0C       		.uleb128 0xc
 1750 02d6 01       		.uleb128 0x1
ARM GAS  C:\Users\admin\AppData\Local\Temp\ccvyHFKe.s 			page 36


 1751 02d7 50       		.byte	0x50
 1752 02d8 02       		.uleb128 0x2
 1753 02d9 74       		.byte	0x74
 1754 02da 00       		.sleb128 0
 1755 02db 00       		.byte	0
 1756 02dc 0B       		.uleb128 0xb
 1757 02dd 36080000 		.4byte	.LVL172
 1758 02e1 18060000 		.4byte	0x618
 1759 02e5 F4020000 		.4byte	0x2f4
 1760 02e9 0C       		.uleb128 0xc
 1761 02ea 01       		.uleb128 0x1
 1762 02eb 51       		.byte	0x51
 1763 02ec 01       		.uleb128 0x1
 1764 02ed 3C       		.byte	0x3c
 1765 02ee 0C       		.uleb128 0xc
 1766 02ef 01       		.uleb128 0x1
 1767 02f0 50       		.byte	0x50
 1768 02f1 01       		.uleb128 0x1
 1769 02f2 30       		.byte	0x30
 1770 02f3 00       		.byte	0
 1771 02f4 0A       		.uleb128 0xa
 1772 02f5 50080000 		.4byte	.LVL176
 1773 02f9 65060000 		.4byte	0x665
 1774 02fd 0D       		.uleb128 0xd
 1775 02fe 56080000 		.4byte	.LVL177
 1776 0302 49060000 		.4byte	0x649
 1777 0306 0C       		.uleb128 0xc
 1778 0307 01       		.uleb128 0x1
 1779 0308 50       		.byte	0x50
 1780 0309 02       		.uleb128 0x2
 1781 030a 74       		.byte	0x74
 1782 030b 00       		.sleb128 0
 1783 030c 00       		.byte	0
 1784 030d 00       		.byte	0
 1785 030e 0E       		.uleb128 0xe
 1786 030f 68030000 		.4byte	.LASF20
 1787 0313 05       		.byte	0x5
 1788 0314 9606     		.2byte	0x696
 1789 0316 1A030000 		.4byte	0x31a
 1790 031a 0F       		.uleb128 0xf
 1791 031b 76000000 		.4byte	0x76
 1792 031f 10       		.uleb128 0x10
 1793 0320 18010000 		.4byte	.LASF21
 1794 0324 01       		.byte	0x1
 1795 0325 06       		.byte	0x6
 1796 0326 68000000 		.4byte	0x68
 1797 032a 10       		.uleb128 0x10
 1798 032b 1E000000 		.4byte	.LASF22
 1799 032f 01       		.byte	0x1
 1800 0330 06       		.byte	0x6
 1801 0331 68000000 		.4byte	0x68
 1802 0335 10       		.uleb128 0x10
 1803 0336 1B020000 		.4byte	.LASF23
 1804 033a 01       		.byte	0x1
 1805 033b 06       		.byte	0x6
 1806 033c 68000000 		.4byte	0x68
 1807 0340 10       		.uleb128 0x10
ARM GAS  C:\Users\admin\AppData\Local\Temp\ccvyHFKe.s 			page 37


 1808 0341 9C010000 		.4byte	.LASF24
 1809 0345 01       		.byte	0x1
 1810 0346 06       		.byte	0x6
 1811 0347 68000000 		.4byte	0x68
 1812 034b 10       		.uleb128 0x10
 1813 034c A3020000 		.4byte	.LASF25
 1814 0350 01       		.byte	0x1
 1815 0351 07       		.byte	0x7
 1816 0352 A5000000 		.4byte	0xa5
 1817 0356 10       		.uleb128 0x10
 1818 0357 08020000 		.4byte	.LASF26
 1819 035b 01       		.byte	0x1
 1820 035c 07       		.byte	0x7
 1821 035d A5000000 		.4byte	0xa5
 1822 0361 10       		.uleb128 0x10
 1823 0362 44010000 		.4byte	.LASF27
 1824 0366 01       		.byte	0x1
 1825 0367 08       		.byte	0x8
 1826 0368 A5000000 		.4byte	0xa5
 1827 036c 10       		.uleb128 0x10
 1828 036d 91040000 		.4byte	.LASF28
 1829 0371 01       		.byte	0x1
 1830 0372 08       		.byte	0x8
 1831 0373 A5000000 		.4byte	0xa5
 1832 0377 10       		.uleb128 0x10
 1833 0378 50040000 		.4byte	.LASF29
 1834 037c 01       		.byte	0x1
 1835 037d 08       		.byte	0x8
 1836 037e A5000000 		.4byte	0xa5
 1837 0382 10       		.uleb128 0x10
 1838 0383 00000000 		.4byte	.LASF30
 1839 0387 01       		.byte	0x1
 1840 0388 0B       		.byte	0xb
 1841 0389 A5000000 		.4byte	0xa5
 1842 038d 10       		.uleb128 0x10
 1843 038e 07000000 		.4byte	.LASF31
 1844 0392 01       		.byte	0x1
 1845 0393 0B       		.byte	0xb
 1846 0394 A5000000 		.4byte	0xa5
 1847 0398 10       		.uleb128 0x10
 1848 0399 01020000 		.4byte	.LASF32
 1849 039d 01       		.byte	0x1
 1850 039e 0B       		.byte	0xb
 1851 039f A5000000 		.4byte	0xa5
 1852 03a3 10       		.uleb128 0x10
 1853 03a4 97010000 		.4byte	.LASF33
 1854 03a8 01       		.byte	0x1
 1855 03a9 0D       		.byte	0xd
 1856 03aa A5000000 		.4byte	0xa5
 1857 03ae 10       		.uleb128 0x10
 1858 03af 42030000 		.4byte	.LASF34
 1859 03b3 01       		.byte	0x1
 1860 03b4 0D       		.byte	0xd
 1861 03b5 A5000000 		.4byte	0xa5
 1862 03b9 11       		.uleb128 0x11
 1863 03ba A3000000 		.4byte	.LASF35
 1864 03be 01       		.byte	0x1
ARM GAS  C:\Users\admin\AppData\Local\Temp\ccvyHFKe.s 			page 38


 1865 03bf 11       		.byte	0x11
 1866 03c0 A5000000 		.4byte	0xa5
 1867 03c4 05       		.uleb128 0x5
 1868 03c5 03       		.byte	0x3
 1869 03c6 00000000 		.4byte	set_power_1
 1870 03ca 11       		.uleb128 0x11
 1871 03cb AF000000 		.4byte	.LASF36
 1872 03cf 01       		.byte	0x1
 1873 03d0 11       		.byte	0x11
 1874 03d1 A5000000 		.4byte	0xa5
 1875 03d5 05       		.uleb128 0x5
 1876 03d6 03       		.byte	0x3
 1877 03d7 00000000 		.4byte	set_power_2
 1878 03db 11       		.uleb128 0x11
 1879 03dc BB000000 		.4byte	.LASF37
 1880 03e0 01       		.byte	0x1
 1881 03e1 11       		.byte	0x11
 1882 03e2 A5000000 		.4byte	0xa5
 1883 03e6 05       		.uleb128 0x5
 1884 03e7 03       		.byte	0x3
 1885 03e8 00000000 		.4byte	set_power_3
 1886 03ec 11       		.uleb128 0x11
 1887 03ed C7000000 		.4byte	.LASF38
 1888 03f1 01       		.byte	0x1
 1889 03f2 11       		.byte	0x11
 1890 03f3 A5000000 		.4byte	0xa5
 1891 03f7 05       		.uleb128 0x5
 1892 03f8 03       		.byte	0x3
 1893 03f9 00000000 		.4byte	set_power_4
 1894 03fd 11       		.uleb128 0x11
 1895 03fe F6010000 		.4byte	.LASF39
 1896 0402 01       		.byte	0x1
 1897 0403 12       		.byte	0x12
 1898 0404 A5000000 		.4byte	0xa5
 1899 0408 05       		.uleb128 0x5
 1900 0409 03       		.byte	0x3
 1901 040a 00000000 		.4byte	Error_roll
 1902 040e 11       		.uleb128 0x11
 1903 040f 61000000 		.4byte	.LASF40
 1904 0413 01       		.byte	0x1
 1905 0414 12       		.byte	0x12
 1906 0415 A5000000 		.4byte	0xa5
 1907 0419 05       		.uleb128 0x5
 1908 041a 03       		.byte	0x3
 1909 041b 00000000 		.4byte	Error_pitch
 1910 041f 11       		.uleb128 0x11
 1911 0420 97000000 		.4byte	.LASF41
 1912 0424 01       		.byte	0x1
 1913 0425 12       		.byte	0x12
 1914 0426 A5000000 		.4byte	0xa5
 1915 042a 05       		.uleb128 0x5
 1916 042b 03       		.byte	0x3
 1917 042c 00000000 		.4byte	Error_w_yaw
 1918 0430 11       		.uleb128 0x11
 1919 0431 33040000 		.4byte	.LASF42
 1920 0435 01       		.byte	0x1
 1921 0436 13       		.byte	0x13
ARM GAS  C:\Users\admin\AppData\Local\Temp\ccvyHFKe.s 			page 39


 1922 0437 A5000000 		.4byte	0xa5
 1923 043b 05       		.uleb128 0x5
 1924 043c 03       		.byte	0x3
 1925 043d 00000000 		.4byte	last_Error_roll
 1926 0441 11       		.uleb128 0x11
 1927 0442 30020000 		.4byte	.LASF43
 1928 0446 01       		.byte	0x1
 1929 0447 13       		.byte	0x13
 1930 0448 A5000000 		.4byte	0xa5
 1931 044c 05       		.uleb128 0x5
 1932 044d 03       		.byte	0x3
 1933 044e 00000000 		.4byte	last_Error_pitch
 1934 0452 11       		.uleb128 0x11
 1935 0453 65010000 		.4byte	.LASF44
 1936 0457 01       		.byte	0x1
 1937 0458 13       		.byte	0x13
 1938 0459 A5000000 		.4byte	0xa5
 1939 045d 05       		.uleb128 0x5
 1940 045e 03       		.byte	0x3
 1941 045f 00000000 		.4byte	last_Error_w_yaw
 1942 0463 11       		.uleb128 0x11
 1943 0464 73000000 		.4byte	.LASF45
 1944 0468 01       		.byte	0x1
 1945 0469 14       		.byte	0x14
 1946 046a A5000000 		.4byte	0xa5
 1947 046e 05       		.uleb128 0x5
 1948 046f 03       		.byte	0x3
 1949 0470 00000000 		.4byte	int_Error_roll
 1950 0474 11       		.uleb128 0x11
 1951 0475 14030000 		.4byte	.LASF46
 1952 0479 01       		.byte	0x1
 1953 047a 14       		.byte	0x14
 1954 047b A5000000 		.4byte	0xa5
 1955 047f 05       		.uleb128 0x5
 1956 0480 03       		.byte	0x3
 1957 0481 00000000 		.4byte	int_Error_pitch
 1958 0485 11       		.uleb128 0x11
 1959 0486 0E000000 		.4byte	.LASF47
 1960 048a 01       		.byte	0x1
 1961 048b 14       		.byte	0x14
 1962 048c A5000000 		.4byte	0xa5
 1963 0490 05       		.uleb128 0x5
 1964 0491 03       		.byte	0x3
 1965 0492 00000000 		.4byte	int_Error_w_yaw
 1966 0496 11       		.uleb128 0x11
 1967 0497 33000000 		.4byte	.LASF48
 1968 049b 01       		.byte	0x1
 1969 049c 16       		.byte	0x16
 1970 049d A5000000 		.4byte	0xa5
 1971 04a1 05       		.uleb128 0x5
 1972 04a2 03       		.byte	0x3
 1973 04a3 00000000 		.4byte	Desire_w_roll
 1974 04a7 11       		.uleb128 0x11
 1975 04a8 7A030000 		.4byte	.LASF49
 1976 04ac 01       		.byte	0x1
 1977 04ad 16       		.byte	0x16
 1978 04ae A5000000 		.4byte	0xa5
ARM GAS  C:\Users\admin\AppData\Local\Temp\ccvyHFKe.s 			page 40


 1979 04b2 05       		.uleb128 0x5
 1980 04b3 03       		.byte	0x3
 1981 04b4 00000000 		.4byte	Desire_w_pitch
 1982 04b8 11       		.uleb128 0x11
 1983 04b9 4B000000 		.4byte	.LASF50
 1984 04bd 01       		.byte	0x1
 1985 04be 17       		.byte	0x17
 1986 04bf A5000000 		.4byte	0xa5
 1987 04c3 05       		.uleb128 0x5
 1988 04c4 03       		.byte	0x3
 1989 04c5 00000000 		.4byte	Error_w_roll
 1990 04c9 11       		.uleb128 0x11
 1991 04ca B5020000 		.4byte	.LASF51
 1992 04ce 01       		.byte	0x1
 1993 04cf 17       		.byte	0x17
 1994 04d0 A5000000 		.4byte	0xa5
 1995 04d4 05       		.uleb128 0x5
 1996 04d5 03       		.byte	0x3
 1997 04d6 00000000 		.4byte	Error_w_pitch
 1998 04da 11       		.uleb128 0x11
 1999 04db 24030000 		.4byte	.LASF52
 2000 04df 01       		.byte	0x1
 2001 04e0 18       		.byte	0x18
 2002 04e1 A5000000 		.4byte	0xa5
 2003 04e5 05       		.uleb128 0x5
 2004 04e6 03       		.byte	0x3
 2005 04e7 00000000 		.4byte	last_Error_w_roll
 2006 04eb 11       		.uleb128 0x11
 2007 04ec D3000000 		.4byte	.LASF53
 2008 04f0 01       		.byte	0x1
 2009 04f1 18       		.byte	0x18
 2010 04f2 A5000000 		.4byte	0xa5
 2011 04f6 05       		.uleb128 0x5
 2012 04f7 03       		.byte	0x3
 2013 04f8 00000000 		.4byte	last_Error_w_pitch
 2014 04fc 11       		.uleb128 0x11
 2015 04fd E5010000 		.4byte	.LASF54
 2016 0501 01       		.byte	0x1
 2017 0502 19       		.byte	0x19
 2018 0503 A5000000 		.4byte	0xa5
 2019 0507 05       		.uleb128 0x5
 2020 0508 03       		.byte	0x3
 2021 0509 00000000 		.4byte	int_Error_w_roll
 2022 050d 11       		.uleb128 0x11
 2023 050e 21040000 		.4byte	.LASF55
 2024 0512 01       		.byte	0x1
 2025 0513 19       		.byte	0x19
 2026 0514 A5000000 		.4byte	0xa5
 2027 0518 05       		.uleb128 0x5
 2028 0519 03       		.byte	0x3
 2029 051a 00000000 		.4byte	int_Error_w_pitch
 2030 051e 11       		.uleb128 0x11
 2031 051f 76010000 		.4byte	.LASF56
 2032 0523 01       		.byte	0x1
 2033 0524 1A       		.byte	0x1a
 2034 0525 A5000000 		.4byte	0xa5
 2035 0529 05       		.uleb128 0x5
ARM GAS  C:\Users\admin\AppData\Local\Temp\ccvyHFKe.s 			page 41


 2036 052a 03       		.byte	0x3
 2037 052b 00000000 		.4byte	Control_Roll
 2038 052f 11       		.uleb128 0x11
 2039 0530 25000000 		.4byte	.LASF57
 2040 0534 01       		.byte	0x1
 2041 0535 1A       		.byte	0x1a
 2042 0536 A5000000 		.4byte	0xa5
 2043 053a 05       		.uleb128 0x5
 2044 053b 03       		.byte	0x3
 2045 053c 00000000 		.4byte	Control_Pitch
 2046 0540 11       		.uleb128 0x11
 2047 0541 36030000 		.4byte	.LASF58
 2048 0545 01       		.byte	0x1
 2049 0546 1A       		.byte	0x1a
 2050 0547 A5000000 		.4byte	0xa5
 2051 054b 05       		.uleb128 0x5
 2052 054c 03       		.byte	0x3
 2053 054d 00000000 		.4byte	Control_Yaw
 2054 0551 11       		.uleb128 0x11
 2055 0552 5D040000 		.4byte	.LASF59
 2056 0556 01       		.byte	0x1
 2057 0557 1C       		.byte	0x1c
 2058 0558 A5000000 		.4byte	0xa5
 2059 055c 05       		.uleb128 0x5
 2060 055d 03       		.byte	0x3
 2061 055e 00000000 		.4byte	last_power_1
 2062 0562 11       		.uleb128 0x11
 2063 0563 6A040000 		.4byte	.LASF60
 2064 0567 01       		.byte	0x1
 2065 0568 1C       		.byte	0x1c
 2066 0569 A5000000 		.4byte	0xa5
 2067 056d 05       		.uleb128 0x5
 2068 056e 03       		.byte	0x3
 2069 056f 00000000 		.4byte	last_power_2
 2070 0573 11       		.uleb128 0x11
 2071 0574 77040000 		.4byte	.LASF61
 2072 0578 01       		.byte	0x1
 2073 0579 1C       		.byte	0x1c
 2074 057a A5000000 		.4byte	0xa5
 2075 057e 05       		.uleb128 0x5
 2076 057f 03       		.byte	0x3
 2077 0580 00000000 		.4byte	last_power_3
 2078 0584 11       		.uleb128 0x11
 2079 0585 84040000 		.4byte	.LASF62
 2080 0589 01       		.byte	0x1
 2081 058a 1C       		.byte	0x1c
 2082 058b A5000000 		.4byte	0xa5
 2083 058f 05       		.uleb128 0x5
 2084 0590 03       		.byte	0x3
 2085 0591 00000000 		.4byte	last_power_4
 2086 0595 10       		.uleb128 0x10
 2087 0596 E6000000 		.4byte	.LASF63
 2088 059a 01       		.byte	0x1
 2089 059b 3E       		.byte	0x3e
 2090 059c 68000000 		.4byte	0x68
 2091 05a0 10       		.uleb128 0x10
 2092 05a1 F0000000 		.4byte	.LASF64
ARM GAS  C:\Users\admin\AppData\Local\Temp\ccvyHFKe.s 			page 42


 2093 05a5 01       		.byte	0x1
 2094 05a6 3E       		.byte	0x3e
 2095 05a7 68000000 		.4byte	0x68
 2096 05ab 10       		.uleb128 0x10
 2097 05ac FA000000 		.4byte	.LASF65
 2098 05b0 01       		.byte	0x1
 2099 05b1 3E       		.byte	0x3e
 2100 05b2 68000000 		.4byte	0x68
 2101 05b6 10       		.uleb128 0x10
 2102 05b7 8D000000 		.4byte	.LASF66
 2103 05bb 01       		.byte	0x1
 2104 05bc 3E       		.byte	0x3e
 2105 05bd 68000000 		.4byte	0x68
 2106 05c1 11       		.uleb128 0x11
 2107 05c2 C3020000 		.4byte	.LASF67
 2108 05c6 01       		.byte	0x1
 2109 05c7 40       		.byte	0x40
 2110 05c8 D2050000 		.4byte	0x5d2
 2111 05cc 05       		.uleb128 0x5
 2112 05cd 03       		.byte	0x3
 2113 05ce 00000000 		.4byte	connection_lost_time
 2114 05d2 0F       		.uleb128 0xf
 2115 05d3 68000000 		.4byte	0x68
 2116 05d7 10       		.uleb128 0x10
 2117 05d8 82000000 		.4byte	.LASF68
 2118 05dc 01       		.byte	0x1
 2119 05dd 4C       		.byte	0x4c
 2120 05de 68000000 		.4byte	0x68
 2121 05e2 12       		.uleb128 0x12
 2122 05e3 BF000000 		.4byte	0xbf
 2123 05e7 F2050000 		.4byte	0x5f2
 2124 05eb 13       		.uleb128 0x13
 2125 05ec C6000000 		.4byte	0xc6
 2126 05f0 0F       		.byte	0xf
 2127 05f1 00       		.byte	0
 2128 05f2 11       		.uleb128 0x11
 2129 05f3 57010000 		.4byte	.LASF69
 2130 05f7 01       		.byte	0x1
 2131 05f8 4D       		.byte	0x4d
 2132 05f9 E2050000 		.4byte	0x5e2
 2133 05fd 05       		.uleb128 0x5
 2134 05fe 03       		.byte	0x3
 2135 05ff 00000000 		.4byte	displayBuffer
 2136 0603 14       		.uleb128 0x14
 2137 0604 75030000 		.4byte	.LASF70
 2138 0608 06       		.byte	0x6
 2139 0609 86       		.byte	0x86
 2140 060a AC000000 		.4byte	0xac
 2141 060e 18060000 		.4byte	0x618
 2142 0612 15       		.uleb128 0x15
 2143 0613 AC000000 		.4byte	0xac
 2144 0617 00       		.byte	0
 2145 0618 16       		.uleb128 0x16
 2146 0619 43040000 		.4byte	.LASF72
 2147 061d 08       		.byte	0x8
 2148 061e 3D       		.byte	0x3d
 2149 061f 2E060000 		.4byte	0x62e
ARM GAS  C:\Users\admin\AppData\Local\Temp\ccvyHFKe.s 			page 43


 2150 0623 15       		.uleb128 0x15
 2151 0624 81000000 		.4byte	0x81
 2152 0628 15       		.uleb128 0x15
 2153 0629 81000000 		.4byte	0x81
 2154 062d 00       		.byte	0
 2155 062e 14       		.uleb128 0x14
 2156 062f 4F020000 		.4byte	.LASF71
 2157 0633 07       		.byte	0x7
 2158 0634 DE       		.byte	0xde
 2159 0635 68000000 		.4byte	0x68
 2160 0639 49060000 		.4byte	0x649
 2161 063d 15       		.uleb128 0x15
 2162 063e CD000000 		.4byte	0xcd
 2163 0642 15       		.uleb128 0x15
 2164 0643 D3000000 		.4byte	0xd3
 2165 0647 17       		.uleb128 0x17
 2166 0648 00       		.byte	0
 2167 0649 16       		.uleb128 0x16
 2168 064a 93020000 		.4byte	.LASF73
 2169 064e 08       		.byte	0x8
 2170 064f 3C       		.byte	0x3c
 2171 0650 5A060000 		.4byte	0x65a
 2172 0654 15       		.uleb128 0x15
 2173 0655 5A060000 		.4byte	0x65a
 2174 0659 00       		.byte	0
 2175 065a 06       		.uleb128 0x6
 2176 065b 04       		.byte	0x4
 2177 065c 60060000 		.4byte	0x660
 2178 0660 07       		.uleb128 0x7
 2179 0661 B3000000 		.4byte	0xb3
 2180 0665 18       		.uleb128 0x18
 2181 0666 EB020000 		.4byte	.LASF79
 2182 066a 08       		.byte	0x8
 2183 066b 61       		.byte	0x61
 2184 066c 15       		.uleb128 0x15
 2185 066d 99000000 		.4byte	0x99
 2186 0671 00       		.byte	0
 2187 0672 00       		.byte	0
 2188              		.section	.debug_abbrev,"",%progbits
 2189              	.Ldebug_abbrev0:
 2190 0000 01       		.uleb128 0x1
 2191 0001 11       		.uleb128 0x11
 2192 0002 01       		.byte	0x1
 2193 0003 25       		.uleb128 0x25
 2194 0004 0E       		.uleb128 0xe
 2195 0005 13       		.uleb128 0x13
 2196 0006 0B       		.uleb128 0xb
 2197 0007 03       		.uleb128 0x3
 2198 0008 0E       		.uleb128 0xe
 2199 0009 1B       		.uleb128 0x1b
 2200 000a 0E       		.uleb128 0xe
 2201 000b 55       		.uleb128 0x55
 2202 000c 17       		.uleb128 0x17
 2203 000d 11       		.uleb128 0x11
 2204 000e 01       		.uleb128 0x1
 2205 000f 10       		.uleb128 0x10
 2206 0010 17       		.uleb128 0x17
ARM GAS  C:\Users\admin\AppData\Local\Temp\ccvyHFKe.s 			page 44


 2207 0011 00       		.byte	0
 2208 0012 00       		.byte	0
 2209 0013 02       		.uleb128 0x2
 2210 0014 24       		.uleb128 0x24
 2211 0015 00       		.byte	0
 2212 0016 0B       		.uleb128 0xb
 2213 0017 0B       		.uleb128 0xb
 2214 0018 3E       		.uleb128 0x3e
 2215 0019 0B       		.uleb128 0xb
 2216 001a 03       		.uleb128 0x3
 2217 001b 0E       		.uleb128 0xe
 2218 001c 00       		.byte	0
 2219 001d 00       		.byte	0
 2220 001e 03       		.uleb128 0x3
 2221 001f 16       		.uleb128 0x16
 2222 0020 00       		.byte	0
 2223 0021 03       		.uleb128 0x3
 2224 0022 0E       		.uleb128 0xe
 2225 0023 3A       		.uleb128 0x3a
 2226 0024 0B       		.uleb128 0xb
 2227 0025 3B       		.uleb128 0x3b
 2228 0026 0B       		.uleb128 0xb
 2229 0027 49       		.uleb128 0x49
 2230 0028 13       		.uleb128 0x13
 2231 0029 00       		.byte	0
 2232 002a 00       		.byte	0
 2233 002b 04       		.uleb128 0x4
 2234 002c 24       		.uleb128 0x24
 2235 002d 00       		.byte	0
 2236 002e 0B       		.uleb128 0xb
 2237 002f 0B       		.uleb128 0xb
 2238 0030 3E       		.uleb128 0x3e
 2239 0031 0B       		.uleb128 0xb
 2240 0032 03       		.uleb128 0x3
 2241 0033 08       		.uleb128 0x8
 2242 0034 00       		.byte	0
 2243 0035 00       		.byte	0
 2244 0036 05       		.uleb128 0x5
 2245 0037 16       		.uleb128 0x16
 2246 0038 00       		.byte	0
 2247 0039 03       		.uleb128 0x3
 2248 003a 0E       		.uleb128 0xe
 2249 003b 3A       		.uleb128 0x3a
 2250 003c 0B       		.uleb128 0xb
 2251 003d 3B       		.uleb128 0x3b
 2252 003e 05       		.uleb128 0x5
 2253 003f 49       		.uleb128 0x49
 2254 0040 13       		.uleb128 0x13
 2255 0041 00       		.byte	0
 2256 0042 00       		.byte	0
 2257 0043 06       		.uleb128 0x6
 2258 0044 0F       		.uleb128 0xf
 2259 0045 00       		.byte	0
 2260 0046 0B       		.uleb128 0xb
 2261 0047 0B       		.uleb128 0xb
 2262 0048 49       		.uleb128 0x49
 2263 0049 13       		.uleb128 0x13
ARM GAS  C:\Users\admin\AppData\Local\Temp\ccvyHFKe.s 			page 45


 2264 004a 00       		.byte	0
 2265 004b 00       		.byte	0
 2266 004c 07       		.uleb128 0x7
 2267 004d 26       		.uleb128 0x26
 2268 004e 00       		.byte	0
 2269 004f 49       		.uleb128 0x49
 2270 0050 13       		.uleb128 0x13
 2271 0051 00       		.byte	0
 2272 0052 00       		.byte	0
 2273 0053 08       		.uleb128 0x8
 2274 0054 2E       		.uleb128 0x2e
 2275 0055 00       		.byte	0
 2276 0056 3F       		.uleb128 0x3f
 2277 0057 19       		.uleb128 0x19
 2278 0058 03       		.uleb128 0x3
 2279 0059 0E       		.uleb128 0xe
 2280 005a 3A       		.uleb128 0x3a
 2281 005b 0B       		.uleb128 0xb
 2282 005c 3B       		.uleb128 0x3b
 2283 005d 0B       		.uleb128 0xb
 2284 005e 11       		.uleb128 0x11
 2285 005f 01       		.uleb128 0x1
 2286 0060 12       		.uleb128 0x12
 2287 0061 06       		.uleb128 0x6
 2288 0062 40       		.uleb128 0x40
 2289 0063 18       		.uleb128 0x18
 2290 0064 9742     		.uleb128 0x2117
 2291 0066 19       		.uleb128 0x19
 2292 0067 00       		.byte	0
 2293 0068 00       		.byte	0
 2294 0069 09       		.uleb128 0x9
 2295 006a 2E       		.uleb128 0x2e
 2296 006b 01       		.byte	0x1
 2297 006c 3F       		.uleb128 0x3f
 2298 006d 19       		.uleb128 0x19
 2299 006e 03       		.uleb128 0x3
 2300 006f 0E       		.uleb128 0xe
 2301 0070 3A       		.uleb128 0x3a
 2302 0071 0B       		.uleb128 0xb
 2303 0072 3B       		.uleb128 0x3b
 2304 0073 0B       		.uleb128 0xb
 2305 0074 11       		.uleb128 0x11
 2306 0075 01       		.uleb128 0x1
 2307 0076 12       		.uleb128 0x12
 2308 0077 06       		.uleb128 0x6
 2309 0078 40       		.uleb128 0x40
 2310 0079 18       		.uleb128 0x18
 2311 007a 9642     		.uleb128 0x2116
 2312 007c 19       		.uleb128 0x19
 2313 007d 01       		.uleb128 0x1
 2314 007e 13       		.uleb128 0x13
 2315 007f 00       		.byte	0
 2316 0080 00       		.byte	0
 2317 0081 0A       		.uleb128 0xa
 2318 0082 898201   		.uleb128 0x4109
 2319 0085 00       		.byte	0
 2320 0086 11       		.uleb128 0x11
ARM GAS  C:\Users\admin\AppData\Local\Temp\ccvyHFKe.s 			page 46


 2321 0087 01       		.uleb128 0x1
 2322 0088 31       		.uleb128 0x31
 2323 0089 13       		.uleb128 0x13
 2324 008a 00       		.byte	0
 2325 008b 00       		.byte	0
 2326 008c 0B       		.uleb128 0xb
 2327 008d 898201   		.uleb128 0x4109
 2328 0090 01       		.byte	0x1
 2329 0091 11       		.uleb128 0x11
 2330 0092 01       		.uleb128 0x1
 2331 0093 31       		.uleb128 0x31
 2332 0094 13       		.uleb128 0x13
 2333 0095 01       		.uleb128 0x1
 2334 0096 13       		.uleb128 0x13
 2335 0097 00       		.byte	0
 2336 0098 00       		.byte	0
 2337 0099 0C       		.uleb128 0xc
 2338 009a 8A8201   		.uleb128 0x410a
 2339 009d 00       		.byte	0
 2340 009e 02       		.uleb128 0x2
 2341 009f 18       		.uleb128 0x18
 2342 00a0 9142     		.uleb128 0x2111
 2343 00a2 18       		.uleb128 0x18
 2344 00a3 00       		.byte	0
 2345 00a4 00       		.byte	0
 2346 00a5 0D       		.uleb128 0xd
 2347 00a6 898201   		.uleb128 0x4109
 2348 00a9 01       		.byte	0x1
 2349 00aa 11       		.uleb128 0x11
 2350 00ab 01       		.uleb128 0x1
 2351 00ac 31       		.uleb128 0x31
 2352 00ad 13       		.uleb128 0x13
 2353 00ae 00       		.byte	0
 2354 00af 00       		.byte	0
 2355 00b0 0E       		.uleb128 0xe
 2356 00b1 34       		.uleb128 0x34
 2357 00b2 00       		.byte	0
 2358 00b3 03       		.uleb128 0x3
 2359 00b4 0E       		.uleb128 0xe
 2360 00b5 3A       		.uleb128 0x3a
 2361 00b6 0B       		.uleb128 0xb
 2362 00b7 3B       		.uleb128 0x3b
 2363 00b8 05       		.uleb128 0x5
 2364 00b9 49       		.uleb128 0x49
 2365 00ba 13       		.uleb128 0x13
 2366 00bb 3F       		.uleb128 0x3f
 2367 00bc 19       		.uleb128 0x19
 2368 00bd 3C       		.uleb128 0x3c
 2369 00be 19       		.uleb128 0x19
 2370 00bf 00       		.byte	0
 2371 00c0 00       		.byte	0
 2372 00c1 0F       		.uleb128 0xf
 2373 00c2 35       		.uleb128 0x35
 2374 00c3 00       		.byte	0
 2375 00c4 49       		.uleb128 0x49
 2376 00c5 13       		.uleb128 0x13
 2377 00c6 00       		.byte	0
ARM GAS  C:\Users\admin\AppData\Local\Temp\ccvyHFKe.s 			page 47


 2378 00c7 00       		.byte	0
 2379 00c8 10       		.uleb128 0x10
 2380 00c9 34       		.uleb128 0x34
 2381 00ca 00       		.byte	0
 2382 00cb 03       		.uleb128 0x3
 2383 00cc 0E       		.uleb128 0xe
 2384 00cd 3A       		.uleb128 0x3a
 2385 00ce 0B       		.uleb128 0xb
 2386 00cf 3B       		.uleb128 0x3b
 2387 00d0 0B       		.uleb128 0xb
 2388 00d1 49       		.uleb128 0x49
 2389 00d2 13       		.uleb128 0x13
 2390 00d3 3F       		.uleb128 0x3f
 2391 00d4 19       		.uleb128 0x19
 2392 00d5 3C       		.uleb128 0x3c
 2393 00d6 19       		.uleb128 0x19
 2394 00d7 00       		.byte	0
 2395 00d8 00       		.byte	0
 2396 00d9 11       		.uleb128 0x11
 2397 00da 34       		.uleb128 0x34
 2398 00db 00       		.byte	0
 2399 00dc 03       		.uleb128 0x3
 2400 00dd 0E       		.uleb128 0xe
 2401 00de 3A       		.uleb128 0x3a
 2402 00df 0B       		.uleb128 0xb
 2403 00e0 3B       		.uleb128 0x3b
 2404 00e1 0B       		.uleb128 0xb
 2405 00e2 49       		.uleb128 0x49
 2406 00e3 13       		.uleb128 0x13
 2407 00e4 3F       		.uleb128 0x3f
 2408 00e5 19       		.uleb128 0x19
 2409 00e6 02       		.uleb128 0x2
 2410 00e7 18       		.uleb128 0x18
 2411 00e8 00       		.byte	0
 2412 00e9 00       		.byte	0
 2413 00ea 12       		.uleb128 0x12
 2414 00eb 01       		.uleb128 0x1
 2415 00ec 01       		.byte	0x1
 2416 00ed 49       		.uleb128 0x49
 2417 00ee 13       		.uleb128 0x13
 2418 00ef 01       		.uleb128 0x1
 2419 00f0 13       		.uleb128 0x13
 2420 00f1 00       		.byte	0
 2421 00f2 00       		.byte	0
 2422 00f3 13       		.uleb128 0x13
 2423 00f4 21       		.uleb128 0x21
 2424 00f5 00       		.byte	0
 2425 00f6 49       		.uleb128 0x49
 2426 00f7 13       		.uleb128 0x13
 2427 00f8 2F       		.uleb128 0x2f
 2428 00f9 0B       		.uleb128 0xb
 2429 00fa 00       		.byte	0
 2430 00fb 00       		.byte	0
 2431 00fc 14       		.uleb128 0x14
 2432 00fd 2E       		.uleb128 0x2e
 2433 00fe 01       		.byte	0x1
 2434 00ff 3F       		.uleb128 0x3f
ARM GAS  C:\Users\admin\AppData\Local\Temp\ccvyHFKe.s 			page 48


 2435 0100 19       		.uleb128 0x19
 2436 0101 03       		.uleb128 0x3
 2437 0102 0E       		.uleb128 0xe
 2438 0103 3A       		.uleb128 0x3a
 2439 0104 0B       		.uleb128 0xb
 2440 0105 3B       		.uleb128 0x3b
 2441 0106 0B       		.uleb128 0xb
 2442 0107 27       		.uleb128 0x27
 2443 0108 19       		.uleb128 0x19
 2444 0109 49       		.uleb128 0x49
 2445 010a 13       		.uleb128 0x13
 2446 010b 3C       		.uleb128 0x3c
 2447 010c 19       		.uleb128 0x19
 2448 010d 01       		.uleb128 0x1
 2449 010e 13       		.uleb128 0x13
 2450 010f 00       		.byte	0
 2451 0110 00       		.byte	0
 2452 0111 15       		.uleb128 0x15
 2453 0112 05       		.uleb128 0x5
 2454 0113 00       		.byte	0
 2455 0114 49       		.uleb128 0x49
 2456 0115 13       		.uleb128 0x13
 2457 0116 00       		.byte	0
 2458 0117 00       		.byte	0
 2459 0118 16       		.uleb128 0x16
 2460 0119 2E       		.uleb128 0x2e
 2461 011a 01       		.byte	0x1
 2462 011b 3F       		.uleb128 0x3f
 2463 011c 19       		.uleb128 0x19
 2464 011d 03       		.uleb128 0x3
 2465 011e 0E       		.uleb128 0xe
 2466 011f 3A       		.uleb128 0x3a
 2467 0120 0B       		.uleb128 0xb
 2468 0121 3B       		.uleb128 0x3b
 2469 0122 0B       		.uleb128 0xb
 2470 0123 27       		.uleb128 0x27
 2471 0124 19       		.uleb128 0x19
 2472 0125 3C       		.uleb128 0x3c
 2473 0126 19       		.uleb128 0x19
 2474 0127 01       		.uleb128 0x1
 2475 0128 13       		.uleb128 0x13
 2476 0129 00       		.byte	0
 2477 012a 00       		.byte	0
 2478 012b 17       		.uleb128 0x17
 2479 012c 18       		.uleb128 0x18
 2480 012d 00       		.byte	0
 2481 012e 00       		.byte	0
 2482 012f 00       		.byte	0
 2483 0130 18       		.uleb128 0x18
 2484 0131 2E       		.uleb128 0x2e
 2485 0132 01       		.byte	0x1
 2486 0133 3F       		.uleb128 0x3f
 2487 0134 19       		.uleb128 0x19
 2488 0135 03       		.uleb128 0x3
 2489 0136 0E       		.uleb128 0xe
 2490 0137 3A       		.uleb128 0x3a
 2491 0138 0B       		.uleb128 0xb
ARM GAS  C:\Users\admin\AppData\Local\Temp\ccvyHFKe.s 			page 49


 2492 0139 3B       		.uleb128 0x3b
 2493 013a 0B       		.uleb128 0xb
 2494 013b 27       		.uleb128 0x27
 2495 013c 19       		.uleb128 0x19
 2496 013d 3C       		.uleb128 0x3c
 2497 013e 19       		.uleb128 0x19
 2498 013f 00       		.byte	0
 2499 0140 00       		.byte	0
 2500 0141 00       		.byte	0
 2501              		.section	.debug_aranges,"",%progbits
 2502 0000 24000000 		.4byte	0x24
 2503 0004 0200     		.2byte	0x2
 2504 0006 00000000 		.4byte	.Ldebug_info0
 2505 000a 04       		.byte	0x4
 2506 000b 00       		.byte	0
 2507 000c 0000     		.2byte	0
 2508 000e 0000     		.2byte	0
 2509 0010 00000000 		.4byte	.LFB63
 2510 0014 C4000000 		.4byte	.LFE63-.LFB63
 2511 0018 00000000 		.4byte	.LFB64
 2512 001c B4080000 		.4byte	.LFE64-.LFB64
 2513 0020 00000000 		.4byte	0
 2514 0024 00000000 		.4byte	0
 2515              		.section	.debug_ranges,"",%progbits
 2516              	.Ldebug_ranges0:
 2517 0000 00000000 		.4byte	.LFB63
 2518 0004 C4000000 		.4byte	.LFE63
 2519 0008 00000000 		.4byte	.LFB64
 2520 000c B4080000 		.4byte	.LFE64
 2521 0010 00000000 		.4byte	0
 2522 0014 00000000 		.4byte	0
 2523              		.section	.debug_line,"",%progbits
 2524              	.Ldebug_line0:
 2525 0000 35030000 		.section	.debug_str,"MS",%progbits,1
 2525      02006A01 
 2525      00000201 
 2525      FB0E0D00 
 2525      01010101 
 2526              	.LASF30:
 2527 0000 4F6D6567 		.ascii	"OmegaX\000"
 2527      615800
 2528              	.LASF31:
 2529 0007 4F6D6567 		.ascii	"OmegaY\000"
 2529      615900
 2530              	.LASF47:
 2531 000e 696E745F 		.ascii	"int_Error_w_yaw\000"
 2531      4572726F 
 2531      725F775F 
 2531      79617700 
 2532              	.LASF22:
 2533 001e 42545F59 		.ascii	"BT_Yaw\000"
 2533      617700
 2534              	.LASF57:
 2535 0025 436F6E74 		.ascii	"Control_Pitch\000"
 2535      726F6C5F 
 2535      50697463 
 2535      6800
ARM GAS  C:\Users\admin\AppData\Local\Temp\ccvyHFKe.s 			page 50


 2536              	.LASF48:
 2537 0033 44657369 		.ascii	"Desire_w_roll\000"
 2537      72655F77 
 2537      5F726F6C 
 2537      6C00
 2538              	.LASF2:
 2539 0041 73686F72 		.ascii	"short int\000"
 2539      7420696E 
 2539      7400
 2540              	.LASF50:
 2541 004b 4572726F 		.ascii	"Error_w_roll\000"
 2541      725F775F 
 2541      726F6C6C 
 2541      00
 2542              	.LASF18:
 2543 0058 73697A65 		.ascii	"sizetype\000"
 2543      74797065 
 2543      00
 2544              	.LASF40:
 2545 0061 4572726F 		.ascii	"Error_pitch\000"
 2545      725F7069 
 2545      74636800 
 2546              	.LASF16:
 2547 006d 63686172 		.ascii	"char8\000"
 2547      3800
 2548              	.LASF45:
 2549 0073 696E745F 		.ascii	"int_Error_roll\000"
 2549      4572726F 
 2549      725F726F 
 2549      6C6C00
 2550              	.LASF68:
 2551 0082 44656275 		.ascii	"Debug_Mode\000"
 2551      675F4D6F 
 2551      646500
 2552              	.LASF66:
 2553 008d 4D6F746F 		.ascii	"Motor_v_4\000"
 2553      725F765F 
 2553      3400
 2554              	.LASF41:
 2555 0097 4572726F 		.ascii	"Error_w_yaw\000"
 2555      725F775F 
 2555      79617700 
 2556              	.LASF35:
 2557 00a3 7365745F 		.ascii	"set_power_1\000"
 2557      706F7765 
 2557      725F3100 
 2558              	.LASF36:
 2559 00af 7365745F 		.ascii	"set_power_2\000"
 2559      706F7765 
 2559      725F3200 
 2560              	.LASF37:
 2561 00bb 7365745F 		.ascii	"set_power_3\000"
 2561      706F7765 
 2561      725F3300 
 2562              	.LASF38:
 2563 00c7 7365745F 		.ascii	"set_power_4\000"
 2563      706F7765 
ARM GAS  C:\Users\admin\AppData\Local\Temp\ccvyHFKe.s 			page 51


 2563      725F3400 
 2564              	.LASF53:
 2565 00d3 6C617374 		.ascii	"last_Error_w_pitch\000"
 2565      5F457272 
 2565      6F725F77 
 2565      5F706974 
 2565      636800
 2566              	.LASF63:
 2567 00e6 4D6F746F 		.ascii	"Motor_v_1\000"
 2567      725F765F 
 2567      3100
 2568              	.LASF64:
 2569 00f0 4D6F746F 		.ascii	"Motor_v_2\000"
 2569      725F765F 
 2569      3200
 2570              	.LASF65:
 2571 00fa 4D6F746F 		.ascii	"Motor_v_3\000"
 2571      725F765F 
 2571      3300
 2572              	.LASF12:
 2573 0104 75696E74 		.ascii	"uint16\000"
 2573      313600
 2574              	.LASF78:
 2575 010b 436F6E74 		.ascii	"Control_Main\000"
 2575      726F6C5F 
 2575      4D61696E 
 2575      00
 2576              	.LASF21:
 2577 0118 42545F54 		.ascii	"BT_Throttle\000"
 2577      68726F74 
 2577      746C6500 
 2578              	.LASF77:
 2579 0124 436F6E74 		.ascii	"Control_Func_InitVariable\000"
 2579      726F6C5F 
 2579      46756E63 
 2579      5F496E69 
 2579      74566172 
 2580              	.LASF11:
 2581 013e 75696E74 		.ascii	"uint8\000"
 2581      3800
 2582              	.LASF27:
 2583 0144 44657369 		.ascii	"Desire_angle_pitch\000"
 2583      72655F61 
 2583      6E676C65 
 2583      5F706974 
 2583      636800
 2584              	.LASF69:
 2585 0157 64697370 		.ascii	"displayBuffer\000"
 2585      6C617942 
 2585      75666665 
 2585      7200
 2586              	.LASF44:
 2587 0165 6C617374 		.ascii	"last_Error_w_yaw\000"
 2587      5F457272 
 2587      6F725F77 
 2587      5F796177 
 2587      00
ARM GAS  C:\Users\admin\AppData\Local\Temp\ccvyHFKe.s 			page 52


 2588              	.LASF56:
 2589 0176 436F6E74 		.ascii	"Control_Roll\000"
 2589      726F6C5F 
 2589      526F6C6C 
 2589      00
 2590              	.LASF14:
 2591 0183 666C6F61 		.ascii	"float\000"
 2591      7400
 2592              	.LASF6:
 2593 0189 6C6F6E67 		.ascii	"long long int\000"
 2593      206C6F6E 
 2593      6720696E 
 2593      7400
 2594              	.LASF33:
 2595 0197 526F6C6C 		.ascii	"Roll\000"
 2595      00
 2596              	.LASF24:
 2597 019c 42545F52 		.ascii	"BT_Roll\000"
 2597      6F6C6C00 
 2598              	.LASF76:
 2599 01a4 443A5C44 		.ascii	"D:\\Doc\\PSoc_Projects\\2018UAV\\10.25\\UAV_Control"
 2599      6F635C50 
 2599      536F635F 
 2599      50726F6A 
 2599      65637473 
 2600 01d2 5C554156 		.ascii	"\\UAV_Control.cydsn\000"
 2600      5F436F6E 
 2600      74726F6C 
 2600      2E637964 
 2600      736E00
 2601              	.LASF54:
 2602 01e5 696E745F 		.ascii	"int_Error_w_roll\000"
 2602      4572726F 
 2602      725F775F 
 2602      726F6C6C 
 2602      00
 2603              	.LASF39:
 2604 01f6 4572726F 		.ascii	"Error_roll\000"
 2604      725F726F 
 2604      6C6C00
 2605              	.LASF32:
 2606 0201 4F6D6567 		.ascii	"OmegaZ\000"
 2606      615A00
 2607              	.LASF26:
 2608 0208 70697463 		.ascii	"pitch_angle_offset\000"
 2608      685F616E 
 2608      676C655F 
 2608      6F666673 
 2608      657400
 2609              	.LASF23:
 2610 021b 42545F50 		.ascii	"BT_Pitch\000"
 2610      69746368 
 2610      00
 2611              	.LASF19:
 2612 0224 6C6F6E67 		.ascii	"long double\000"
 2612      20646F75 
 2612      626C6500 
ARM GAS  C:\Users\admin\AppData\Local\Temp\ccvyHFKe.s 			page 53


 2613              	.LASF43:
 2614 0230 6C617374 		.ascii	"last_Error_pitch\000"
 2614      5F457272 
 2614      6F725F70 
 2614      69746368 
 2614      00
 2615              	.LASF1:
 2616 0241 756E7369 		.ascii	"unsigned char\000"
 2616      676E6564 
 2616      20636861 
 2616      7200
 2617              	.LASF71:
 2618 024f 73707269 		.ascii	"sprintf\000"
 2618      6E746600 
 2619              	.LASF75:
 2620 0257 2E5C436F 		.ascii	".\\Control.c\000"
 2620      6E74726F 
 2620      6C2E6300 
 2621              	.LASF0:
 2622 0263 7369676E 		.ascii	"signed char\000"
 2622      65642063 
 2622      68617200 
 2623              	.LASF7:
 2624 026f 6C6F6E67 		.ascii	"long long unsigned int\000"
 2624      206C6F6E 
 2624      6720756E 
 2624      7369676E 
 2624      65642069 
 2625              	.LASF8:
 2626 0286 756E7369 		.ascii	"unsigned int\000"
 2626      676E6564 
 2626      20696E74 
 2626      00
 2627              	.LASF73:
 2628 0293 4C43445F 		.ascii	"LCD_PrintString\000"
 2628      5072696E 
 2628      74537472 
 2628      696E6700 
 2629              	.LASF25:
 2630 02a3 726F6C6C 		.ascii	"roll_angle_offset\000"
 2630      5F616E67 
 2630      6C655F6F 
 2630      66667365 
 2630      7400
 2631              	.LASF51:
 2632 02b5 4572726F 		.ascii	"Error_w_pitch\000"
 2632      725F775F 
 2632      70697463 
 2632      6800
 2633              	.LASF67:
 2634 02c3 636F6E6E 		.ascii	"connection_lost_time\000"
 2634      65637469 
 2634      6F6E5F6C 
 2634      6F73745F 
 2634      74696D65 
 2635              	.LASF3:
 2636 02d8 73686F72 		.ascii	"short unsigned int\000"
ARM GAS  C:\Users\admin\AppData\Local\Temp\ccvyHFKe.s 			page 54


 2636      7420756E 
 2636      7369676E 
 2636      65642069 
 2636      6E7400
 2637              	.LASF79:
 2638 02eb 4C43445F 		.ascii	"LCD_PrintU32Number\000"
 2638      5072696E 
 2638      74553332 
 2638      4E756D62 
 2638      657200
 2639              	.LASF17:
 2640 02fe 63686172 		.ascii	"char\000"
 2640      00
 2641              	.LASF4:
 2642 0303 6C6F6E67 		.ascii	"long int\000"
 2642      20696E74 
 2642      00
 2643              	.LASF10:
 2644 030c 696E7433 		.ascii	"int32_t\000"
 2644      325F7400 
 2645              	.LASF46:
 2646 0314 696E745F 		.ascii	"int_Error_pitch\000"
 2646      4572726F 
 2646      725F7069 
 2646      74636800 
 2647              	.LASF52:
 2648 0324 6C617374 		.ascii	"last_Error_w_roll\000"
 2648      5F457272 
 2648      6F725F77 
 2648      5F726F6C 
 2648      6C00
 2649              	.LASF58:
 2650 0336 436F6E74 		.ascii	"Control_Yaw\000"
 2650      726F6C5F 
 2650      59617700 
 2651              	.LASF34:
 2652 0342 50697463 		.ascii	"Pitch\000"
 2652      6800
 2653              	.LASF13:
 2654 0348 75696E74 		.ascii	"uint32\000"
 2654      333200
 2655              	.LASF5:
 2656 034f 6C6F6E67 		.ascii	"long unsigned int\000"
 2656      20756E73 
 2656      69676E65 
 2656      6420696E 
 2656      7400
 2657              	.LASF15:
 2658 0361 646F7562 		.ascii	"double\000"
 2658      6C6500
 2659              	.LASF20:
 2660 0368 49544D5F 		.ascii	"ITM_RxBuffer\000"
 2660      52784275 
 2660      66666572 
 2660      00
 2661              	.LASF70:
 2662 0375 73717274 		.ascii	"sqrt\000"
ARM GAS  C:\Users\admin\AppData\Local\Temp\ccvyHFKe.s 			page 55


 2662      00
 2663              	.LASF49:
 2664 037a 44657369 		.ascii	"Desire_w_pitch\000"
 2664      72655F77 
 2664      5F706974 
 2664      636800
 2665              	.LASF9:
 2666 0389 5F5F696E 		.ascii	"__int32_t\000"
 2666      7433325F 
 2666      7400
 2667              	.LASF74:
 2668 0393 474E5520 		.ascii	"GNU C 4.9.3 20150303 (release) [ARM/embedded-4_9-br"
 2668      4320342E 
 2668      392E3320 
 2668      32303135 
 2668      30333033 
 2669 03c6 616E6368 		.ascii	"anch revision 221220] -mcpu=cortex-m3 -mthumb -g -O"
 2669      20726576 
 2669      6973696F 
 2669      6E203232 
 2669      31323230 
 2670 03f9 67202D66 		.ascii	"g -ffunction-sections -ffat-lto-objects\000"
 2670      66756E63 
 2670      74696F6E 
 2670      2D736563 
 2670      74696F6E 
 2671              	.LASF55:
 2672 0421 696E745F 		.ascii	"int_Error_w_pitch\000"
 2672      4572726F 
 2672      725F775F 
 2672      70697463 
 2672      6800
 2673              	.LASF42:
 2674 0433 6C617374 		.ascii	"last_Error_roll\000"
 2674      5F457272 
 2674      6F725F72 
 2674      6F6C6C00 
 2675              	.LASF72:
 2676 0443 4C43445F 		.ascii	"LCD_Position\000"
 2676      506F7369 
 2676      74696F6E 
 2676      00
 2677              	.LASF29:
 2678 0450 44657369 		.ascii	"Desire_w_yaw\000"
 2678      72655F77 
 2678      5F796177 
 2678      00
 2679              	.LASF59:
 2680 045d 6C617374 		.ascii	"last_power_1\000"
 2680      5F706F77 
 2680      65725F31 
 2680      00
 2681              	.LASF60:
 2682 046a 6C617374 		.ascii	"last_power_2\000"
 2682      5F706F77 
 2682      65725F32 
 2682      00
ARM GAS  C:\Users\admin\AppData\Local\Temp\ccvyHFKe.s 			page 56


 2683              	.LASF61:
 2684 0477 6C617374 		.ascii	"last_power_3\000"
 2684      5F706F77 
 2684      65725F33 
 2684      00
 2685              	.LASF62:
 2686 0484 6C617374 		.ascii	"last_power_4\000"
 2686      5F706F77 
 2686      65725F34 
 2686      00
 2687              	.LASF28:
 2688 0491 44657369 		.ascii	"Desire_angle_roll\000"
 2688      72655F61 
 2688      6E676C65 
 2688      5F726F6C 
 2688      6C00
 2689              		.ident	"GCC: (GNU Tools for ARM Embedded Processors) 4.9.3 20150303 (release) [ARM/embedded-4_9-br
