ARM GAS  C:\Users\admin\AppData\Local\Temp\ccOlWYIz.s 			page 1


   1              		.syntax unified
   2              		.cpu cortex-m3
   3              		.fpu softvfp
   4              		.eabi_attribute 20, 1
   5              		.eabi_attribute 21, 1
   6              		.eabi_attribute 23, 3
   7              		.eabi_attribute 24, 1
   8              		.eabi_attribute 25, 1
   9              		.eabi_attribute 26, 1
  10              		.eabi_attribute 30, 1
  11              		.eabi_attribute 34, 1
  12              		.eabi_attribute 18, 4
  13              		.thumb
  14              		.file	"GY80.c"
  15              		.text
  16              	.Ltext0:
  17              		.cfi_sections	.debug_frame
  18              		.section	.text.L3G4200D_init,"ax",%progbits
  19              		.align	2
  20              		.global	L3G4200D_init
  21              		.thumb
  22              		.thumb_func
  23              		.type	L3G4200D_init, %function
  24              	L3G4200D_init:
  25              	.LFB63:
  26              		.file 1 ".\\GY80.c"
   1:.\GY80.c      **** #include "GY80.h"
   2:.\GY80.c      **** #include "math.h"
   3:.\GY80.c      **** //初始化L3G4200D
   4:.\GY80.c      **** uint8 L3G_READ[BUFFER_SIZE];
   5:.\GY80.c      **** uint8 ADXL_READ[BUFFER_SIZE];
   6:.\GY80.c      **** int Total_ACC;
   7:.\GY80.c      **** void L3G4200D_init()
   8:.\GY80.c      **** {
  27              		.loc 1 8 0
  28              		.cfi_startproc
  29              		@ args = 0, pretend = 0, frame = 8
  30              		@ frame_needed = 0, uses_anonymous_args = 0
  31 0000 00B5     		push	{lr}
  32              		.cfi_def_cfa_offset 4
  33              		.cfi_offset 14, -4
  34 0002 83B0     		sub	sp, sp, #12
  35              		.cfi_def_cfa_offset 16
   9:.\GY80.c      ****     I2C_UDB_M_MasterClearStatus();
  36              		.loc 1 9 0
  37 0004 FFF7FEFF 		bl	I2C_UDB_M_MasterClearStatus
  38              	.LVL0:
  10:.\GY80.c      ****     uint8 buf[6] = {0x20|(1<<7), 0x0f, 0x00, 0x08, 0x30, 0x00};
  39              		.loc 1 10 0
  40 0008 094B     		ldr	r3, .L4
  41 000a 1868     		ldr	r0, [r3]	@ unaligned
  42 000c 0090     		str	r0, [sp]	@ unaligned
  43 000e 9B88     		ldrh	r3, [r3, #4]	@ unaligned
  44 0010 ADF80430 		strh	r3, [sp, #4]	@ unaligned
  11:.\GY80.c      ****     /* Read the data from the EZI2C */
  12:.\GY80.c      ****     I2C_UDB_M_MasterWriteBuf(L3G4200D_ADDR, (uint8 *)buf,
  45              		.loc 1 12 0
ARM GAS  C:\Users\admin\AppData\Local\Temp\ccOlWYIz.s 			page 2


  46 0014 6920     		movs	r0, #105
  47 0016 6946     		mov	r1, sp
  48 0018 0622     		movs	r2, #6
  49 001a 0023     		movs	r3, #0
  50 001c FFF7FEFF 		bl	I2C_UDB_M_MasterWriteBuf
  51              	.LVL1:
  52              	.L2:
  13:.\GY80.c      ****                             6, I2C_UDB_M_MODE_COMPLETE_XFER);
  14:.\GY80.c      **** 
  15:.\GY80.c      ****     while(0u == (I2C_UDB_M_MasterStatus() & I2C_UDB_M_MSTAT_WR_CMPLT))
  53              		.loc 1 15 0 discriminator 1
  54 0020 FFF7FEFF 		bl	I2C_UDB_M_MasterStatus
  55              	.LVL2:
  56 0024 10F0020F 		tst	r0, #2
  57 0028 FAD0     		beq	.L2
  16:.\GY80.c      ****     {
  17:.\GY80.c      ****         /* Wait read to be completed */
  18:.\GY80.c      ****     }
  19:.\GY80.c      **** }
  58              		.loc 1 19 0
  59 002a 03B0     		add	sp, sp, #12
  60              		.cfi_def_cfa_offset 4
  61              		@ sp needed
  62 002c 5DF804FB 		ldr	pc, [sp], #4
  63              	.L5:
  64              		.align	2
  65              	.L4:
  66 0030 00000000 		.word	.LANCHOR0
  67              		.cfi_endproc
  68              	.LFE63:
  69              		.size	L3G4200D_init, .-L3G4200D_init
  70              		.section	.text.AXDL345_init,"ax",%progbits
  71              		.align	2
  72              		.global	AXDL345_init
  73              		.thumb
  74              		.thumb_func
  75              		.type	AXDL345_init, %function
  76              	AXDL345_init:
  77              	.LFB64:
  20:.\GY80.c      **** 
  21:.\GY80.c      **** //初始化AXDL345
  22:.\GY80.c      **** void AXDL345_init()
  23:.\GY80.c      **** {
  78              		.loc 1 23 0
  79              		.cfi_startproc
  80              		@ args = 0, pretend = 0, frame = 8
  81              		@ frame_needed = 0, uses_anonymous_args = 0
  82 0000 00B5     		push	{lr}
  83              		.cfi_def_cfa_offset 4
  84              		.cfi_offset 14, -4
  85 0002 83B0     		sub	sp, sp, #12
  86              		.cfi_def_cfa_offset 16
  24:.\GY80.c      ****     I2C_UDB_M_MasterClearStatus();
  87              		.loc 1 24 0
  88 0004 FFF7FEFF 		bl	I2C_UDB_M_MasterClearStatus
  89              	.LVL3:
  25:.\GY80.c      ****     uint8 buf[5] = {0x31|(1<<7), 0x08, 0x2D|(1<<7), 0x08, 0x80};
ARM GAS  C:\Users\admin\AppData\Local\Temp\ccOlWYIz.s 			page 3


  90              		.loc 1 25 0
  91 0008 104B     		ldr	r3, .L10
  92 000a 53F8080F 		ldr	r0, [r3, #8]!	@ unaligned
  93 000e 0090     		str	r0, [sp]	@ unaligned
  94 0010 1B79     		ldrb	r3, [r3, #4]	@ zero_extendqisi2
  95 0012 8DF80430 		strb	r3, [sp, #4]
  26:.\GY80.c      ****     /* Read the data from the EZI2C */
  27:.\GY80.c      ****     I2C_UDB_M_MasterWriteBuf(ADXL345_ADDR, (uint8 *)buf,
  96              		.loc 1 27 0
  97 0016 5320     		movs	r0, #83
  98 0018 6946     		mov	r1, sp
  99 001a 0222     		movs	r2, #2
 100 001c 0023     		movs	r3, #0
 101 001e FFF7FEFF 		bl	I2C_UDB_M_MasterWriteBuf
 102              	.LVL4:
 103              	.L7:
  28:.\GY80.c      ****                             2, I2C_UDB_M_MODE_COMPLETE_XFER);
  29:.\GY80.c      **** 
  30:.\GY80.c      ****     while(0u == (I2C_UDB_M_MasterStatus() & I2C_UDB_M_MSTAT_WR_CMPLT))
 104              		.loc 1 30 0 discriminator 1
 105 0022 FFF7FEFF 		bl	I2C_UDB_M_MasterStatus
 106              	.LVL5:
 107 0026 10F0020F 		tst	r0, #2
 108 002a FAD0     		beq	.L7
  31:.\GY80.c      ****     {
  32:.\GY80.c      ****         /* Wait read to be completed */
  33:.\GY80.c      ****     }
  34:.\GY80.c      ****     I2C_UDB_M_MasterWriteBuf(ADXL345_ADDR, (uint8 *)(buf+2),
 109              		.loc 1 34 0
 110 002c 5320     		movs	r0, #83
 111 002e 0DF10201 		add	r1, sp, #2
 112 0032 0322     		movs	r2, #3
 113 0034 0023     		movs	r3, #0
 114 0036 FFF7FEFF 		bl	I2C_UDB_M_MasterWriteBuf
 115              	.LVL6:
 116              	.L8:
  35:.\GY80.c      ****                         3, I2C_UDB_M_MODE_COMPLETE_XFER);
  36:.\GY80.c      **** 
  37:.\GY80.c      ****     while(0u == (I2C_UDB_M_MasterStatus() & I2C_UDB_M_MSTAT_WR_CMPLT))
 117              		.loc 1 37 0 discriminator 1
 118 003a FFF7FEFF 		bl	I2C_UDB_M_MasterStatus
 119              	.LVL7:
 120 003e 10F0020F 		tst	r0, #2
 121 0042 FAD0     		beq	.L8
  38:.\GY80.c      ****     {
  39:.\GY80.c      ****         /* Wait read to be completed */
  40:.\GY80.c      ****     }
  41:.\GY80.c      **** }
 122              		.loc 1 41 0
 123 0044 03B0     		add	sp, sp, #12
 124              		.cfi_def_cfa_offset 4
 125              		@ sp needed
 126 0046 5DF804FB 		ldr	pc, [sp], #4
 127              	.L11:
 128 004a 00BF     		.align	2
 129              	.L10:
 130 004c 00000000 		.word	.LANCHOR0
ARM GAS  C:\Users\admin\AppData\Local\Temp\ccOlWYIz.s 			page 4


 131              		.cfi_endproc
 132              	.LFE64:
 133              		.size	AXDL345_init, .-AXDL345_init
 134              		.section	.text.get_raw_gyo,"ax",%progbits
 135              		.align	2
 136              		.global	get_raw_gyo
 137              		.thumb
 138              		.thumb_func
 139              		.type	get_raw_gyo, %function
 140              	get_raw_gyo:
 141              	.LFB65:
  42:.\GY80.c      **** 
  43:.\GY80.c      **** //
  44:.\GY80.c      **** void get_raw_gyo(int16* GYO)
  45:.\GY80.c      **** {
 142              		.loc 1 45 0
 143              		.cfi_startproc
 144              		@ args = 0, pretend = 0, frame = 8
 145              		@ frame_needed = 0, uses_anonymous_args = 0
 146              	.LVL8:
 147 0000 30B5     		push	{r4, r5, lr}
 148              		.cfi_def_cfa_offset 12
 149              		.cfi_offset 4, -12
 150              		.cfi_offset 5, -8
 151              		.cfi_offset 14, -4
 152 0002 83B0     		sub	sp, sp, #12
 153              		.cfi_def_cfa_offset 24
 154 0004 0446     		mov	r4, r0
  46:.\GY80.c      ****     uint8 a = 0x28|(1<<7);
 155              		.loc 1 46 0
 156 0006 02AD     		add	r5, sp, #8
 157 0008 A823     		movs	r3, #168
 158 000a 05F8013D 		strb	r3, [r5, #-1]!
  47:.\GY80.c      ****     /* Clear I2C Master status */
  48:.\GY80.c      ****     I2C_UDB_M_MasterClearStatus();
 159              		.loc 1 48 0
 160 000e FFF7FEFF 		bl	I2C_UDB_M_MasterClearStatus
 161              	.LVL9:
  49:.\GY80.c      ****     /* Read the data from the EZI2C */
  50:.\GY80.c      ****     I2C_UDB_M_MasterWriteBuf(L3G4200D_ADDR,&a ,
 162              		.loc 1 50 0
 163 0012 6920     		movs	r0, #105
 164 0014 2946     		mov	r1, r5
 165 0016 0122     		movs	r2, #1
 166 0018 0023     		movs	r3, #0
 167 001a FFF7FEFF 		bl	I2C_UDB_M_MasterWriteBuf
 168              	.LVL10:
 169              	.L13:
  51:.\GY80.c      ****                             1, I2C_UDB_M_MODE_COMPLETE_XFER);
  52:.\GY80.c      **** 
  53:.\GY80.c      ****     while(0u == (I2C_UDB_M_MasterStatus() & I2C_UDB_M_MSTAT_WR_CMPLT))
 170              		.loc 1 53 0 discriminator 1
 171 001e FFF7FEFF 		bl	I2C_UDB_M_MasterStatus
 172              	.LVL11:
 173 0022 10F0020F 		tst	r0, #2
 174 0026 FAD0     		beq	.L13
  54:.\GY80.c      ****     {
ARM GAS  C:\Users\admin\AppData\Local\Temp\ccOlWYIz.s 			page 5


  55:.\GY80.c      ****         /* Wait read to be completed */
  56:.\GY80.c      ****     }
  57:.\GY80.c      ****     I2C_UDB_M_MasterClearStatus();
 175              		.loc 1 57 0
 176 0028 FFF7FEFF 		bl	I2C_UDB_M_MasterClearStatus
 177              	.LVL12:
  58:.\GY80.c      ****     I2C_UDB_M_MasterReadBuf(L3G4200D_ADDR,L3G_READ ,
 178              		.loc 1 58 0
 179 002c 6920     		movs	r0, #105
 180 002e 1849     		ldr	r1, .L22
 181 0030 0622     		movs	r2, #6
 182 0032 0023     		movs	r3, #0
 183 0034 FFF7FEFF 		bl	I2C_UDB_M_MasterReadBuf
 184              	.LVL13:
 185              	.L14:
  59:.\GY80.c      ****                             BUFFER_SIZE, I2C_UDB_M_MODE_COMPLETE_XFER);
  60:.\GY80.c      ****     while(0u == (I2C_UDB_M_MasterStatus() & I2C_UDB_M_MSTAT_RD_CMPLT))
 186              		.loc 1 60 0 discriminator 1
 187 0038 FFF7FEFF 		bl	I2C_UDB_M_MasterStatus
 188              	.LVL14:
 189 003c 10F0010F 		tst	r0, #1
 190 0040 FAD0     		beq	.L14
  61:.\GY80.c      ****     {
  62:.\GY80.c      ****         /* Wait read to be completed */
  63:.\GY80.c      ****     }
  64:.\GY80.c      ****     uint16 Gyo[3];
  65:.\GY80.c      ****     Gyo[0] = (L3G_READ[1]<<8) + L3G_READ[0];
 191              		.loc 1 65 0
 192 0042 1349     		ldr	r1, .L22
 193 0044 4878     		ldrb	r0, [r1, #1]	@ zero_extendqisi2
 194 0046 0B78     		ldrb	r3, [r1]	@ zero_extendqisi2
 195 0048 03EB0020 		add	r0, r3, r0, lsl #8
  66:.\GY80.c      ****     Gyo[1] = (L3G_READ[3]<<8) + L3G_READ[2];
 196              		.loc 1 66 0
 197 004c CA78     		ldrb	r2, [r1, #3]	@ zero_extendqisi2
 198 004e 8B78     		ldrb	r3, [r1, #2]	@ zero_extendqisi2
 199 0050 03EB0222 		add	r2, r3, r2, lsl #8
 200 0054 92B2     		uxth	r2, r2
  67:.\GY80.c      ****     Gyo[2] = (L3G_READ[5]<<8) + L3G_READ[4];
 201              		.loc 1 67 0
 202 0056 4D79     		ldrb	r5, [r1, #5]	@ zero_extendqisi2
 203 0058 0B79     		ldrb	r3, [r1, #4]	@ zero_extendqisi2
 204 005a 03EB0523 		add	r3, r3, r5, lsl #8
 205 005e 9BB2     		uxth	r3, r3
  68:.\GY80.c      ****     //Make Sure get the correct Message
  69:.\GY80.c      ****     if(Gyo[0]>=32768)
 206              		.loc 1 69 0
 207 0060 81B2     		uxth	r1, r0
 208 0062 11F4004F 		tst	r1, #32768
 209 0066 01D0     		beq	.L15
  70:.\GY80.c      ****     {
  71:.\GY80.c      ****         GYO[0]=Gyo[0]-65535-1;
 210              		.loc 1 71 0
 211 0068 2180     		strh	r1, [r4]	@ movhi
 212 006a 00E0     		b	.L16
 213              	.L15:
  72:.\GY80.c      ****     }
ARM GAS  C:\Users\admin\AppData\Local\Temp\ccOlWYIz.s 			page 6


  73:.\GY80.c      ****     else
  74:.\GY80.c      ****     {
  75:.\GY80.c      ****         GYO[0]=Gyo[0];
 214              		.loc 1 75 0
 215 006c 2180     		strh	r1, [r4]	@ movhi
 216              	.L16:
  76:.\GY80.c      ****     }
  77:.\GY80.c      ****     if(Gyo[1]>=32768)
 217              		.loc 1 77 0
 218 006e 92B2     		uxth	r2, r2
 219 0070 12F4004F 		tst	r2, #32768
 220 0074 01D0     		beq	.L17
  78:.\GY80.c      ****     {
  79:.\GY80.c      ****         GYO[1]=Gyo[1]-65535-1;
 221              		.loc 1 79 0
 222 0076 6280     		strh	r2, [r4, #2]	@ movhi
 223 0078 00E0     		b	.L18
 224              	.L17:
  80:.\GY80.c      ****     }
  81:.\GY80.c      ****     else
  82:.\GY80.c      ****     {
  83:.\GY80.c      ****         GYO[1]=Gyo[1];
 225              		.loc 1 83 0
 226 007a 6280     		strh	r2, [r4, #2]	@ movhi
 227              	.L18:
  84:.\GY80.c      ****     }
  85:.\GY80.c      ****     if(Gyo[2]>=32768)
 228              		.loc 1 85 0
 229 007c 9BB2     		uxth	r3, r3
 230 007e 13F4004F 		tst	r3, #32768
 231 0082 01D0     		beq	.L19
  86:.\GY80.c      ****     {
  87:.\GY80.c      ****         GYO[2]=Gyo[2]-65535-1;
 232              		.loc 1 87 0
 233 0084 A380     		strh	r3, [r4, #4]	@ movhi
 234 0086 00E0     		b	.L12
 235              	.L19:
  88:.\GY80.c      ****     }
  89:.\GY80.c      ****     else
  90:.\GY80.c      ****     {
  91:.\GY80.c      ****         GYO[2]=Gyo[2];
 236              		.loc 1 91 0
 237 0088 A380     		strh	r3, [r4, #4]	@ movhi
 238              	.L12:
  92:.\GY80.c      ****     }
  93:.\GY80.c      **** }
 239              		.loc 1 93 0
 240 008a 03B0     		add	sp, sp, #12
 241              		.cfi_def_cfa_offset 12
 242              		@ sp needed
 243 008c 30BD     		pop	{r4, r5, pc}
 244              	.LVL15:
 245              	.L23:
 246 008e 00BF     		.align	2
 247              	.L22:
 248 0090 00000000 		.word	L3G_READ
 249              		.cfi_endproc
ARM GAS  C:\Users\admin\AppData\Local\Temp\ccOlWYIz.s 			page 7


 250              	.LFE65:
 251              		.size	get_raw_gyo, .-get_raw_gyo
 252              		.section	.text.get_raw_acc,"ax",%progbits
 253              		.align	2
 254              		.global	get_raw_acc
 255              		.thumb
 256              		.thumb_func
 257              		.type	get_raw_acc, %function
 258              	get_raw_acc:
 259              	.LFB66:
  94:.\GY80.c      **** 
  95:.\GY80.c      **** //get the acceleration
  96:.\GY80.c      **** void get_raw_acc(int16* ACC)
  97:.\GY80.c      **** {
 260              		.loc 1 97 0
 261              		.cfi_startproc
 262              		@ args = 0, pretend = 0, frame = 8
 263              		@ frame_needed = 0, uses_anonymous_args = 0
 264              	.LVL16:
 265 0000 10B5     		push	{r4, lr}
 266              		.cfi_def_cfa_offset 8
 267              		.cfi_offset 4, -8
 268              		.cfi_offset 14, -4
 269 0002 82B0     		sub	sp, sp, #8
 270              		.cfi_def_cfa_offset 16
 271 0004 0446     		mov	r4, r0
  98:.\GY80.c      ****     uint8 b = 0x32|(1<<7);
 272              		.loc 1 98 0
 273 0006 B223     		movs	r3, #178
 274 0008 8DF80730 		strb	r3, [sp, #7]
  99:.\GY80.c      ****     I2C_UDB_M_MasterClearStatus();
 275              		.loc 1 99 0
 276 000c FFF7FEFF 		bl	I2C_UDB_M_MasterClearStatus
 277              	.LVL17:
 100:.\GY80.c      ****     I2C_UDB_M_MasterReadBuf(L3G4200D_ADDR,L3G_READ ,
 278              		.loc 1 100 0
 279 0010 6920     		movs	r0, #105
 280 0012 1B49     		ldr	r1, .L29
 281 0014 0622     		movs	r2, #6
 282 0016 0023     		movs	r3, #0
 283 0018 FFF7FEFF 		bl	I2C_UDB_M_MasterReadBuf
 284              	.LVL18:
 285              	.L25:
 101:.\GY80.c      ****                             BUFFER_SIZE, I2C_UDB_M_MODE_COMPLETE_XFER);
 102:.\GY80.c      ****     while(0u == (I2C_UDB_M_MasterStatus() & I2C_UDB_M_MSTAT_RD_CMPLT))
 286              		.loc 1 102 0 discriminator 1
 287 001c FFF7FEFF 		bl	I2C_UDB_M_MasterStatus
 288              	.LVL19:
 289 0020 10F0010F 		tst	r0, #1
 290 0024 FAD0     		beq	.L25
 103:.\GY80.c      ****     {
 104:.\GY80.c      ****         /* Wait read to be completed */
 105:.\GY80.c      ****     }
 106:.\GY80.c      ****     
 107:.\GY80.c      ****     /* Clear I2C Master status */
 108:.\GY80.c      ****     I2C_UDB_M_MasterClearStatus();
 291              		.loc 1 108 0
ARM GAS  C:\Users\admin\AppData\Local\Temp\ccOlWYIz.s 			page 8


 292 0026 FFF7FEFF 		bl	I2C_UDB_M_MasterClearStatus
 293              	.LVL20:
 109:.\GY80.c      ****     /* Read the data from the EZI2C */
 110:.\GY80.c      ****     I2C_UDB_M_MasterWriteBuf(ADXL345_ADDR,&b ,
 294              		.loc 1 110 0
 295 002a 5320     		movs	r0, #83
 296 002c 0DF10701 		add	r1, sp, #7
 297 0030 0122     		movs	r2, #1
 298 0032 0023     		movs	r3, #0
 299 0034 FFF7FEFF 		bl	I2C_UDB_M_MasterWriteBuf
 300              	.LVL21:
 301              	.L26:
 111:.\GY80.c      ****                             1, I2C_UDB_M_MODE_COMPLETE_XFER);
 112:.\GY80.c      **** 
 113:.\GY80.c      ****     while(0u == (I2C_UDB_M_MasterStatus() & I2C_UDB_M_MSTAT_WR_CMPLT))
 302              		.loc 1 113 0 discriminator 1
 303 0038 FFF7FEFF 		bl	I2C_UDB_M_MasterStatus
 304              	.LVL22:
 305 003c 10F0020F 		tst	r0, #2
 306 0040 FAD0     		beq	.L26
 114:.\GY80.c      ****     {
 115:.\GY80.c      ****         /* Wait read to be completed */
 116:.\GY80.c      ****     }
 117:.\GY80.c      ****     I2C_UDB_M_MasterClearStatus();
 307              		.loc 1 117 0
 308 0042 FFF7FEFF 		bl	I2C_UDB_M_MasterClearStatus
 309              	.LVL23:
 118:.\GY80.c      ****     I2C_UDB_M_MasterReadBuf(ADXL345_ADDR,ADXL_READ ,
 310              		.loc 1 118 0
 311 0046 5320     		movs	r0, #83
 312 0048 0E49     		ldr	r1, .L29+4
 313 004a 0622     		movs	r2, #6
 314 004c 0023     		movs	r3, #0
 315 004e FFF7FEFF 		bl	I2C_UDB_M_MasterReadBuf
 316              	.LVL24:
 317              	.L27:
 119:.\GY80.c      ****                             BUFFER_SIZE, I2C_UDB_M_MODE_COMPLETE_XFER);
 120:.\GY80.c      ****     while(0u == (I2C_UDB_M_MasterStatus() & I2C_UDB_M_MSTAT_RD_CMPLT))
 318              		.loc 1 120 0 discriminator 1
 319 0052 FFF7FEFF 		bl	I2C_UDB_M_MasterStatus
 320              	.LVL25:
 321 0056 10F0010F 		tst	r0, #1
 322 005a FAD0     		beq	.L27
 121:.\GY80.c      ****     {
 122:.\GY80.c      ****         /* Wait read to be completed */
 123:.\GY80.c      ****     } 
 124:.\GY80.c      ****     ACC[0] = (ADXL_READ[1]<<8) + ADXL_READ[0];
 323              		.loc 1 124 0
 324 005c 094B     		ldr	r3, .L29+4
 325 005e 5978     		ldrb	r1, [r3, #1]	@ zero_extendqisi2
 326 0060 1A78     		ldrb	r2, [r3]	@ zero_extendqisi2
 327 0062 02EB0122 		add	r2, r2, r1, lsl #8
 328 0066 2280     		strh	r2, [r4]	@ movhi
 125:.\GY80.c      ****     ACC[1] = (ADXL_READ[3]<<8) + ADXL_READ[2];
 329              		.loc 1 125 0
 330 0068 D978     		ldrb	r1, [r3, #3]	@ zero_extendqisi2
 331 006a 9A78     		ldrb	r2, [r3, #2]	@ zero_extendqisi2
ARM GAS  C:\Users\admin\AppData\Local\Temp\ccOlWYIz.s 			page 9


 332 006c 02EB0122 		add	r2, r2, r1, lsl #8
 333 0070 6280     		strh	r2, [r4, #2]	@ movhi
 126:.\GY80.c      ****     ACC[2] = (ADXL_READ[5]<<8) + ADXL_READ[4];
 334              		.loc 1 126 0
 335 0072 5A79     		ldrb	r2, [r3, #5]	@ zero_extendqisi2
 336 0074 1B79     		ldrb	r3, [r3, #4]	@ zero_extendqisi2
 337 0076 03EB0223 		add	r3, r3, r2, lsl #8
 338 007a A380     		strh	r3, [r4, #4]	@ movhi
 127:.\GY80.c      **** }
 339              		.loc 1 127 0
 340 007c 02B0     		add	sp, sp, #8
 341              		.cfi_def_cfa_offset 8
 342              		@ sp needed
 343 007e 10BD     		pop	{r4, pc}
 344              	.LVL26:
 345              	.L30:
 346              		.align	2
 347              	.L29:
 348 0080 00000000 		.word	L3G_READ
 349 0084 00000000 		.word	ADXL_READ
 350              		.cfi_endproc
 351              	.LFE66:
 352              		.size	get_raw_acc, .-get_raw_acc
 353              		.global	__aeabi_i2d
 354              		.global	__aeabi_d2iz
 355              		.global	__aeabi_ddiv
 356              		.global	__aeabi_dmul
 357              		.global	__aeabi_d2f
 358              		.section	.text.get_raw_euler2,"ax",%progbits
 359              		.align	2
 360              		.global	get_raw_euler2
 361              		.thumb
 362              		.thumb_func
 363              		.type	get_raw_euler2, %function
 364              	get_raw_euler2:
 365              	.LFB67:
 128:.\GY80.c      **** 
 129:.\GY80.c      **** //get the Euler Angle
 130:.\GY80.c      **** void get_raw_euler2(float* EULER, int16* acc)
 131:.\GY80.c      **** {
 366              		.loc 1 131 0
 367              		.cfi_startproc
 368              		@ args = 0, pretend = 0, frame = 0
 369              		@ frame_needed = 0, uses_anonymous_args = 0
 370              	.LVL27:
 371 0000 2DE97043 		push	{r4, r5, r6, r8, r9, lr}
 372              		.cfi_def_cfa_offset 24
 373              		.cfi_offset 4, -24
 374              		.cfi_offset 5, -20
 375              		.cfi_offset 6, -16
 376              		.cfi_offset 8, -12
 377              		.cfi_offset 9, -8
 378              		.cfi_offset 14, -4
 379 0004 0646     		mov	r6, r0
 380 0006 0C46     		mov	r4, r1
 132:.\GY80.c      ****     Total_ACC = sqrt(acc[0]*acc[0]+acc[1]*acc[1]+acc[2]*acc[2]);
 381              		.loc 1 132 0
ARM GAS  C:\Users\admin\AppData\Local\Temp\ccOlWYIz.s 			page 10


 382 0008 B1F90050 		ldrsh	r5, [r1]
 383 000c B1F90230 		ldrsh	r3, [r1, #2]
 384 0010 03FB03F3 		mul	r3, r3, r3
 385 0014 05FB0533 		mla	r3, r5, r5, r3
 386 0018 B1F90450 		ldrsh	r5, [r1, #4]
 387 001c 05FB0535 		mla	r5, r5, r5, r3
 388 0020 2846     		mov	r0, r5
 389              	.LVL28:
 390 0022 FFF7FEFF 		bl	__aeabi_i2d
 391              	.LVL29:
 392 0026 FFF7FEFF 		bl	sqrt
 393              	.LVL30:
 394 002a 314D     		ldr	r5, .L33+8
 395 002c FFF7FEFF 		bl	__aeabi_d2iz
 396              	.LVL31:
 397 0030 2860     		str	r0, [r5]
 133:.\GY80.c      ****     //EULER[0] = acos((double)acc[0]/Total_ACC)*180/3.1416;
 134:.\GY80.c      ****     //EULER[1] = acos((double)acc[1]/Total_ACC)*180/3.1416;
 135:.\GY80.c      ****     EULER[0] = atan((double)acc[1]/acc[2])*180/3.1416;
 398              		.loc 1 135 0
 399 0032 B4F90200 		ldrsh	r0, [r4, #2]
 400 0036 FFF7FEFF 		bl	__aeabi_i2d
 401              	.LVL32:
 402 003a 8046     		mov	r8, r0
 403 003c 8946     		mov	r9, r1
 404 003e B4F90400 		ldrsh	r0, [r4, #4]
 405 0042 FFF7FEFF 		bl	__aeabi_i2d
 406              	.LVL33:
 407 0046 0246     		mov	r2, r0
 408 0048 0B46     		mov	r3, r1
 409 004a 4046     		mov	r0, r8
 410 004c 4946     		mov	r1, r9
 411 004e FFF7FEFF 		bl	__aeabi_ddiv
 412              	.LVL34:
 413 0052 FFF7FEFF 		bl	atan
 414              	.LVL35:
 415 0056 0022     		movs	r2, #0
 416 0058 264B     		ldr	r3, .L33+12
 417 005a FFF7FEFF 		bl	__aeabi_dmul
 418              	.LVL36:
 419 005e 22A3     		adr	r3, .L33
 420 0060 D3E90023 		ldrd	r2, [r3]
 421 0064 FFF7FEFF 		bl	__aeabi_ddiv
 422              	.LVL37:
 423 0068 FFF7FEFF 		bl	__aeabi_d2f
 424              	.LVL38:
 425 006c 3060     		str	r0, [r6]	@ float
 136:.\GY80.c      ****     EULER[1] = atan((double)acc[0]/acc[2])*180/3.1416;
 426              		.loc 1 136 0
 427 006e B4F90000 		ldrsh	r0, [r4]
 428 0072 FFF7FEFF 		bl	__aeabi_i2d
 429              	.LVL39:
 430 0076 8046     		mov	r8, r0
 431 0078 8946     		mov	r9, r1
 432 007a B4F90400 		ldrsh	r0, [r4, #4]
 433 007e FFF7FEFF 		bl	__aeabi_i2d
 434              	.LVL40:
ARM GAS  C:\Users\admin\AppData\Local\Temp\ccOlWYIz.s 			page 11


 435 0082 0246     		mov	r2, r0
 436 0084 0B46     		mov	r3, r1
 437 0086 4046     		mov	r0, r8
 438 0088 4946     		mov	r1, r9
 439 008a FFF7FEFF 		bl	__aeabi_ddiv
 440              	.LVL41:
 441 008e FFF7FEFF 		bl	atan
 442              	.LVL42:
 443 0092 0022     		movs	r2, #0
 444 0094 174B     		ldr	r3, .L33+12
 445 0096 FFF7FEFF 		bl	__aeabi_dmul
 446              	.LVL43:
 447 009a 13A3     		adr	r3, .L33
 448 009c D3E90023 		ldrd	r2, [r3]
 449 00a0 FFF7FEFF 		bl	__aeabi_ddiv
 450              	.LVL44:
 451 00a4 FFF7FEFF 		bl	__aeabi_d2f
 452              	.LVL45:
 453 00a8 7060     		str	r0, [r6, #4]	@ float
 137:.\GY80.c      ****     EULER[2] = acos((double)acc[2]/Total_ACC)*180/3.1416;
 454              		.loc 1 137 0
 455 00aa B4F90400 		ldrsh	r0, [r4, #4]
 456 00ae FFF7FEFF 		bl	__aeabi_i2d
 457              	.LVL46:
 458 00b2 8046     		mov	r8, r0
 459 00b4 8946     		mov	r9, r1
 460 00b6 2868     		ldr	r0, [r5]
 461 00b8 FFF7FEFF 		bl	__aeabi_i2d
 462              	.LVL47:
 463 00bc 0246     		mov	r2, r0
 464 00be 0B46     		mov	r3, r1
 465 00c0 4046     		mov	r0, r8
 466 00c2 4946     		mov	r1, r9
 467 00c4 FFF7FEFF 		bl	__aeabi_ddiv
 468              	.LVL48:
 469 00c8 FFF7FEFF 		bl	acos
 470              	.LVL49:
 471 00cc 0022     		movs	r2, #0
 472 00ce 094B     		ldr	r3, .L33+12
 473 00d0 FFF7FEFF 		bl	__aeabi_dmul
 474              	.LVL50:
 475 00d4 04A3     		adr	r3, .L33
 476 00d6 D3E90023 		ldrd	r2, [r3]
 477 00da FFF7FEFF 		bl	__aeabi_ddiv
 478              	.LVL51:
 479 00de FFF7FEFF 		bl	__aeabi_d2f
 480              	.LVL52:
 481 00e2 B060     		str	r0, [r6, #8]	@ float
 482 00e4 BDE87083 		pop	{r4, r5, r6, r8, r9, pc}
 483              	.LVL53:
 484              	.L34:
 485              		.align	3
 486              	.L33:
 487 00e8 A7E8482E 		.word	776530087
 488 00ec FF210940 		.word	1074340351
 489 00f0 00000000 		.word	Total_ACC
 490 00f4 00806640 		.word	1080459264
ARM GAS  C:\Users\admin\AppData\Local\Temp\ccOlWYIz.s 			page 12


 491              		.cfi_endproc
 492              	.LFE67:
 493              		.size	get_raw_euler2, .-get_raw_euler2
 494              		.section	.text.get_raw_euler,"ax",%progbits
 495              		.align	2
 496              		.global	get_raw_euler
 497              		.thumb
 498              		.thumb_func
 499              		.type	get_raw_euler, %function
 500              	get_raw_euler:
 501              	.LFB68:
 138:.\GY80.c      **** }
 139:.\GY80.c      **** 
 140:.\GY80.c      **** void get_raw_euler(float* EULER, int16* acc)
 141:.\GY80.c      **** {
 502              		.loc 1 141 0
 503              		.cfi_startproc
 504              		@ args = 0, pretend = 0, frame = 0
 505              		@ frame_needed = 0, uses_anonymous_args = 0
 506              	.LVL54:
 507 0000 2DE9F843 		push	{r3, r4, r5, r6, r7, r8, r9, lr}
 508              		.cfi_def_cfa_offset 32
 509              		.cfi_offset 3, -32
 510              		.cfi_offset 4, -28
 511              		.cfi_offset 5, -24
 512              		.cfi_offset 6, -20
 513              		.cfi_offset 7, -16
 514              		.cfi_offset 8, -12
 515              		.cfi_offset 9, -8
 516              		.cfi_offset 14, -4
 517 0004 0646     		mov	r6, r0
 518 0006 0C46     		mov	r4, r1
 142:.\GY80.c      ****     Total_ACC = sqrt(acc[0]*acc[0]+acc[1]*acc[1]+acc[2]*acc[2]);
 519              		.loc 1 142 0
 520 0008 B1F90050 		ldrsh	r5, [r1]
 521 000c B1F90230 		ldrsh	r3, [r1, #2]
 522 0010 03FB03F3 		mul	r3, r3, r3
 523 0014 05FB0533 		mla	r3, r5, r5, r3
 524 0018 B1F90450 		ldrsh	r5, [r1, #4]
 525 001c 05FB0535 		mla	r5, r5, r5, r3
 526 0020 2846     		mov	r0, r5
 527              	.LVL55:
 528 0022 FFF7FEFF 		bl	__aeabi_i2d
 529              	.LVL56:
 530 0026 FFF7FEFF 		bl	sqrt
 531              	.LVL57:
 532 002a FFF7FEFF 		bl	__aeabi_d2iz
 533              	.LVL58:
 534 002e 0746     		mov	r7, r0
 535 0030 2F4D     		ldr	r5, .L37+8
 536 0032 2860     		str	r0, [r5]
 143:.\GY80.c      ****     EULER[0] = acos((double)acc[0]/Total_ACC)*180/3.1416;
 537              		.loc 1 143 0
 538 0034 B4F90000 		ldrsh	r0, [r4]
 539 0038 FFF7FEFF 		bl	__aeabi_i2d
 540              	.LVL59:
 541 003c 8046     		mov	r8, r0
ARM GAS  C:\Users\admin\AppData\Local\Temp\ccOlWYIz.s 			page 13


 542 003e 8946     		mov	r9, r1
 543 0040 3846     		mov	r0, r7
 544 0042 FFF7FEFF 		bl	__aeabi_i2d
 545              	.LVL60:
 546 0046 0246     		mov	r2, r0
 547 0048 0B46     		mov	r3, r1
 548 004a 4046     		mov	r0, r8
 549 004c 4946     		mov	r1, r9
 550 004e FFF7FEFF 		bl	__aeabi_ddiv
 551              	.LVL61:
 552 0052 FFF7FEFF 		bl	acos
 553              	.LVL62:
 554 0056 0022     		movs	r2, #0
 555 0058 264B     		ldr	r3, .L37+12
 556 005a FFF7FEFF 		bl	__aeabi_dmul
 557              	.LVL63:
 558 005e 22A3     		adr	r3, .L37
 559 0060 D3E90023 		ldrd	r2, [r3]
 560 0064 FFF7FEFF 		bl	__aeabi_ddiv
 561              	.LVL64:
 562 0068 FFF7FEFF 		bl	__aeabi_d2f
 563              	.LVL65:
 564 006c 3060     		str	r0, [r6]	@ float
 144:.\GY80.c      ****     EULER[1] = acos((double)acc[1]/Total_ACC)*180/3.1416;
 565              		.loc 1 144 0
 566 006e B4F90200 		ldrsh	r0, [r4, #2]
 567 0072 FFF7FEFF 		bl	__aeabi_i2d
 568              	.LVL66:
 569 0076 8046     		mov	r8, r0
 570 0078 8946     		mov	r9, r1
 571 007a 2868     		ldr	r0, [r5]
 572 007c FFF7FEFF 		bl	__aeabi_i2d
 573              	.LVL67:
 574 0080 0246     		mov	r2, r0
 575 0082 0B46     		mov	r3, r1
 576 0084 4046     		mov	r0, r8
 577 0086 4946     		mov	r1, r9
 578 0088 FFF7FEFF 		bl	__aeabi_ddiv
 579              	.LVL68:
 580 008c FFF7FEFF 		bl	acos
 581              	.LVL69:
 582 0090 0022     		movs	r2, #0
 583 0092 184B     		ldr	r3, .L37+12
 584 0094 FFF7FEFF 		bl	__aeabi_dmul
 585              	.LVL70:
 586 0098 13A3     		adr	r3, .L37
 587 009a D3E90023 		ldrd	r2, [r3]
 588 009e FFF7FEFF 		bl	__aeabi_ddiv
 589              	.LVL71:
 590 00a2 FFF7FEFF 		bl	__aeabi_d2f
 591              	.LVL72:
 592 00a6 7060     		str	r0, [r6, #4]	@ float
 145:.\GY80.c      ****     EULER[2] = acos((double)acc[2]/Total_ACC)*180/3.1416;
 593              		.loc 1 145 0
 594 00a8 B4F90400 		ldrsh	r0, [r4, #4]
 595 00ac FFF7FEFF 		bl	__aeabi_i2d
 596              	.LVL73:
ARM GAS  C:\Users\admin\AppData\Local\Temp\ccOlWYIz.s 			page 14


 597 00b0 8046     		mov	r8, r0
 598 00b2 8946     		mov	r9, r1
 599 00b4 2868     		ldr	r0, [r5]
 600 00b6 FFF7FEFF 		bl	__aeabi_i2d
 601              	.LVL74:
 602 00ba 0246     		mov	r2, r0
 603 00bc 0B46     		mov	r3, r1
 604 00be 4046     		mov	r0, r8
 605 00c0 4946     		mov	r1, r9
 606 00c2 FFF7FEFF 		bl	__aeabi_ddiv
 607              	.LVL75:
 608 00c6 FFF7FEFF 		bl	acos
 609              	.LVL76:
 610 00ca 0022     		movs	r2, #0
 611 00cc 094B     		ldr	r3, .L37+12
 612 00ce FFF7FEFF 		bl	__aeabi_dmul
 613              	.LVL77:
 614 00d2 05A3     		adr	r3, .L37
 615 00d4 D3E90023 		ldrd	r2, [r3]
 616 00d8 FFF7FEFF 		bl	__aeabi_ddiv
 617              	.LVL78:
 618 00dc FFF7FEFF 		bl	__aeabi_d2f
 619              	.LVL79:
 620 00e0 B060     		str	r0, [r6, #8]	@ float
 621 00e2 BDE8F883 		pop	{r3, r4, r5, r6, r7, r8, r9, pc}
 622              	.LVL80:
 623              	.L38:
 624 00e6 00BF     		.align	3
 625              	.L37:
 626 00e8 A7E8482E 		.word	776530087
 627 00ec FF210940 		.word	1074340351
 628 00f0 00000000 		.word	Total_ACC
 629 00f4 00806640 		.word	1080459264
 630              		.cfi_endproc
 631              	.LFE68:
 632              		.size	get_raw_euler, .-get_raw_euler
 633              		.comm	Total_ACC,4,4
 634              		.comm	ADXL_READ,6,4
 635              		.comm	L3G_READ,6,4
 636              		.section	.rodata
 637              		.align	2
 638              		.set	.LANCHOR0,. + 0
 639              	.LC0:
 640 0000 A0       		.byte	-96
 641 0001 0F       		.byte	15
 642 0002 00       		.byte	0
 643 0003 08       		.byte	8
 644 0004 30       		.byte	48
 645 0005 00       		.byte	0
 646 0006 0000     		.space	2
 647              	.LC1:
 648 0008 B1       		.byte	-79
 649 0009 08       		.byte	8
 650 000a AD       		.byte	-83
 651 000b 08       		.byte	8
 652 000c 80       		.byte	-128
 653 000d 000000   		.text
ARM GAS  C:\Users\admin\AppData\Local\Temp\ccOlWYIz.s 			page 15


 654              	.Letext0:
 655              		.file 2 "d:\\program files (x86)\\cypress\\psoc creator\\3.3\\psoc creator\\import\\gnu\\arm\\4.9.
 656              		.file 3 "d:\\program files (x86)\\cypress\\psoc creator\\3.3\\psoc creator\\import\\gnu\\arm\\4.9.
 657              		.file 4 "Generated_Source\\PSoC5/cytypes.h"
 658              		.file 5 "Generated_Source\\PSoC5/core_cm3.h"
 659              		.file 6 "Generated_Source\\PSoC5/I2C_UDB_M.h"
 660              		.file 7 "d:\\program files (x86)\\cypress\\psoc creator\\3.3\\psoc creator\\import\\gnu\\arm\\4.9.