ARM GAS  C:\Users\ADMINI~1\AppData\Local\Temp\cciWlNAe.s 			page 1


   1              		.syntax unified
   2              		.cpu cortex-m3
   3              		.fpu softvfp
   4              		.eabi_attribute 20, 1
   5              		.eabi_attribute 21, 1
   6              		.eabi_attribute 23, 3
   7              		.eabi_attribute 24, 1
   8              		.eabi_attribute 25, 1
   9              		.eabi_attribute 26, 1
  10              		.eabi_attribute 30, 1
  11              		.eabi_attribute 34, 1
  12              		.eabi_attribute 18, 4
  13              		.thumb
  14              		.file	"main.c"
  15              		.text
  16              	.Ltext0:
  17              		.cfi_sections	.debug_frame
  18              		.section	.text.Set_Motor_1_Speed,"ax",%progbits
  19              		.align	2
  20              		.global	Set_Motor_1_Speed
  21              		.thumb
  22              		.thumb_func
  23              		.type	Set_Motor_1_Speed, %function
  24              	Set_Motor_1_Speed:
  25              	.LFB63:
  26              		.file 1 ".\\Motors.h"
   1:.\Motors.h    **** /*
   2:.\Motors.h    ****  *     4         3
   3:.\Motors.h    ****  *      \       /
   4:.\Motors.h    ****  *       \     /
   5:.\Motors.h    ****  *        \---/
   6:.\Motors.h    ****  *        |   |
   7:.\Motors.h    ****  *        /---\
   8:.\Motors.h    ****  *       /     \
   9:.\Motors.h    ****  *      / Front \
  10:.\Motors.h    ****  *     1         2
  11:.\Motors.h    ****  */
  12:.\Motors.h    **** 
  13:.\Motors.h    **** #ifndef MOTORS_H_
  14:.\Motors.h    **** #define MOTORS_H_
  15:.\Motors.h    **** 
  16:.\Motors.h    **** #include <project.h>
  17:.\Motors.h    **** 
  18:.\Motors.h    **** //Speed should be between 0 and 1000
  19:.\Motors.h    **** void Set_Motor_1_Speed(int speed) {
  27              		.loc 1 19 0
  28              		.cfi_startproc
  29              		@ args = 0, pretend = 0, frame = 0
  30              		@ frame_needed = 0, uses_anonymous_args = 0
  31              	.LVL0:
  20:.\Motors.h    ****     if(speed < 0 || speed > 1000)
  32              		.loc 1 20 0
  33 0000 B0F57A7F 		cmp	r0, #1000
  34 0004 06D8     		bhi	.L4
  19:.\Motors.h    ****     if(speed < 0 || speed > 1000)
  35              		.loc 1 19 0
  36 0006 08B5     		push	{r3, lr}
ARM GAS  C:\Users\ADMINI~1\AppData\Local\Temp\cciWlNAe.s 			page 2


  37              		.cfi_def_cfa_offset 8
  38              		.cfi_offset 3, -8
  39              		.cfi_offset 14, -4
  21:.\Motors.h    ****         return;
  22:.\Motors.h    ****     PWM_1_WriteCompare1(999 + speed);
  40              		.loc 1 22 0
  41 0008 00F2E730 		addw	r0, r0, #999
  42              	.LVL1:
  43 000c 80B2     		uxth	r0, r0
  44              	.LVL2:
  45 000e FFF7FEFF 		bl	PWM_1_WriteCompare1
  46              	.LVL3:
  47 0012 08BD     		pop	{r3, pc}
  48              	.LVL4:
  49              	.L4:
  50              		.cfi_def_cfa_offset 0
  51              		.cfi_restore 3
  52              		.cfi_restore 14
  53 0014 7047     		bx	lr
  54              		.cfi_endproc
  55              	.LFE63:
  56              		.size	Set_Motor_1_Speed, .-Set_Motor_1_Speed
  57 0016 00BF     		.section	.text.Set_Motor_2_Speed,"ax",%progbits
  58              		.align	2
  59              		.global	Set_Motor_2_Speed
  60              		.thumb
  61              		.thumb_func
  62              		.type	Set_Motor_2_Speed, %function
  63              	Set_Motor_2_Speed:
  64              	.LFB64:
  23:.\Motors.h    **** }
  24:.\Motors.h    **** 
  25:.\Motors.h    **** void Set_Motor_2_Speed(int speed) {
  65              		.loc 1 25 0
  66              		.cfi_startproc
  67              		@ args = 0, pretend = 0, frame = 0
  68              		@ frame_needed = 0, uses_anonymous_args = 0
  69              	.LVL5:
  26:.\Motors.h    ****     if(speed < 0 || speed > 1000)
  70              		.loc 1 26 0
  71 0000 B0F57A7F 		cmp	r0, #1000
  72 0004 06D8     		bhi	.L8
  25:.\Motors.h    ****     if(speed < 0 || speed > 1000)
  73              		.loc 1 25 0
  74 0006 08B5     		push	{r3, lr}
  75              		.cfi_def_cfa_offset 8
  76              		.cfi_offset 3, -8
  77              		.cfi_offset 14, -4
  27:.\Motors.h    ****         return;
  28:.\Motors.h    ****     PWM_1_WriteCompare2(999 + speed);
  78              		.loc 1 28 0
  79 0008 00F2E730 		addw	r0, r0, #999
  80              	.LVL6:
  81 000c 80B2     		uxth	r0, r0
  82              	.LVL7:
  83 000e FFF7FEFF 		bl	PWM_1_WriteCompare2
  84              	.LVL8:
ARM GAS  C:\Users\ADMINI~1\AppData\Local\Temp\cciWlNAe.s 			page 3


  85 0012 08BD     		pop	{r3, pc}
  86              	.LVL9:
  87              	.L8:
  88              		.cfi_def_cfa_offset 0
  89              		.cfi_restore 3
  90              		.cfi_restore 14
  91 0014 7047     		bx	lr
  92              		.cfi_endproc
  93              	.LFE64:
  94              		.size	Set_Motor_2_Speed, .-Set_Motor_2_Speed
  95 0016 00BF     		.section	.text.Set_Motor_3_Speed,"ax",%progbits
  96              		.align	2
  97              		.global	Set_Motor_3_Speed
  98              		.thumb
  99              		.thumb_func
 100              		.type	Set_Motor_3_Speed, %function
 101              	Set_Motor_3_Speed:
 102              	.LFB65:
  29:.\Motors.h    **** }
  30:.\Motors.h    **** 
  31:.\Motors.h    **** void Set_Motor_3_Speed(int speed) {
 103              		.loc 1 31 0
 104              		.cfi_startproc
 105              		@ args = 0, pretend = 0, frame = 0
 106              		@ frame_needed = 0, uses_anonymous_args = 0
 107              	.LVL10:
  32:.\Motors.h    ****     if(speed < 0 || speed > 1000)
 108              		.loc 1 32 0
 109 0000 B0F57A7F 		cmp	r0, #1000
 110 0004 06D8     		bhi	.L12
  31:.\Motors.h    ****     if(speed < 0 || speed > 1000)
 111              		.loc 1 31 0
 112 0006 08B5     		push	{r3, lr}
 113              		.cfi_def_cfa_offset 8
 114              		.cfi_offset 3, -8
 115              		.cfi_offset 14, -4
  33:.\Motors.h    ****         return;
  34:.\Motors.h    ****     PWM_2_WriteCompare1(999 + speed);
 116              		.loc 1 34 0
 117 0008 00F2E730 		addw	r0, r0, #999
 118              	.LVL11:
 119 000c 80B2     		uxth	r0, r0
 120              	.LVL12:
 121 000e FFF7FEFF 		bl	PWM_2_WriteCompare1
 122              	.LVL13:
 123 0012 08BD     		pop	{r3, pc}
 124              	.LVL14:
 125              	.L12:
 126              		.cfi_def_cfa_offset 0
 127              		.cfi_restore 3
 128              		.cfi_restore 14
 129 0014 7047     		bx	lr
 130              		.cfi_endproc
 131              	.LFE65:
 132              		.size	Set_Motor_3_Speed, .-Set_Motor_3_Speed
 133 0016 00BF     		.section	.text.Set_Motor_4_Speed,"ax",%progbits
 134              		.align	2
ARM GAS  C:\Users\ADMINI~1\AppData\Local\Temp\cciWlNAe.s 			page 4


 135              		.global	Set_Motor_4_Speed
 136              		.thumb
 137              		.thumb_func
 138              		.type	Set_Motor_4_Speed, %function
 139              	Set_Motor_4_Speed:
 140              	.LFB66:
  35:.\Motors.h    **** }
  36:.\Motors.h    **** 
  37:.\Motors.h    **** void Set_Motor_4_Speed(int speed) {
 141              		.loc 1 37 0
 142              		.cfi_startproc
 143              		@ args = 0, pretend = 0, frame = 0
 144              		@ frame_needed = 0, uses_anonymous_args = 0
 145              	.LVL15:
  38:.\Motors.h    ****     if(speed < 0 || speed > 1000)
 146              		.loc 1 38 0
 147 0000 B0F57A7F 		cmp	r0, #1000
 148 0004 06D8     		bhi	.L16
  37:.\Motors.h    ****     if(speed < 0 || speed > 1000)
 149              		.loc 1 37 0
 150 0006 08B5     		push	{r3, lr}
 151              		.cfi_def_cfa_offset 8
 152              		.cfi_offset 3, -8
 153              		.cfi_offset 14, -4
  39:.\Motors.h    ****         return;
  40:.\Motors.h    ****     PWM_2_WriteCompare2(999 + speed);
 154              		.loc 1 40 0
 155 0008 00F2E730 		addw	r0, r0, #999
 156              	.LVL16:
 157 000c 80B2     		uxth	r0, r0
 158              	.LVL17:
 159 000e FFF7FEFF 		bl	PWM_2_WriteCompare2
 160              	.LVL18:
 161 0012 08BD     		pop	{r3, pc}
 162              	.LVL19:
 163              	.L16:
 164              		.cfi_def_cfa_offset 0
 165              		.cfi_restore 3
 166              		.cfi_restore 14
 167 0014 7047     		bx	lr
 168              		.cfi_endproc
 169              	.LFE66:
 170              		.size	Set_Motor_4_Speed, .-Set_Motor_4_Speed
 171 0016 00BF     		.section	.text.Timer_1_Interrupt_Handler,"ax",%progbits
 172              		.align	2
 173              		.global	Timer_1_Interrupt_Handler
 174              		.thumb
 175              		.thumb_func
 176              		.type	Timer_1_Interrupt_Handler, %function
 177              	Timer_1_Interrupt_Handler:
 178              	.LFB75:
 179              		.file 2 ".\\main.c"
   1:.\main.c      **** /* ========================================
   2:.\main.c      ****  *
   3:.\main.c      ****  * Copyright YOUR COMPANY, THE YEAR
   4:.\main.c      ****  * All Rights Reserved
   5:.\main.c      ****  * UNPUBLISHED, LICENSED SOFTWARE.
ARM GAS  C:\Users\ADMINI~1\AppData\Local\Temp\cciWlNAe.s 			page 5


   6:.\main.c      ****  *
   7:.\main.c      ****  * CONFIDENTIAL AND PROPRIETARY INFORMATION
   8:.\main.c      ****  * WHICH IS THE PROPERTY OF your company.
   9:.\main.c      ****  *
  10:.\main.c      ****  * ========================================
  11:.\main.c      **** */
  12:.\main.c      **** #include <project.h>
  13:.\main.c      **** #include "Motors.h"
  14:.\main.c      **** #include "BlueTooth.h"
  15:.\main.c      **** #include "Control.h"
  16:.\main.c      **** #include <stdio.h>
  17:.\main.c      **** #include "math.h"
  18:.\main.c      **** #include "JY901.h"
  19:.\main.c      **** 
  20:.\main.c      **** //LCD显示
  21:.\main.c      **** void LCD_Disp(char *str, unsigned char row, unsigned char col) {
  22:.\main.c      ****     LCD_Position(row, col);
  23:.\main.c      ****     LCD_PrintString(str);
  24:.\main.c      **** }
  25:.\main.c      **** 
  26:.\main.c      **** #ifndef ABS
  27:.\main.c      ****     #define ABS(x) (((x)>0)?(x):(-(x)))
  28:.\main.c      **** #endif
  29:.\main.c      **** //小数显示（不知道为什么sprintf不能用%f）
  30:.\main.c      **** void Convert_Float2String(char *str, float x) {
  31:.\main.c      ****     uint8 symbol = (x > 0.0) ? 1 : 0;
  32:.\main.c      ****     float num = ABS(x);
  33:.\main.c      ****     int int_part = (int)num;
  34:.\main.c      ****     int float_2part = (int)((num - int_part)*100.0); //取两位小数
  35:.\main.c      ****     if(float_2part >= 10)
  36:.\main.c      ****         sprintf(str, "%c%d.%d", (symbol == 1)?'+':'-', int_part, float_2part);
  37:.\main.c      ****     else
  38:.\main.c      ****         if(float_2part > 0)
  39:.\main.c      ****             sprintf(str, "%c%d.0%d", (symbol == 1)?'+':'-', int_part, float_2part);
  40:.\main.c      ****         else
  41:.\main.c      ****             sprintf(str, "%c%d.00", (symbol == 1)?'+':'-', int_part);
  42:.\main.c      **** }
  43:.\main.c      **** 
  44:.\main.c      **** //电机速度控制
  45:.\main.c      **** volatile int Motor_v_1, Motor_v_2,  Motor_v_3,  Motor_v_4;
  46:.\main.c      **** int last_Motor_v_1, last_Motor_v_2, last_Motor_v_3, last_Motor_v_4;
  47:.\main.c      **** 
  48:.\main.c      **** CY_ISR(Timer_1_Interrupt_Handler) {
 180              		.loc 2 48 0
 181              		.cfi_startproc
 182              		@ args = 0, pretend = 0, frame = 0
 183              		@ frame_needed = 0, uses_anonymous_args = 0
 184 0000 10B5     		push	{r4, lr}
 185              		.cfi_def_cfa_offset 8
 186              		.cfi_offset 4, -8
 187              		.cfi_offset 14, -4
  49:.\main.c      ****     Timer_1_STATUS;
 188              		.loc 2 49 0
 189 0002 214B     		ldr	r3, .L27
 190 0004 1B78     		ldrb	r3, [r3]	@ zero_extendqisi2
  50:.\main.c      ****     if(Motor_v_1 != last_Motor_v_1 || Motor_v_1 == 0) {
 191              		.loc 2 50 0
ARM GAS  C:\Users\ADMINI~1\AppData\Local\Temp\cciWlNAe.s 			page 6


 192 0006 214B     		ldr	r3, .L27+4
 193 0008 1A68     		ldr	r2, [r3]
 194 000a 214B     		ldr	r3, .L27+8
 195 000c 1B68     		ldr	r3, [r3]
 196 000e 9A42     		cmp	r2, r3
 197 0010 02D1     		bne	.L18
 198              		.loc 2 50 0 is_stmt 0 discriminator 1
 199 0012 1E4B     		ldr	r3, .L27+4
 200 0014 1B68     		ldr	r3, [r3]
 201 0016 33B9     		cbnz	r3, .L19
 202              	.L18:
  51:.\main.c      ****         Set_Motor_1_Speed(Motor_v_1);
 203              		.loc 2 51 0 is_stmt 1
 204 0018 1C4C     		ldr	r4, .L27+4
 205 001a 2068     		ldr	r0, [r4]
 206 001c FFF7FEFF 		bl	Set_Motor_1_Speed
 207              	.LVL20:
  52:.\main.c      ****         last_Motor_v_1 = Motor_v_1;
 208              		.loc 2 52 0
 209 0020 2268     		ldr	r2, [r4]
 210 0022 1B4B     		ldr	r3, .L27+8
 211 0024 1A60     		str	r2, [r3]
 212              	.L19:
  53:.\main.c      ****     }
  54:.\main.c      ****     if(Motor_v_2 != last_Motor_v_2 || Motor_v_2 == 0) {
 213              		.loc 2 54 0
 214 0026 1B4B     		ldr	r3, .L27+12
 215 0028 1A68     		ldr	r2, [r3]
 216 002a 1B4B     		ldr	r3, .L27+16
 217 002c 1B68     		ldr	r3, [r3]
 218 002e 9A42     		cmp	r2, r3
 219 0030 02D1     		bne	.L20
 220              		.loc 2 54 0 is_stmt 0 discriminator 1
 221 0032 184B     		ldr	r3, .L27+12
 222 0034 1B68     		ldr	r3, [r3]
 223 0036 33B9     		cbnz	r3, .L21
 224              	.L20:
  55:.\main.c      ****         Set_Motor_2_Speed(Motor_v_2);
 225              		.loc 2 55 0 is_stmt 1
 226 0038 164C     		ldr	r4, .L27+12
 227 003a 2068     		ldr	r0, [r4]
 228 003c FFF7FEFF 		bl	Set_Motor_2_Speed
 229              	.LVL21:
  56:.\main.c      ****         last_Motor_v_2 = Motor_v_2;
 230              		.loc 2 56 0
 231 0040 2268     		ldr	r2, [r4]
 232 0042 154B     		ldr	r3, .L27+16
 233 0044 1A60     		str	r2, [r3]
 234              	.L21:
  57:.\main.c      ****     }
  58:.\main.c      ****     if(Motor_v_3 != last_Motor_v_3 || Motor_v_3 == 0) {
 235              		.loc 2 58 0
 236 0046 154B     		ldr	r3, .L27+20
 237 0048 1A68     		ldr	r2, [r3]
 238 004a 154B     		ldr	r3, .L27+24
 239 004c 1B68     		ldr	r3, [r3]
 240 004e 9A42     		cmp	r2, r3
ARM GAS  C:\Users\ADMINI~1\AppData\Local\Temp\cciWlNAe.s 			page 7


 241 0050 02D1     		bne	.L22
 242              		.loc 2 58 0 is_stmt 0 discriminator 1
 243 0052 124B     		ldr	r3, .L27+20
 244 0054 1B68     		ldr	r3, [r3]
 245 0056 33B9     		cbnz	r3, .L23
 246              	.L22:
  59:.\main.c      ****         Set_Motor_3_Speed(Motor_v_3);
 247              		.loc 2 59 0 is_stmt 1
 248 0058 104C     		ldr	r4, .L27+20
 249 005a 2068     		ldr	r0, [r4]
 250 005c FFF7FEFF 		bl	Set_Motor_3_Speed
 251              	.LVL22:
  60:.\main.c      ****         last_Motor_v_3 = Motor_v_3;
 252              		.loc 2 60 0
 253 0060 2268     		ldr	r2, [r4]
 254 0062 0F4B     		ldr	r3, .L27+24
 255 0064 1A60     		str	r2, [r3]
 256              	.L23:
  61:.\main.c      ****     }
  62:.\main.c      ****     if(Motor_v_4 != last_Motor_v_4 || Motor_v_4 == 0) {
 257              		.loc 2 62 0
 258 0066 0F4B     		ldr	r3, .L27+28
 259 0068 1A68     		ldr	r2, [r3]
 260 006a 0F4B     		ldr	r3, .L27+32
 261 006c 1B68     		ldr	r3, [r3]
 262 006e 9A42     		cmp	r2, r3
 263 0070 02D1     		bne	.L24
 264              		.loc 2 62 0 is_stmt 0 discriminator 1
 265 0072 0C4B     		ldr	r3, .L27+28
 266 0074 1B68     		ldr	r3, [r3]
 267 0076 33B9     		cbnz	r3, .L17
 268              	.L24:
  63:.\main.c      ****         Set_Motor_4_Speed(Motor_v_4);
 269              		.loc 2 63 0 is_stmt 1
 270 0078 0A4C     		ldr	r4, .L27+28
 271 007a 2068     		ldr	r0, [r4]
 272 007c FFF7FEFF 		bl	Set_Motor_4_Speed
 273              	.LVL23:
  64:.\main.c      ****         last_Motor_v_4 = Motor_v_4;
 274              		.loc 2 64 0
 275 0080 2268     		ldr	r2, [r4]
 276 0082 094B     		ldr	r3, .L27+32
 277 0084 1A60     		str	r2, [r3]
 278              	.L17:
 279 0086 10BD     		pop	{r4, pc}
 280              	.L28:
 281              		.align	2
 282              	.L27:
 283 0088 65650040 		.word	1073767781
 284 008c 00000000 		.word	Motor_v_1
 285 0090 00000000 		.word	last_Motor_v_1
 286 0094 00000000 		.word	Motor_v_2
 287 0098 00000000 		.word	last_Motor_v_2
 288 009c 00000000 		.word	Motor_v_3
 289 00a0 00000000 		.word	last_Motor_v_3
 290 00a4 00000000 		.word	Motor_v_4
 291 00a8 00000000 		.word	last_Motor_v_4
ARM GAS  C:\Users\ADMINI~1\AppData\Local\Temp\cciWlNAe.s 			page 8


 292              		.cfi_endproc
 293              	.LFE75:
 294              		.size	Timer_1_Interrupt_Handler, .-Timer_1_Interrupt_Handler
 295              		.section	.text.Set_All_Motors_Speed,"ax",%progbits
 296              		.align	2
 297              		.global	Set_All_Motors_Speed
 298              		.thumb
 299              		.thumb_func
 300              		.type	Set_All_Motors_Speed, %function
 301              	Set_All_Motors_Speed:
 302              	.LFB67:
  41:.\Motors.h    **** }
  42:.\Motors.h    **** 
  43:.\Motors.h    **** void Set_All_Motors_Speed(int p1, int p2, int p3, int p4) {
 303              		.loc 1 43 0
 304              		.cfi_startproc
 305              		@ args = 0, pretend = 0, frame = 0
 306              		@ frame_needed = 0, uses_anonymous_args = 0
 307              	.LVL24:
 308 0000 70B5     		push	{r4, r5, r6, lr}
 309              		.cfi_def_cfa_offset 16
 310              		.cfi_offset 4, -16
 311              		.cfi_offset 5, -12
 312              		.cfi_offset 6, -8
 313              		.cfi_offset 14, -4
 314 0002 0E46     		mov	r6, r1
 315 0004 1546     		mov	r5, r2
 316 0006 1C46     		mov	r4, r3
  44:.\Motors.h    ****     Set_Motor_1_Speed(p1);
 317              		.loc 1 44 0
 318 0008 FFF7FEFF 		bl	Set_Motor_1_Speed
 319              	.LVL25:
  45:.\Motors.h    ****     Set_Motor_2_Speed(p2);
 320              		.loc 1 45 0
 321 000c 3046     		mov	r0, r6
 322 000e FFF7FEFF 		bl	Set_Motor_2_Speed
 323              	.LVL26:
  46:.\Motors.h    ****     Set_Motor_3_Speed(p3);
 324              		.loc 1 46 0
 325 0012 2846     		mov	r0, r5
 326 0014 FFF7FEFF 		bl	Set_Motor_3_Speed
 327              	.LVL27:
  47:.\Motors.h    ****     Set_Motor_4_Speed(p4);
 328              		.loc 1 47 0
 329 0018 2046     		mov	r0, r4
 330 001a FFF7FEFF 		bl	Set_Motor_4_Speed
 331              	.LVL28:
 332 001e 70BD     		pop	{r4, r5, r6, pc}
 333              		.cfi_endproc
 334              	.LFE67:
 335              		.size	Set_All_Motors_Speed, .-Set_All_Motors_Speed
 336              		.section	.text.Initialize_All_PWM,"ax",%progbits
 337              		.align	2
 338              		.global	Initialize_All_PWM
 339              		.thumb
 340              		.thumb_func
 341              		.type	Initialize_All_PWM, %function
ARM GAS  C:\Users\ADMINI~1\AppData\Local\Temp\cciWlNAe.s 			page 9


 342              	Initialize_All_PWM:
 343              	.LFB68:
  48:.\Motors.h    **** }
  49:.\Motors.h    **** 
  50:.\Motors.h    **** void Initialize_All_PWM() {
 344              		.loc 1 50 0
 345              		.cfi_startproc
 346              		@ args = 0, pretend = 0, frame = 0
 347              		@ frame_needed = 0, uses_anonymous_args = 0
 348 0000 08B5     		push	{r3, lr}
 349              		.cfi_def_cfa_offset 8
 350              		.cfi_offset 3, -8
 351              		.cfi_offset 14, -4
  51:.\Motors.h    ****     PWM_1_Start();
 352              		.loc 1 51 0
 353 0002 FFF7FEFF 		bl	PWM_1_Start
 354              	.LVL29:
  52:.\Motors.h    ****     PWM_2_Start();
 355              		.loc 1 52 0
 356 0006 FFF7FEFF 		bl	PWM_2_Start
 357              	.LVL30:
  53:.\Motors.h    ****     PWM_1_WriteCompare1(0);
 358              		.loc 1 53 0
 359 000a 0020     		movs	r0, #0
 360 000c FFF7FEFF 		bl	PWM_1_WriteCompare1
 361              	.LVL31:
  54:.\Motors.h    ****     PWM_1_WriteCompare2(0);
 362              		.loc 1 54 0
 363 0010 0020     		movs	r0, #0
 364 0012 FFF7FEFF 		bl	PWM_1_WriteCompare2
 365              	.LVL32:
  55:.\Motors.h    ****     PWM_2_WriteCompare1(0);
 366              		.loc 1 55 0
 367 0016 0020     		movs	r0, #0
 368 0018 FFF7FEFF 		bl	PWM_2_WriteCompare1
 369              	.LVL33:
  56:.\Motors.h    ****     PWM_2_WriteCompare2(0);
 370              		.loc 1 56 0
 371 001c 0020     		movs	r0, #0
 372 001e FFF7FEFF 		bl	PWM_2_WriteCompare2
 373              	.LVL34:
 374 0022 08BD     		pop	{r3, pc}
 375              		.cfi_endproc
 376              	.LFE68:
 377              		.size	Initialize_All_PWM, .-Initialize_All_PWM
 378              		.section	.text.Motor_Calibration,"ax",%progbits
 379              		.align	2
 380              		.global	Motor_Calibration
 381              		.thumb
 382              		.thumb_func
 383              		.type	Motor_Calibration, %function
 384              	Motor_Calibration:
 385              	.LFB69:
  57:.\Motors.h    **** }
  58:.\Motors.h    **** 
  59:.\Motors.h    **** void Motor_Calibration() {
 386              		.loc 1 59 0
ARM GAS  C:\Users\ADMINI~1\AppData\Local\Temp\cciWlNAe.s 			page 10


 387              		.cfi_startproc
 388              		@ args = 0, pretend = 0, frame = 0
 389              		@ frame_needed = 0, uses_anonymous_args = 0
 390 0000 08B5     		push	{r3, lr}
 391              		.cfi_def_cfa_offset 8
 392              		.cfi_offset 3, -8
 393              		.cfi_offset 14, -4
  60:.\Motors.h    ****     Set_Motor_1_Speed(1000);
 394              		.loc 1 60 0
 395 0002 4FF47A70 		mov	r0, #1000
 396 0006 FFF7FEFF 		bl	Set_Motor_1_Speed
 397              	.LVL35:
  61:.\Motors.h    ****     Set_Motor_2_Speed(1000);
 398              		.loc 1 61 0
 399 000a 4FF47A70 		mov	r0, #1000
 400 000e FFF7FEFF 		bl	Set_Motor_2_Speed
 401              	.LVL36:
  62:.\Motors.h    ****     Set_Motor_3_Speed(1000);
 402              		.loc 1 62 0
 403 0012 4FF47A70 		mov	r0, #1000
 404 0016 FFF7FEFF 		bl	Set_Motor_3_Speed
 405              	.LVL37:
  63:.\Motors.h    ****     Set_Motor_4_Speed(1000);
 406              		.loc 1 63 0
 407 001a 4FF47A70 		mov	r0, #1000
 408 001e FFF7FEFF 		bl	Set_Motor_4_Speed
 409              	.LVL38:
  64:.\Motors.h    ****     CyDelay(2000);
 410              		.loc 1 64 0
 411 0022 4FF4FA60 		mov	r0, #2000
 412 0026 FFF7FEFF 		bl	CyDelay
 413              	.LVL39:
  65:.\Motors.h    ****     Set_Motor_1_Speed(0);
 414              		.loc 1 65 0
 415 002a 0020     		movs	r0, #0
 416 002c FFF7FEFF 		bl	Set_Motor_1_Speed
 417              	.LVL40:
  66:.\Motors.h    ****     Set_Motor_2_Speed(0);
 418              		.loc 1 66 0
 419 0030 0020     		movs	r0, #0
 420 0032 FFF7FEFF 		bl	Set_Motor_2_Speed
 421              	.LVL41:
  67:.\Motors.h    ****     Set_Motor_3_Speed(0);
 422              		.loc 1 67 0
 423 0036 0020     		movs	r0, #0
 424 0038 FFF7FEFF 		bl	Set_Motor_3_Speed
 425              	.LVL42:
  68:.\Motors.h    ****     Set_Motor_4_Speed(0);
 426              		.loc 1 68 0
 427 003c 0020     		movs	r0, #0
 428 003e FFF7FEFF 		bl	Set_Motor_4_Speed
 429              	.LVL43:
  69:.\Motors.h    ****     CyDelay(1000);
 430              		.loc 1 69 0
 431 0042 4FF47A70 		mov	r0, #1000
 432 0046 FFF7FEFF 		bl	CyDelay
 433              	.LVL44:
ARM GAS  C:\Users\ADMINI~1\AppData\Local\Temp\cciWlNAe.s 			page 11


 434 004a 08BD     		pop	{r3, pc}
 435              		.cfi_endproc
 436              	.LFE69:
 437              		.size	Motor_Calibration, .-Motor_Calibration
 438              		.global	__aeabi_i2d
 439              		.global	__aeabi_ddiv
 440              		.global	__aeabi_d2f
 441              		.global	__aeabi_i2f
 442              		.global	__aeabi_f2d
 443              		.global	__aeabi_dsub
 444              		.global	__aeabi_dmul
 445              		.section	.text.Process_Bluetooth_Message,"ax",%progbits
 446              		.align	2
 447              		.global	Process_Bluetooth_Message
 448              		.thumb
 449              		.thumb_func
 450              		.type	Process_Bluetooth_Message, %function
 451              	Process_Bluetooth_Message:
 452              	.LFB70:
 453              		.file 3 ".\\BlueTooth.h"
   1:.\BlueTooth.h **** #ifndef BLUETOOTH_H_
   2:.\BlueTooth.h **** #define BLUETOOTh_H_
   3:.\BlueTooth.h ****     
   4:.\BlueTooth.h **** #include <project.h>
   5:.\BlueTooth.h **** #include "Motors.h"
   6:.\BlueTooth.h **** #include <stdio.h>
   7:.\BlueTooth.h **** #include <string.h>
   8:.\BlueTooth.h ****     
   9:.\BlueTooth.h **** volatile int BT_Throttle = 0, BT_Yaw = 0, BT_Pitch = 0, BT_Roll = 0;
  10:.\BlueTooth.h **** volatile float roll_angle_offset, pitch_angle_offset;
  11:.\BlueTooth.h **** volatile float Desire_angle_pitch, Desire_angle_roll, Desire_w_yaw;
  12:.\BlueTooth.h ****     
  13:.\BlueTooth.h **** void Process_Bluetooth_Message(uint8 buf[], uint8 buflen) {
 454              		.loc 3 13 0
 455              		.cfi_startproc
 456              		@ args = 0, pretend = 0, frame = 0
 457              		@ frame_needed = 0, uses_anonymous_args = 0
 458              	.LVL45:
 459 0000 38B5     		push	{r3, r4, r5, lr}
 460              		.cfi_def_cfa_offset 16
 461              		.cfi_offset 3, -16
 462              		.cfi_offset 4, -12
 463              		.cfi_offset 5, -8
 464              		.cfi_offset 14, -4
 465              	.LVL46:
  14:.\BlueTooth.h ****     int sum = 0;
  15:.\BlueTooth.h ****     int j;
  16:.\BlueTooth.h ****     for(j = 0; j < 13; j++) //利用校验位进行校验
 466              		.loc 3 16 0
 467 0002 0023     		movs	r3, #0
  14:.\BlueTooth.h ****     int sum = 0;
 468              		.loc 3 14 0
 469 0004 1A46     		mov	r2, r3
 470              		.loc 3 16 0
 471 0006 02E0     		b	.L36
 472              	.LVL47:
 473              	.L37:
ARM GAS  C:\Users\ADMINI~1\AppData\Local\Temp\cciWlNAe.s 			page 12


  17:.\BlueTooth.h ****         sum += buf[j];
 474              		.loc 3 17 0 discriminator 3
 475 0008 C15C     		ldrb	r1, [r0, r3]	@ zero_extendqisi2
 476 000a 0A44     		add	r2, r2, r1
 477              	.LVL48:
  16:.\BlueTooth.h ****         sum += buf[j];
 478              		.loc 3 16 0 discriminator 3
 479 000c 0133     		adds	r3, r3, #1
 480              	.LVL49:
 481              	.L36:
  16:.\BlueTooth.h ****         sum += buf[j];
 482              		.loc 3 16 0 is_stmt 0 discriminator 1
 483 000e 0C2B     		cmp	r3, #12
 484 0010 FADD     		ble	.L37
  18:.\BlueTooth.h ****     if((sum & 0x00ff) != buf[14]) //如果校验失败则直接退出
 485              		.loc 3 18 0 is_stmt 1
 486 0012 D2B2     		uxtb	r2, r2
 487              	.LVL50:
 488 0014 837B     		ldrb	r3, [r0, #14]	@ zero_extendqisi2
 489              	.LVL51:
 490 0016 9A42     		cmp	r2, r3
 491 0018 7BD1     		bne	.L35
 492 001a 0446     		mov	r4, r0
  19:.\BlueTooth.h ****         return;
  20:.\BlueTooth.h ****     
  21:.\BlueTooth.h ****     //通过蓝牙获得的遥控器控制量
  22:.\BlueTooth.h ****     BT_Throttle = (int)buf[2] + ((int)buf[3] << 8);       //油门大小，0-1024
 493              		.loc 3 22 0
 494 001c 8378     		ldrb	r3, [r0, #2]	@ zero_extendqisi2
 495 001e C278     		ldrb	r2, [r0, #3]	@ zero_extendqisi2
 496 0020 03EB0223 		add	r3, r3, r2, lsl #8
 497 0024 3E4D     		ldr	r5, .L40+8
 498 0026 2B60     		str	r3, [r5]
  23:.\BlueTooth.h ****     BT_Yaw = (int)buf[4] + ((int)buf[5] << 8);            //目标偏航角，0-1024
 499              		.loc 3 23 0
 500 0028 0379     		ldrb	r3, [r0, #4]	@ zero_extendqisi2
 501 002a 4279     		ldrb	r2, [r0, #5]	@ zero_extendqisi2
 502 002c 03EB0223 		add	r3, r3, r2, lsl #8
 503 0030 6B60     		str	r3, [r5, #4]
  24:.\BlueTooth.h ****     BT_Roll = 1024 - ((int)buf[6] + ((int)buf[7] << 8));  //目标滚转角，0-1024
 504              		.loc 3 24 0
 505 0032 8379     		ldrb	r3, [r0, #6]	@ zero_extendqisi2
 506 0034 C279     		ldrb	r2, [r0, #7]	@ zero_extendqisi2
 507 0036 03EB0223 		add	r3, r3, r2, lsl #8
 508 003a C3F58063 		rsb	r3, r3, #1024
 509 003e AB60     		str	r3, [r5, #8]
  25:.\BlueTooth.h ****     BT_Pitch = 1024 - ((int)buf[8] + ((int)buf[9] << 8)); //目标俯仰角，0-1024
 510              		.loc 3 25 0
 511 0040 037A     		ldrb	r3, [r0, #8]	@ zero_extendqisi2
 512 0042 427A     		ldrb	r2, [r0, #9]	@ zero_extendqisi2
 513 0044 03EB0223 		add	r3, r3, r2, lsl #8
 514 0048 C3F58063 		rsb	r3, r3, #1024
 515 004c EB60     		str	r3, [r5, #12]
  26:.\BlueTooth.h ****     roll_angle_offset = (buf[12] - 120) / 15.01;          //滚转角偏置
 516              		.loc 3 26 0
 517 004e 007B     		ldrb	r0, [r0, #12]	@ zero_extendqisi2
 518              	.LVL52:
ARM GAS  C:\Users\ADMINI~1\AppData\Local\Temp\cciWlNAe.s 			page 13


 519 0050 7838     		subs	r0, r0, #120
 520 0052 FFF7FEFF 		bl	__aeabi_i2d
 521              	.LVL53:
 522 0056 30A3     		adr	r3, .L40
 523 0058 D3E90023 		ldrd	r2, [r3]
 524 005c FFF7FEFF 		bl	__aeabi_ddiv
 525              	.LVL54:
 526 0060 FFF7FEFF 		bl	__aeabi_d2f
 527              	.LVL55:
 528 0064 2F4B     		ldr	r3, .L40+12
 529 0066 1860     		str	r0, [r3]	@ float
  27:.\BlueTooth.h ****     pitch_angle_offset = -(buf[11] - 120) / 15.01;        //俯仰角偏置
 530              		.loc 3 27 0
 531 0068 E07A     		ldrb	r0, [r4, #11]	@ zero_extendqisi2
 532 006a C0F17800 		rsb	r0, r0, #120
 533 006e FFF7FEFF 		bl	__aeabi_i2d
 534              	.LVL56:
 535 0072 29A3     		adr	r3, .L40
 536 0074 D3E90023 		ldrd	r2, [r3]
 537 0078 FFF7FEFF 		bl	__aeabi_ddiv
 538              	.LVL57:
 539 007c FFF7FEFF 		bl	__aeabi_d2f
 540              	.LVL58:
 541 0080 294B     		ldr	r3, .L40+16
 542 0082 1860     		str	r0, [r3]	@ float
  28:.\BlueTooth.h ****     
  29:.\BlueTooth.h ****     /*
  30:.\BlueTooth.h ****     //设定油门大小
  31:.\BlueTooth.h ****     set_speed_1 = BT_Throttle * 900 / 1024;
  32:.\BlueTooth.h ****     set_speed_2 = BT_Throttle * 900 / 1024;
  33:.\BlueTooth.h ****     set_speed_3 = BT_Throttle * 900 / 1024;
  34:.\BlueTooth.h ****     set_speed_4 = BT_Throttle * 900 / 1024;
  35:.\BlueTooth.h ****     */
  36:.\BlueTooth.h ****     
  37:.\BlueTooth.h ****     //遥控器控制的偏转（设定期望角度数据），上限角度30度，角速度40rad/s
  38:.\BlueTooth.h ****     Desire_angle_pitch = -((float)BT_Pitch - 512.0) * 30.0 / 512.0;
 543              		.loc 3 38 0
 544 0084 E868     		ldr	r0, [r5, #12]
 545 0086 FFF7FEFF 		bl	__aeabi_i2f
 546              	.LVL59:
 547 008a FFF7FEFF 		bl	__aeabi_f2d
 548              	.LVL60:
 549 008e 0022     		movs	r2, #0
 550 0090 4FF08143 		mov	r3, #1082130432
 551 0094 FFF7FEFF 		bl	__aeabi_dsub
 552              	.LVL61:
 553 0098 0246     		mov	r2, r0
 554 009a 0B46     		mov	r3, r1
 555 009c 1046     		mov	r0, r2
 556 009e 03F10041 		add	r1, r3, #-2147483648
 557 00a2 0022     		movs	r2, #0
 558 00a4 214B     		ldr	r3, .L40+20
 559 00a6 FFF7FEFF 		bl	__aeabi_dmul
 560              	.LVL62:
 561 00aa 0022     		movs	r2, #0
 562 00ac 204B     		ldr	r3, .L40+24
 563 00ae FFF7FEFF 		bl	__aeabi_dmul
ARM GAS  C:\Users\ADMINI~1\AppData\Local\Temp\cciWlNAe.s 			page 14


 564              	.LVL63:
 565 00b2 FFF7FEFF 		bl	__aeabi_d2f
 566              	.LVL64:
 567 00b6 1F4B     		ldr	r3, .L40+28
 568 00b8 1860     		str	r0, [r3]	@ float
  39:.\BlueTooth.h ****     Desire_angle_roll = ((float)BT_Roll - 512.0) * 30.0 / 512.0;
 569              		.loc 3 39 0
 570 00ba A868     		ldr	r0, [r5, #8]
 571 00bc FFF7FEFF 		bl	__aeabi_i2f
 572              	.LVL65:
 573 00c0 FFF7FEFF 		bl	__aeabi_f2d
 574              	.LVL66:
 575 00c4 0022     		movs	r2, #0
 576 00c6 4FF08143 		mov	r3, #1082130432
 577 00ca FFF7FEFF 		bl	__aeabi_dsub
 578              	.LVL67:
 579 00ce 0022     		movs	r2, #0
 580 00d0 164B     		ldr	r3, .L40+20
 581 00d2 FFF7FEFF 		bl	__aeabi_dmul
 582              	.LVL68:
 583 00d6 0022     		movs	r2, #0
 584 00d8 154B     		ldr	r3, .L40+24
 585 00da FFF7FEFF 		bl	__aeabi_dmul
 586              	.LVL69:
 587 00de FFF7FEFF 		bl	__aeabi_d2f
 588              	.LVL70:
 589 00e2 154B     		ldr	r3, .L40+32
 590 00e4 1860     		str	r0, [r3]	@ float
  40:.\BlueTooth.h ****     Desire_w_yaw = ((float)BT_Yaw - 512.0) * 40.0 / 512.0;
 591              		.loc 3 40 0
 592 00e6 6868     		ldr	r0, [r5, #4]
 593 00e8 FFF7FEFF 		bl	__aeabi_i2f
 594              	.LVL71:
 595 00ec FFF7FEFF 		bl	__aeabi_f2d
 596              	.LVL72:
 597 00f0 0022     		movs	r2, #0
 598 00f2 4FF08143 		mov	r3, #1082130432
 599 00f6 FFF7FEFF 		bl	__aeabi_dsub
 600              	.LVL73:
 601 00fa 0022     		movs	r2, #0
 602 00fc 0F4B     		ldr	r3, .L40+36
 603 00fe FFF7FEFF 		bl	__aeabi_dmul
 604              	.LVL74:
 605 0102 0022     		movs	r2, #0
 606 0104 0A4B     		ldr	r3, .L40+24
 607 0106 FFF7FEFF 		bl	__aeabi_dmul
 608              	.LVL75:
 609 010a FFF7FEFF 		bl	__aeabi_d2f
 610              	.LVL76:
 611 010e 0C4B     		ldr	r3, .L40+40
 612 0110 1860     		str	r0, [r3]	@ float
 613              	.LVL77:
 614              	.L35:
 615 0112 38BD     		pop	{r3, r4, r5, pc}
 616              	.L41:
 617 0114 AFF30080 		.align	3
 618              	.L40:
ARM GAS  C:\Users\ADMINI~1\AppData\Local\Temp\cciWlNAe.s 			page 15


 619 0118 85EB51B8 		.word	-1202590843
 620 011c 1E052E40 		.word	1076757790
 621 0120 00000000 		.word	.LANCHOR0
 622 0124 00000000 		.word	roll_angle_offset
 623 0128 00000000 		.word	pitch_angle_offset
 624 012c 00003E40 		.word	1077805056
 625 0130 0000603F 		.word	1063256064
 626 0134 00000000 		.word	Desire_angle_pitch
 627 0138 00000000 		.word	Desire_angle_roll
 628 013c 00004440 		.word	1078198272
 629 0140 00000000 		.word	Desire_w_yaw
 630              		.cfi_endproc
 631              	.LFE70:
 632              		.size	Process_Bluetooth_Message, .-Process_Bluetooth_Message
 633 0144 AFF30080 		.section	.text.Init_JY901_Data,"ax",%progbits
 634              		.align	2
 635              		.global	Init_JY901_Data
 636              		.thumb
 637              		.thumb_func
 638              		.type	Init_JY901_Data, %function
 639              	Init_JY901_Data:
 640              	.LFB71:
 641              		.file 4 ".\\JY901.h"
   1:.\JY901.h     **** #ifndef JY901_H_
   2:.\JY901.h     **** #define JY901_H_
   3:.\JY901.h     ****     
   4:.\JY901.h     **** #include <project.h>
   5:.\JY901.h     ****     
   6:.\JY901.h     **** #ifndef ABS
   7:.\JY901.h     ****     #define ABS(x) (((x)>0)?(x):(-(x)))
   8:.\JY901.h     **** #endif
   9:.\JY901.h     **** 
  10:.\JY901.h     **** volatile float AccelX, AccelY, AccelZ;     //三轴加速度，单位为g
  11:.\JY901.h     **** volatile float OmegaX, OmegaY, OmegaZ;     //三轴角速度，单位为°/s
  12:.\JY901.h     **** volatile float Temperature;                //测量温度
  13:.\JY901.h     **** volatile float Roll, Pitch, Yaw;           //三轴角度，单位为°
  14:.\JY901.h     **** /* 
  15:.\JY901.h     ****  *  角度正方向定义：
  16:.\JY901.h     ****  *  抬机头Pitch正
  17:.\JY901.h     ****  *  左滚转Roll正
  18:.\JY901.h     ****  *  俯视逆时针转Yaw增大
  19:.\JY901.h     ****  */
  20:.\JY901.h     **** volatile int MagX, MagY, MagZ;             //三轴磁场
  21:.\JY901.h     **** volatile int Pressure, Height;             //气压和高度，单位为Pa和cm
  22:.\JY901.h     **** int i, sum;
  23:.\JY901.h     ****     
  24:.\JY901.h     **** void Init_JY901_Data() {
 642              		.loc 4 24 0
 643              		.cfi_startproc
 644              		@ args = 0, pretend = 0, frame = 0
 645              		@ frame_needed = 0, uses_anonymous_args = 0
 646              		@ link register save eliminated.
  25:.\JY901.h     ****     AccelX = AccelY = AccelZ = 0.0;
 647              		.loc 4 25 0
 648 0000 0023     		movs	r3, #0
 649 0002 0E4A     		ldr	r2, .L43
 650 0004 1360     		str	r3, [r2]	@ float
ARM GAS  C:\Users\ADMINI~1\AppData\Local\Temp\cciWlNAe.s 			page 16


 651 0006 0E4A     		ldr	r2, .L43+4
 652 0008 1360     		str	r3, [r2]	@ float
 653 000a 0E4A     		ldr	r2, .L43+8
 654 000c 1360     		str	r3, [r2]	@ float
  26:.\JY901.h     ****     OmegaX = OmegaY = OmegaZ = 0.0;
 655              		.loc 4 26 0
 656 000e 0E4A     		ldr	r2, .L43+12
 657 0010 1360     		str	r3, [r2]	@ float
 658 0012 0E4A     		ldr	r2, .L43+16
 659 0014 1360     		str	r3, [r2]	@ float
 660 0016 0E4A     		ldr	r2, .L43+20
 661 0018 1360     		str	r3, [r2]	@ float
  27:.\JY901.h     ****     Temperature = 0.0;
 662              		.loc 4 27 0
 663 001a 0E4A     		ldr	r2, .L43+24
 664 001c 1360     		str	r3, [r2]	@ float
  28:.\JY901.h     ****     Roll = Pitch = Yaw = 0.0;
 665              		.loc 4 28 0
 666 001e 0E4A     		ldr	r2, .L43+28
 667 0020 1360     		str	r3, [r2]	@ float
 668 0022 0E4A     		ldr	r2, .L43+32
 669 0024 1360     		str	r3, [r2]	@ float
 670 0026 0E4A     		ldr	r2, .L43+36
 671 0028 1360     		str	r3, [r2]	@ float
  29:.\JY901.h     ****     MagX = MagY = MagZ = 0.0;
 672              		.loc 4 29 0
 673 002a 0023     		movs	r3, #0
 674 002c 0D4A     		ldr	r2, .L43+40
 675 002e 1360     		str	r3, [r2]
 676 0030 0D4A     		ldr	r2, .L43+44
 677 0032 1360     		str	r3, [r2]
 678 0034 0D4A     		ldr	r2, .L43+48
 679 0036 1360     		str	r3, [r2]
 680 0038 7047     		bx	lr
 681              	.L44:
 682 003a 00BF     		.align	2
 683              	.L43:
 684 003c 00000000 		.word	AccelZ
 685 0040 00000000 		.word	AccelY
 686 0044 00000000 		.word	AccelX
 687 0048 00000000 		.word	OmegaZ
 688 004c 00000000 		.word	OmegaY
 689 0050 00000000 		.word	OmegaX
 690 0054 00000000 		.word	Temperature
 691 0058 00000000 		.word	Yaw
 692 005c 00000000 		.word	Pitch
 693 0060 00000000 		.word	Roll
 694 0064 00000000 		.word	MagZ
 695 0068 00000000 		.word	MagY
 696 006c 00000000 		.word	MagX
 697              		.cfi_endproc
 698              	.LFE71:
 699              		.size	Init_JY901_Data, .-Init_JY901_Data
 700              		.section	.text.Decode_JY901_Data,"ax",%progbits
 701              		.align	2
 702              		.global	Decode_JY901_Data
 703              		.thumb
ARM GAS  C:\Users\ADMINI~1\AppData\Local\Temp\cciWlNAe.s 			page 17


 704              		.thumb_func
 705              		.type	Decode_JY901_Data, %function
 706              	Decode_JY901_Data:
 707              	.LFB72:
  30:.\JY901.h     **** }
  31:.\JY901.h     ****     
  32:.\JY901.h     **** int Decode_JY901_Data(uint8 *buf, int len) {
 708              		.loc 4 32 0
 709              		.cfi_startproc
 710              		@ args = 0, pretend = 0, frame = 0
 711              		@ frame_needed = 0, uses_anonymous_args = 0
 712              	.LVL78:
  33:.\JY901.h     ****     if(len != 11 || buf[0] != 0x55)
 713              		.loc 4 33 0
 714 0000 0B29     		cmp	r1, #11
 715 0002 40F05D81 		bne	.L55
 716              		.loc 4 33 0 is_stmt 0 discriminator 1
 717 0006 0378     		ldrb	r3, [r0]	@ zero_extendqisi2
 718 0008 552B     		cmp	r3, #85
 719 000a 40F05B81 		bne	.L56
  32:.\JY901.h     ****     if(len != 11 || buf[0] != 0x55)
 720              		.loc 4 32 0 is_stmt 1
 721 000e 10B5     		push	{r4, lr}
 722              		.cfi_def_cfa_offset 8
 723              		.cfi_offset 4, -8
 724              		.cfi_offset 14, -4
  34:.\JY901.h     ****         return 0; //无效数据错误
  35:.\JY901.h     ****     /*if(buf[1] == 0x51) {
  36:.\JY901.h     ****     for(i = 0; i < 8; i++) {
  37:.\JY901.h     ****         LCD_Position(0, i*2);
  38:.\JY901.h     ****         LCD_PrintHexUint8(buf[i]);
  39:.\JY901.h     ****     }
  40:.\JY901.h     ****     for(i = 0; i < 3; i++) {
  41:.\JY901.h     ****         LCD_Position(1, i*2);
  42:.\JY901.h     ****         LCD_PrintHexUint8(buf[i + 8]);
  43:.\JY901.h     ****     }
  44:.\JY901.h     ****     }*/
  45:.\JY901.h     ****     sum = 0;
 725              		.loc 4 45 0
 726 0010 0023     		movs	r3, #0
 727 0012 AF4A     		ldr	r2, .L61
 728 0014 1360     		str	r3, [r2]
  46:.\JY901.h     ****     for(i = 0; i < 10; i++)
 729              		.loc 4 46 0
 730 0016 AF4A     		ldr	r2, .L61+4
 731 0018 1360     		str	r3, [r2]
 732 001a 07E0     		b	.L47
 733              	.LVL79:
 734              	.L48:
  47:.\JY901.h     ****         sum += buf[i];
 735              		.loc 4 47 0 discriminator 3
 736 001c C45C     		ldrb	r4, [r0, r3]	@ zero_extendqisi2
 737 001e AC49     		ldr	r1, .L61
 738 0020 0A68     		ldr	r2, [r1]
 739 0022 2244     		add	r2, r2, r4
 740 0024 0A60     		str	r2, [r1]
  46:.\JY901.h     ****     for(i = 0; i < 10; i++)
ARM GAS  C:\Users\ADMINI~1\AppData\Local\Temp\cciWlNAe.s 			page 18


 741              		.loc 4 46 0 discriminator 3
 742 0026 0133     		adds	r3, r3, #1
 743 0028 AA4A     		ldr	r2, .L61+4
 744 002a 1360     		str	r3, [r2]
 745              	.L47:
  46:.\JY901.h     ****     for(i = 0; i < 10; i++)
 746              		.loc 4 46 0 is_stmt 0 discriminator 1
 747 002c A94B     		ldr	r3, .L61+4
 748 002e 1B68     		ldr	r3, [r3]
 749 0030 092B     		cmp	r3, #9
 750 0032 F3DD     		ble	.L48
  48:.\JY901.h     ****     if(buf[10] != (sum & 0xff))
 751              		.loc 4 48 0 is_stmt 1
 752 0034 827A     		ldrb	r2, [r0, #10]	@ zero_extendqisi2
 753 0036 A64B     		ldr	r3, .L61
 754 0038 1B78     		ldrb	r3, [r3]	@ zero_extendqisi2
 755 003a 9A42     		cmp	r2, r3
 756 003c 40F04481 		bne	.L57
 757 0040 0446     		mov	r4, r0
  49:.\JY901.h     ****         return 1; //校验无效错误
  50:.\JY901.h     ****     
  51:.\JY901.h     ****     /*if(buf[1] == 0x52) {
  52:.\JY901.h     ****         LCD_Position(0, 0);
  53:.\JY901.h     ****         LCD_PrintHexUint8(buf[2]);
  54:.\JY901.h     ****         LCD_Position(0, 2);
  55:.\JY901.h     ****         LCD_PrintHexUint8(buf[3]);
  56:.\JY901.h     ****         LCD_Position(0, 5);
  57:.\JY901.h     ****         LCD_PrintHexUint8(buf[4]);
  58:.\JY901.h     ****         LCD_Position(0, 7);
  59:.\JY901.h     ****         LCD_PrintHexUint8(buf[5]);
  60:.\JY901.h     ****         LCD_Position(0, 10);
  61:.\JY901.h     ****         LCD_PrintHexUint8(buf[6]);
  62:.\JY901.h     ****         LCD_Position(0, 12);
  63:.\JY901.h     ****         LCD_PrintHexUint8(buf[7]);
  64:.\JY901.h     ****     }*/
  65:.\JY901.h     ****     
  66:.\JY901.h     ****     switch(buf[1]) {
 758              		.loc 4 66 0
 759 0042 4378     		ldrb	r3, [r0, #1]	@ zero_extendqisi2
 760 0044 513B     		subs	r3, r3, #81
 761 0046 052B     		cmp	r3, #5
 762 0048 00F24081 		bhi	.L58
 763 004c DFE813F0 		tbh	[pc, r3, lsl #1]
 764              	.L50:
 765 0050 0600     		.2byte	(.L49-.L50)/2
 766 0052 5800     		.2byte	(.L51-.L50)/2
 767 0054 AA00     		.2byte	(.L52-.L50)/2
 768 0056 FC00     		.2byte	(.L53-.L50)/2
 769 0058 3E01     		.2byte	(.L58-.L50)/2
 770 005a 1E01     		.2byte	(.L54-.L50)/2
 771              		.p2align 1
 772              	.L49:
  67:.\JY901.h     ****         case 0x51: {
  68:.\JY901.h     ****             AccelX = (float)((short)((buf[3] << 8) | buf[2]))/32768.0*16.0;
 773              		.loc 4 68 0
 774 005c C078     		ldrb	r0, [r0, #3]	@ zero_extendqisi2
 775              	.LVL80:
ARM GAS  C:\Users\ADMINI~1\AppData\Local\Temp\cciWlNAe.s 			page 19


 776 005e A378     		ldrb	r3, [r4, #2]	@ zero_extendqisi2
 777 0060 43EA0020 		orr	r0, r3, r0, lsl #8
 778 0064 00B2     		sxth	r0, r0
 779 0066 FFF7FEFF 		bl	__aeabi_i2f
 780              	.LVL81:
 781 006a FFF7FEFF 		bl	__aeabi_f2d
 782              	.LVL82:
 783 006e 0022     		movs	r2, #0
 784 0070 4FF07C53 		mov	r3, #1056964608
 785 0074 FFF7FEFF 		bl	__aeabi_dmul
 786              	.LVL83:
 787 0078 0022     		movs	r2, #0
 788 007a 974B     		ldr	r3, .L61+8
 789 007c FFF7FEFF 		bl	__aeabi_dmul
 790              	.LVL84:
 791 0080 FFF7FEFF 		bl	__aeabi_d2f
 792              	.LVL85:
 793 0084 954B     		ldr	r3, .L61+12
 794 0086 1860     		str	r0, [r3]	@ float
  69:.\JY901.h     ****             AccelY = (float)((short)((buf[5] << 8) | buf[4]))/32768.0*16.0;
 795              		.loc 4 69 0
 796 0088 6079     		ldrb	r0, [r4, #5]	@ zero_extendqisi2
 797 008a 2379     		ldrb	r3, [r4, #4]	@ zero_extendqisi2
 798 008c 43EA0020 		orr	r0, r3, r0, lsl #8
 799 0090 00B2     		sxth	r0, r0
 800 0092 FFF7FEFF 		bl	__aeabi_i2f
 801              	.LVL86:
 802 0096 FFF7FEFF 		bl	__aeabi_f2d
 803              	.LVL87:
 804 009a 0022     		movs	r2, #0
 805 009c 4FF07C53 		mov	r3, #1056964608
 806 00a0 FFF7FEFF 		bl	__aeabi_dmul
 807              	.LVL88:
 808 00a4 0022     		movs	r2, #0
 809 00a6 8C4B     		ldr	r3, .L61+8
 810 00a8 FFF7FEFF 		bl	__aeabi_dmul
 811              	.LVL89:
 812 00ac FFF7FEFF 		bl	__aeabi_d2f
 813              	.LVL90:
 814 00b0 8B4B     		ldr	r3, .L61+16
 815 00b2 1860     		str	r0, [r3]	@ float
  70:.\JY901.h     ****             AccelZ = (float)((short)((buf[7] << 8) | buf[6]))/32768.0*16.0;
 816              		.loc 4 70 0
 817 00b4 E079     		ldrb	r0, [r4, #7]	@ zero_extendqisi2
 818 00b6 A379     		ldrb	r3, [r4, #6]	@ zero_extendqisi2
 819 00b8 43EA0020 		orr	r0, r3, r0, lsl #8
 820 00bc 00B2     		sxth	r0, r0
 821 00be FFF7FEFF 		bl	__aeabi_i2f
 822              	.LVL91:
 823 00c2 FFF7FEFF 		bl	__aeabi_f2d
 824              	.LVL92:
 825 00c6 0022     		movs	r2, #0
 826 00c8 4FF07C53 		mov	r3, #1056964608
 827 00cc FFF7FEFF 		bl	__aeabi_dmul
 828              	.LVL93:
 829 00d0 0022     		movs	r2, #0
 830 00d2 814B     		ldr	r3, .L61+8
ARM GAS  C:\Users\ADMINI~1\AppData\Local\Temp\cciWlNAe.s 			page 20


 831 00d4 FFF7FEFF 		bl	__aeabi_dmul
 832              	.LVL94:
 833 00d8 FFF7FEFF 		bl	__aeabi_d2f
 834              	.LVL95:
 835 00dc 814B     		ldr	r3, .L61+20
 836 00de 1860     		str	r0, [r3]	@ float
  71:.\JY901.h     ****             Temperature = ((buf[9] << 8) | buf[8])/100.0;
 837              		.loc 4 71 0
 838 00e0 607A     		ldrb	r0, [r4, #9]	@ zero_extendqisi2
 839 00e2 237A     		ldrb	r3, [r4, #8]	@ zero_extendqisi2
 840 00e4 43EA0020 		orr	r0, r3, r0, lsl #8
 841 00e8 FFF7FEFF 		bl	__aeabi_i2d
 842              	.LVL96:
 843 00ec 0022     		movs	r2, #0
 844 00ee 7E4B     		ldr	r3, .L61+24
 845 00f0 FFF7FEFF 		bl	__aeabi_ddiv
 846              	.LVL97:
 847 00f4 FFF7FEFF 		bl	__aeabi_d2f
 848              	.LVL98:
 849 00f8 7C4B     		ldr	r3, .L61+28
 850 00fa 1860     		str	r0, [r3]	@ float
  72:.\JY901.h     ****             /*LCD_Position(1, 0);
  73:.\JY901.h     ****             LCD_PrintString("          ");
  74:.\JY901.h     ****             LCD_Position(1, 0);
  75:.\JY901.h     ****             LCD_PrintDecUint16((int)(AccelZ*1000.0));*/     
  76:.\JY901.h     ****             return 0x51;
 851              		.loc 4 76 0
 852 00fc 5120     		movs	r0, #81
 853 00fe 10BD     		pop	{r4, pc}
 854              	.LVL99:
 855              	.L51:
  77:.\JY901.h     ****             break;
  78:.\JY901.h     ****         }
  79:.\JY901.h     ****         case 0x52: {
  80:.\JY901.h     ****             OmegaX = (float)((short)((buf[3] << 8) | buf[2]))/32768.0*2000.0;
 856              		.loc 4 80 0
 857 0100 C078     		ldrb	r0, [r0, #3]	@ zero_extendqisi2
 858              	.LVL100:
 859 0102 A378     		ldrb	r3, [r4, #2]	@ zero_extendqisi2
 860 0104 43EA0020 		orr	r0, r3, r0, lsl #8
 861 0108 00B2     		sxth	r0, r0
 862 010a FFF7FEFF 		bl	__aeabi_i2f
 863              	.LVL101:
 864 010e FFF7FEFF 		bl	__aeabi_f2d
 865              	.LVL102:
 866 0112 0022     		movs	r2, #0
 867 0114 4FF07C53 		mov	r3, #1056964608
 868 0118 FFF7FEFF 		bl	__aeabi_dmul
 869              	.LVL103:
 870 011c 0022     		movs	r2, #0
 871 011e 744B     		ldr	r3, .L61+32
 872 0120 FFF7FEFF 		bl	__aeabi_dmul
 873              	.LVL104:
 874 0124 FFF7FEFF 		bl	__aeabi_d2f
 875              	.LVL105:
 876 0128 724B     		ldr	r3, .L61+36
 877 012a 1860     		str	r0, [r3]	@ float
ARM GAS  C:\Users\ADMINI~1\AppData\Local\Temp\cciWlNAe.s 			page 21


  81:.\JY901.h     ****             OmegaY = (float)((short)((buf[5] << 8) | buf[4]))/32768.0*2000.0;
 878              		.loc 4 81 0
 879 012c 6079     		ldrb	r0, [r4, #5]	@ zero_extendqisi2
 880 012e 2379     		ldrb	r3, [r4, #4]	@ zero_extendqisi2
 881 0130 43EA0020 		orr	r0, r3, r0, lsl #8
 882 0134 00B2     		sxth	r0, r0
 883 0136 FFF7FEFF 		bl	__aeabi_i2f
 884              	.LVL106:
 885 013a FFF7FEFF 		bl	__aeabi_f2d
 886              	.LVL107:
 887 013e 0022     		movs	r2, #0
 888 0140 4FF07C53 		mov	r3, #1056964608
 889 0144 FFF7FEFF 		bl	__aeabi_dmul
 890              	.LVL108:
 891 0148 0022     		movs	r2, #0
 892 014a 694B     		ldr	r3, .L61+32
 893 014c FFF7FEFF 		bl	__aeabi_dmul
 894              	.LVL109:
 895 0150 FFF7FEFF 		bl	__aeabi_d2f
 896              	.LVL110:
 897 0154 684B     		ldr	r3, .L61+40
 898 0156 1860     		str	r0, [r3]	@ float
  82:.\JY901.h     ****             OmegaZ = (float)((short)((buf[7] << 8) | buf[6]))/32768.0*2000.0;
 899              		.loc 4 82 0
 900 0158 E079     		ldrb	r0, [r4, #7]	@ zero_extendqisi2
 901 015a A379     		ldrb	r3, [r4, #6]	@ zero_extendqisi2
 902 015c 43EA0020 		orr	r0, r3, r0, lsl #8
 903 0160 00B2     		sxth	r0, r0
 904 0162 FFF7FEFF 		bl	__aeabi_i2f
 905              	.LVL111:
 906 0166 FFF7FEFF 		bl	__aeabi_f2d
 907              	.LVL112:
 908 016a 0022     		movs	r2, #0
 909 016c 4FF07C53 		mov	r3, #1056964608
 910 0170 FFF7FEFF 		bl	__aeabi_dmul
 911              	.LVL113:
 912 0174 0022     		movs	r2, #0
 913 0176 5E4B     		ldr	r3, .L61+32
 914 0178 FFF7FEFF 		bl	__aeabi_dmul
 915              	.LVL114:
 916 017c FFF7FEFF 		bl	__aeabi_d2f
 917              	.LVL115:
 918 0180 5E4B     		ldr	r3, .L61+44
 919 0182 1860     		str	r0, [r3]	@ float
  83:.\JY901.h     ****             Temperature = ((buf[9] << 8) | buf[8])/100.0;
 920              		.loc 4 83 0
 921 0184 607A     		ldrb	r0, [r4, #9]	@ zero_extendqisi2
 922 0186 237A     		ldrb	r3, [r4, #8]	@ zero_extendqisi2
 923 0188 43EA0020 		orr	r0, r3, r0, lsl #8
 924 018c FFF7FEFF 		bl	__aeabi_i2d
 925              	.LVL116:
 926 0190 0022     		movs	r2, #0
 927 0192 554B     		ldr	r3, .L61+24
 928 0194 FFF7FEFF 		bl	__aeabi_ddiv
 929              	.LVL117:
 930 0198 FFF7FEFF 		bl	__aeabi_d2f
 931              	.LVL118:
ARM GAS  C:\Users\ADMINI~1\AppData\Local\Temp\cciWlNAe.s 			page 22


 932 019c 534B     		ldr	r3, .L61+28
 933 019e 1860     		str	r0, [r3]	@ float
  84:.\JY901.h     ****             
  85:.\JY901.h     ****             /*LCD_Position(1, 0);
  86:.\JY901.h     ****                     LCD_PrintDecUint16((int)(ABS(OmegaX)*10.0));
  87:.\JY901.h     ****                     LCD_Position(1, 5);
  88:.\JY901.h     ****                     LCD_PrintDecUint16((int)(ABS(OmegaY)*10.0));
  89:.\JY901.h     ****                     LCD_Position(1, 10);
  90:.\JY901.h     ****                     LCD_PrintDecUint16((int)(ABS(OmegaZ)*10.0));*/
  91:.\JY901.h     ****             
  92:.\JY901.h     ****             return 0x52;
 934              		.loc 4 92 0
 935 01a0 5220     		movs	r0, #82
 936 01a2 10BD     		pop	{r4, pc}
 937              	.LVL119:
 938              	.L52:
  93:.\JY901.h     ****             break;
  94:.\JY901.h     ****         }
  95:.\JY901.h     ****         case 0x53: {
  96:.\JY901.h     ****             Roll  = (float)((short)((buf[3] << 8) | buf[2]))/32768.0*180.0;
 939              		.loc 4 96 0
 940 01a4 C078     		ldrb	r0, [r0, #3]	@ zero_extendqisi2
 941              	.LVL120:
 942 01a6 A378     		ldrb	r3, [r4, #2]	@ zero_extendqisi2
 943 01a8 43EA0020 		orr	r0, r3, r0, lsl #8
 944 01ac 00B2     		sxth	r0, r0
 945 01ae FFF7FEFF 		bl	__aeabi_i2f
 946              	.LVL121:
 947 01b2 FFF7FEFF 		bl	__aeabi_f2d
 948              	.LVL122:
 949 01b6 0022     		movs	r2, #0
 950 01b8 4FF07C53 		mov	r3, #1056964608
 951 01bc FFF7FEFF 		bl	__aeabi_dmul
 952              	.LVL123:
 953 01c0 0022     		movs	r2, #0
 954 01c2 4F4B     		ldr	r3, .L61+48
 955 01c4 FFF7FEFF 		bl	__aeabi_dmul
 956              	.LVL124:
 957 01c8 FFF7FEFF 		bl	__aeabi_d2f
 958              	.LVL125:
 959 01cc 4D4B     		ldr	r3, .L61+52
 960 01ce 1860     		str	r0, [r3]	@ float
  97:.\JY901.h     ****             Pitch = (float)((short)((buf[5] << 8) | buf[4]))/32768.0*180.0;
 961              		.loc 4 97 0
 962 01d0 6079     		ldrb	r0, [r4, #5]	@ zero_extendqisi2
 963 01d2 2379     		ldrb	r3, [r4, #4]	@ zero_extendqisi2
 964 01d4 43EA0020 		orr	r0, r3, r0, lsl #8
 965 01d8 00B2     		sxth	r0, r0
 966 01da FFF7FEFF 		bl	__aeabi_i2f
 967              	.LVL126:
 968 01de FFF7FEFF 		bl	__aeabi_f2d
 969              	.LVL127:
 970 01e2 0022     		movs	r2, #0
 971 01e4 4FF07C53 		mov	r3, #1056964608
 972 01e8 FFF7FEFF 		bl	__aeabi_dmul
 973              	.LVL128:
 974 01ec 0022     		movs	r2, #0
ARM GAS  C:\Users\ADMINI~1\AppData\Local\Temp\cciWlNAe.s 			page 23


 975 01ee 444B     		ldr	r3, .L61+48
 976 01f0 FFF7FEFF 		bl	__aeabi_dmul
 977              	.LVL129:
 978 01f4 FFF7FEFF 		bl	__aeabi_d2f
 979              	.LVL130:
 980 01f8 434B     		ldr	r3, .L61+56
 981 01fa 1860     		str	r0, [r3]	@ float
  98:.\JY901.h     ****             Yaw   = (float)((short)((buf[7] << 8) | buf[6]))/32768.0*180.0;
 982              		.loc 4 98 0
 983 01fc E079     		ldrb	r0, [r4, #7]	@ zero_extendqisi2
 984 01fe A379     		ldrb	r3, [r4, #6]	@ zero_extendqisi2
 985 0200 43EA0020 		orr	r0, r3, r0, lsl #8
 986 0204 00B2     		sxth	r0, r0
 987 0206 FFF7FEFF 		bl	__aeabi_i2f
 988              	.LVL131:
 989 020a FFF7FEFF 		bl	__aeabi_f2d
 990              	.LVL132:
 991 020e 0022     		movs	r2, #0
 992 0210 4FF07C53 		mov	r3, #1056964608
 993 0214 FFF7FEFF 		bl	__aeabi_dmul
 994              	.LVL133:
 995 0218 0022     		movs	r2, #0
 996 021a 394B     		ldr	r3, .L61+48
 997 021c FFF7FEFF 		bl	__aeabi_dmul
 998              	.LVL134:
 999 0220 FFF7FEFF 		bl	__aeabi_d2f
 1000              	.LVL135:
 1001 0224 394B     		ldr	r3, .L61+60
 1002 0226 1860     		str	r0, [r3]	@ float
  99:.\JY901.h     ****             Temperature = ((buf[9] << 8) | buf[8])/100.0;
 1003              		.loc 4 99 0
 1004 0228 607A     		ldrb	r0, [r4, #9]	@ zero_extendqisi2
 1005 022a 237A     		ldrb	r3, [r4, #8]	@ zero_extendqisi2
 1006 022c 43EA0020 		orr	r0, r3, r0, lsl #8
 1007 0230 FFF7FEFF 		bl	__aeabi_i2d
 1008              	.LVL136:
 1009 0234 0022     		movs	r2, #0
 1010 0236 2C4B     		ldr	r3, .L61+24
 1011 0238 FFF7FEFF 		bl	__aeabi_ddiv
 1012              	.LVL137:
 1013 023c FFF7FEFF 		bl	__aeabi_d2f
 1014              	.LVL138:
 1015 0240 2A4B     		ldr	r3, .L61+28
 1016 0242 1860     		str	r0, [r3]	@ float
 100:.\JY901.h     ****             
 101:.\JY901.h     ****             /*LCD_Position(0, 0);
 102:.\JY901.h     ****             LCD_PrintDecUint16((int)Roll);
 103:.\JY901.h     ****             LCD_PrintString("     ");
 104:.\JY901.h     ****             LCD_Position(0, 5);
 105:.\JY901.h     ****             LCD_PrintDecUint16((int)Pitch);
 106:.\JY901.h     ****             LCD_PrintString("     ");
 107:.\JY901.h     ****             LCD_Position(0, 10);
 108:.\JY901.h     ****             LCD_PrintDecUint16((int)Yaw);
 109:.\JY901.h     ****             LCD_PrintString("     ");*/
 110:.\JY901.h     ****                     
 111:.\JY901.h     ****             return 0x53;
 1017              		.loc 4 111 0
ARM GAS  C:\Users\ADMINI~1\AppData\Local\Temp\cciWlNAe.s 			page 24


 1018 0244 5320     		movs	r0, #83
 1019 0246 10BD     		pop	{r4, pc}
 1020              	.LVL139:
 1021              	.L53:
 112:.\JY901.h     ****             break;
 113:.\JY901.h     ****         }
 114:.\JY901.h     ****         case 0x54: {
 115:.\JY901.h     ****             MagX = ((buf[3] << 8) | buf[2]);
 1022              		.loc 4 115 0
 1023 0248 C278     		ldrb	r2, [r0, #3]	@ zero_extendqisi2
 1024 024a 8378     		ldrb	r3, [r0, #2]	@ zero_extendqisi2
 1025 024c 43EA0223 		orr	r3, r3, r2, lsl #8
 1026 0250 2F4A     		ldr	r2, .L61+64
 1027 0252 1360     		str	r3, [r2]
 116:.\JY901.h     ****             MagY = ((buf[5] << 8) | buf[4]);
 1028              		.loc 4 116 0
 1029 0254 4279     		ldrb	r2, [r0, #5]	@ zero_extendqisi2
 1030 0256 0379     		ldrb	r3, [r0, #4]	@ zero_extendqisi2
 1031 0258 43EA0223 		orr	r3, r3, r2, lsl #8
 1032 025c 2D4A     		ldr	r2, .L61+68
 1033 025e 1360     		str	r3, [r2]
 117:.\JY901.h     ****             MagZ = ((buf[7] << 8) | buf[6]);
 1034              		.loc 4 117 0
 1035 0260 C279     		ldrb	r2, [r0, #7]	@ zero_extendqisi2
 1036 0262 8379     		ldrb	r3, [r0, #6]	@ zero_extendqisi2
 1037 0264 43EA0223 		orr	r3, r3, r2, lsl #8
 1038 0268 2B4A     		ldr	r2, .L61+72
 1039 026a 1360     		str	r3, [r2]
 118:.\JY901.h     ****             Temperature = ((buf[9] << 8) | buf[8])/100.0;
 1040              		.loc 4 118 0
 1041 026c 407A     		ldrb	r0, [r0, #9]	@ zero_extendqisi2
 1042              	.LVL140:
 1043 026e 237A     		ldrb	r3, [r4, #8]	@ zero_extendqisi2
 1044 0270 43EA0020 		orr	r0, r3, r0, lsl #8
 1045 0274 FFF7FEFF 		bl	__aeabi_i2d
 1046              	.LVL141:
 1047 0278 0022     		movs	r2, #0
 1048 027a 1B4B     		ldr	r3, .L61+24
 1049 027c FFF7FEFF 		bl	__aeabi_ddiv
 1050              	.LVL142:
 1051 0280 FFF7FEFF 		bl	__aeabi_d2f
 1052              	.LVL143:
 1053 0284 194B     		ldr	r3, .L61+28
 1054 0286 1860     		str	r0, [r3]	@ float
 119:.\JY901.h     ****             return 0x54;
 1055              		.loc 4 119 0
 1056 0288 5420     		movs	r0, #84
 1057 028a 10BD     		pop	{r4, pc}
 1058              	.LVL144:
 1059              	.L54:
 120:.\JY901.h     ****             break;
 121:.\JY901.h     ****         }
 122:.\JY901.h     ****         case 0x56: {
 123:.\JY901.h     ****             Pressure = (buf[5] << 24) | (buf[4] << 16) | (buf[3] << 8) | buf[2];
 1060              		.loc 4 123 0
 1061 028c 4279     		ldrb	r2, [r0, #5]	@ zero_extendqisi2
 1062 028e 0379     		ldrb	r3, [r0, #4]	@ zero_extendqisi2
ARM GAS  C:\Users\ADMINI~1\AppData\Local\Temp\cciWlNAe.s 			page 25


 1063 0290 1B04     		lsls	r3, r3, #16
 1064 0292 43EA0263 		orr	r3, r3, r2, lsl #24
 1065 0296 C278     		ldrb	r2, [r0, #3]	@ zero_extendqisi2
 1066 0298 43EA0223 		orr	r3, r3, r2, lsl #8
 1067 029c 8278     		ldrb	r2, [r0, #2]	@ zero_extendqisi2
 1068 029e 1343     		orrs	r3, r3, r2
 1069 02a0 1E4A     		ldr	r2, .L61+76
 1070 02a2 1360     		str	r3, [r2]
 124:.\JY901.h     ****             Height = (buf[9] << 24) | (buf[8] << 16) | (buf[7] << 8) | buf[6];
 1071              		.loc 4 124 0
 1072 02a4 427A     		ldrb	r2, [r0, #9]	@ zero_extendqisi2
 1073 02a6 037A     		ldrb	r3, [r0, #8]	@ zero_extendqisi2
 1074 02a8 1B04     		lsls	r3, r3, #16
 1075 02aa 43EA0263 		orr	r3, r3, r2, lsl #24
 1076 02ae C279     		ldrb	r2, [r0, #7]	@ zero_extendqisi2
 1077 02b0 43EA0223 		orr	r3, r3, r2, lsl #8
 1078 02b4 8279     		ldrb	r2, [r0, #6]	@ zero_extendqisi2
 1079 02b6 1343     		orrs	r3, r3, r2
 1080 02b8 194A     		ldr	r2, .L61+80
 1081 02ba 1360     		str	r3, [r2]
 125:.\JY901.h     ****             return 0x56;
 1082              		.loc 4 125 0
 1083 02bc 5620     		movs	r0, #86
 1084              	.LVL145:
 1085 02be 10BD     		pop	{r4, pc}
 1086              	.LVL146:
 1087              	.L55:
 1088              		.cfi_def_cfa_offset 0
 1089              		.cfi_restore 4
 1090              		.cfi_restore 14
  34:.\JY901.h     ****     /*if(buf[1] == 0x51) {
 1091              		.loc 4 34 0
 1092 02c0 0020     		movs	r0, #0
 1093              	.LVL147:
 126:.\JY901.h     ****             break;
 127:.\JY901.h     ****         }
 128:.\JY901.h     ****         default: {
 129:.\JY901.h     ****             return 0;
 130:.\JY901.h     ****             break;
 131:.\JY901.h     ****         }
 132:.\JY901.h     ****     }
 133:.\JY901.h     ****     return 0;
 134:.\JY901.h     **** }
 1094              		.loc 4 134 0
 1095 02c2 7047     		bx	lr
 1096              	.LVL148:
 1097              	.L56:
  34:.\JY901.h     ****     /*if(buf[1] == 0x51) {
 1098              		.loc 4 34 0
 1099 02c4 0020     		movs	r0, #0
 1100              	.LVL149:
 1101 02c6 7047     		bx	lr
 1102              	.LVL150:
 1103              	.L57:
 1104              		.cfi_def_cfa_offset 8
 1105              		.cfi_offset 4, -8
 1106              		.cfi_offset 14, -4
ARM GAS  C:\Users\ADMINI~1\AppData\Local\Temp\cciWlNAe.s 			page 26


  49:.\JY901.h     ****     
 1107              		.loc 4 49 0
 1108 02c8 0120     		movs	r0, #1
 1109              	.LVL151:
 1110 02ca 10BD     		pop	{r4, pc}
 1111              	.LVL152:
 1112              	.L58:
 129:.\JY901.h     ****             break;
 1113              		.loc 4 129 0
 1114 02cc 0020     		movs	r0, #0
 1115              	.LVL153:
 1116              		.loc 4 134 0
 1117 02ce 10BD     		pop	{r4, pc}
 1118              	.LVL154:
 1119              	.L62:
 1120              		.align	2
 1121              	.L61:
 1122 02d0 00000000 		.word	sum
 1123 02d4 00000000 		.word	i
 1124 02d8 00003040 		.word	1076887552
 1125 02dc 00000000 		.word	AccelX
 1126 02e0 00000000 		.word	AccelY
 1127 02e4 00000000 		.word	AccelZ
 1128 02e8 00005940 		.word	1079574528
 1129 02ec 00000000 		.word	Temperature
 1130 02f0 00409F40 		.word	1084178432
 1131 02f4 00000000 		.word	OmegaX
 1132 02f8 00000000 		.word	OmegaY
 1133 02fc 00000000 		.word	OmegaZ
 1134 0300 00806640 		.word	1080459264
 1135 0304 00000000 		.word	Roll
 1136 0308 00000000 		.word	Pitch
 1137 030c 00000000 		.word	Yaw
 1138 0310 00000000 		.word	MagX
 1139 0314 00000000 		.word	MagY
 1140 0318 00000000 		.word	MagZ
 1141 031c 00000000 		.word	Pressure
 1142 0320 00000000 		.word	Height
 1143              		.cfi_endproc
 1144              	.LFE72:
 1145              		.size	Decode_JY901_Data, .-Decode_JY901_Data
 1146              		.section	.text.JY901_RX_Interrupt_Handler,"ax",%progbits
 1147              		.align	2
 1148              		.global	JY901_RX_Interrupt_Handler
 1149              		.thumb
 1150              		.thumb_func
 1151              		.type	JY901_RX_Interrupt_Handler, %function
 1152              	JY901_RX_Interrupt_Handler:
 1153              	.LFB79:
  65:.\main.c      ****     }
  66:.\main.c      **** }
  67:.\main.c      **** 
  68:.\main.c      **** //蓝牙接收与解码
  69:.\main.c      **** uint8 BTRxBuf[64];
  70:.\main.c      **** uint8 BTRxBufLen;
  71:.\main.c      **** uint8 tmp;
  72:.\main.c      **** int flag = 0;
ARM GAS  C:\Users\ADMINI~1\AppData\Local\Temp\cciWlNAe.s 			page 27


  73:.\main.c      **** 
  74:.\main.c      **** CY_ISR(Bluetooth_RX_Interrupt_Handler) {
  75:.\main.c      ****     tmp = UART_Bluetooth_ReadRxData();
  76:.\main.c      ****     if(tmp == 0xa5 && flag == 0) { //遇到起始位，开始接收
  77:.\main.c      ****         BTRxBuf[0] = 0xa5;
  78:.\main.c      ****         BTRxBufLen = 1;
  79:.\main.c      ****         flag = 1;
  80:.\main.c      ****     }
  81:.\main.c      ****     else 
  82:.\main.c      ****         if(flag == 1 && BTRxBufLen < 15) { //固定接收起始位之后的15个字节
  83:.\main.c      ****             BTRxBuf[BTRxBufLen] = tmp;
  84:.\main.c      ****             BTRxBufLen++;
  85:.\main.c      ****         }
  86:.\main.c      ****         else
  87:.\main.c      ****             if(flag == 1 && BTRxBufLen == 15) {
  88:.\main.c      ****                 LCD_Disp("GetData!", 1, 2); //输出提示信息
  89:.\main.c      ****                 Process_Bluetooth_Message(BTRxBuf, BTRxBufLen); //转入解码函数
  90:.\main.c      ****                 BTRxBufLen = 0; //清空缓冲区
  91:.\main.c      ****                 flag = 0;
  92:.\main.c      ****             }
  93:.\main.c      **** }
  94:.\main.c      **** 
  95:.\main.c      **** //JY901串口接收与解码
  96:.\main.c      **** uint8 JY901RxBuf[64];
  97:.\main.c      **** uint8 JY901RxBufLen;
  98:.\main.c      **** uint8 tmp2;
  99:.\main.c      **** int flag_55 = 0;
 100:.\main.c      **** int flag_rec = 0;
 101:.\main.c      **** int decode_success;
 102:.\main.c      **** 
 103:.\main.c      **** //在LCD屏上显示角度
 104:.\main.c      **** char LCDBuffer[16];
 105:.\main.c      **** int float2int_tmp;
 106:.\main.c      **** char symbol;
 107:.\main.c      **** float f_tmp;
 108:.\main.c      **** void Float28Str(float f) {
 109:.\main.c      ****     f_tmp = f;
 110:.\main.c      ****     symbol = (f_tmp < 0) ? '-' : ' ';
 111:.\main.c      ****     f_tmp = (f_tmp < 0) ? (-f_tmp) : f_tmp;
 112:.\main.c      ****     float2int_tmp = (int)(f_tmp*1000.0);
 113:.\main.c      ****     sprintf(LCDBuffer, "%c%3d.%d", symbol, float2int_tmp/1000, float2int_tmp%1000);
 114:.\main.c      ****     LCDBuffer[8] = '\0';
 115:.\main.c      **** }
 116:.\main.c      **** 
 117:.\main.c      **** void LCD_DisplayAngle() {
 118:.\main.c      ****     Float28Str(Roll);
 119:.\main.c      ****     LCD_Disp(LCDBuffer, 0, 0);
 120:.\main.c      ****     Float28Str(Pitch);
 121:.\main.c      ****     LCD_Disp(LCDBuffer, 0, 8);
 122:.\main.c      ****     Float28Str(Yaw);
 123:.\main.c      ****     LCD_Disp(LCDBuffer, 1, 0);
 124:.\main.c      **** }
 125:.\main.c      **** 
 126:.\main.c      **** CY_ISR(JY901_RX_Interrupt_Handler) {
 1154              		.loc 2 126 0
 1155              		.cfi_startproc
 1156              		@ args = 0, pretend = 0, frame = 0
ARM GAS  C:\Users\ADMINI~1\AppData\Local\Temp\cciWlNAe.s 			page 28


 1157              		@ frame_needed = 0, uses_anonymous_args = 0
 1158 0000 08B5     		push	{r3, lr}
 1159              		.cfi_def_cfa_offset 8
 1160              		.cfi_offset 3, -8
 1161              		.cfi_offset 14, -4
 127:.\main.c      ****     tmp2 = UART_JY901_ReadRxData();
 1162              		.loc 2 127 0
 1163 0002 FFF7FEFF 		bl	UART_JY901_ReadRxData
 1164              	.LVL155:
 1165 0006 204B     		ldr	r3, .L69
 1166 0008 1870     		strb	r0, [r3]
 128:.\main.c      ****     
 129:.\main.c      ****     if(tmp2 == 0x55 && flag_55 == 0) //接收到数据起始位
 1167              		.loc 2 129 0
 1168 000a 5528     		cmp	r0, #85
 1169 000c 06D1     		bne	.L64
 1170              		.loc 2 129 0 is_stmt 0 discriminator 1
 1171 000e 1F4B     		ldr	r3, .L69+4
 1172 0010 1B69     		ldr	r3, [r3, #16]
 1173 0012 1BB9     		cbnz	r3, .L64
 130:.\main.c      ****         flag_55 = 1;
 1174              		.loc 2 130 0 is_stmt 1
 1175 0014 0122     		movs	r2, #1
 1176 0016 1D4B     		ldr	r3, .L69+4
 1177 0018 1A61     		str	r2, [r3, #16]
 1178 001a 08BD     		pop	{r3, pc}
 1179              	.L64:
 131:.\main.c      ****     else
 132:.\main.c      ****         if(tmp2 >= 0x51 && tmp2 <= 0x54 && flag_55 == 1 && flag_rec == 0) { //接收到数据类型
 1180              		.loc 2 132 0
 1181 001c A0F15103 		sub	r3, r0, #81
 1182 0020 DBB2     		uxtb	r3, r3
 1183 0022 032B     		cmp	r3, #3
 1184 0024 12D8     		bhi	.L66
 1185              		.loc 2 132 0 is_stmt 0 discriminator 1
 1186 0026 194B     		ldr	r3, .L69+4
 1187 0028 1B69     		ldr	r3, [r3, #16]
 1188 002a 012B     		cmp	r3, #1
 1189 002c 0ED1     		bne	.L66
 1190              		.loc 2 132 0 discriminator 2
 1191 002e 174B     		ldr	r3, .L69+4
 1192 0030 5B69     		ldr	r3, [r3, #20]
 1193 0032 5BB9     		cbnz	r3, .L66
 133:.\main.c      ****             JY901RxBuf[0] = 0x55;
 1194              		.loc 2 133 0 is_stmt 1
 1195 0034 164B     		ldr	r3, .L69+8
 1196 0036 5522     		movs	r2, #85
 1197 0038 1A70     		strb	r2, [r3]
 134:.\main.c      ****             JY901RxBuf[1] = tmp2;
 1198              		.loc 2 134 0
 1199 003a 5870     		strb	r0, [r3, #1]
 135:.\main.c      ****             JY901RxBufLen = 2;
 1200              		.loc 2 135 0
 1201 003c 0222     		movs	r2, #2
 1202 003e 154B     		ldr	r3, .L69+12
 1203 0040 1A70     		strb	r2, [r3]
 136:.\main.c      ****             flag_rec = 1;
ARM GAS  C:\Users\ADMINI~1\AppData\Local\Temp\cciWlNAe.s 			page 29


 1204              		.loc 2 136 0
 1205 0042 124B     		ldr	r3, .L69+4
 1206 0044 0122     		movs	r2, #1
 1207 0046 5A61     		str	r2, [r3, #20]
 137:.\main.c      ****             flag_55 = 1;
 1208              		.loc 2 137 0
 1209 0048 1A61     		str	r2, [r3, #16]
 1210 004a 08BD     		pop	{r3, pc}
 1211              	.L66:
 138:.\main.c      ****         }
 139:.\main.c      ****         else
 140:.\main.c      ****             if(flag_rec == 1) { //储存特定长度的数据
 1212              		.loc 2 140 0
 1213 004c 0F4B     		ldr	r3, .L69+4
 1214 004e 5B69     		ldr	r3, [r3, #20]
 1215 0050 012B     		cmp	r3, #1
 1216 0052 14D1     		bne	.L67
 141:.\main.c      ****                 JY901RxBuf[JY901RxBufLen++] = tmp2;
 1217              		.loc 2 141 0
 1218 0054 0F4A     		ldr	r2, .L69+12
 1219 0056 1378     		ldrb	r3, [r2]	@ zero_extendqisi2
 1220 0058 591C     		adds	r1, r3, #1
 1221 005a C9B2     		uxtb	r1, r1
 1222 005c 1170     		strb	r1, [r2]
 1223 005e 0C4A     		ldr	r2, .L69+8
 1224 0060 D054     		strb	r0, [r2, r3]
 142:.\main.c      ****                 if(JY901RxBufLen == 11) { //接收完一段完整数据
 1225              		.loc 2 142 0
 1226 0062 0B29     		cmp	r1, #11
 1227 0064 0FD1     		bne	.L63
 143:.\main.c      ****                     decode_success = Decode_JY901_Data(JY901RxBuf, JY901RxBufLen);
 1228              		.loc 2 143 0
 1229 0066 1046     		mov	r0, r2
 1230 0068 FFF7FEFF 		bl	Decode_JY901_Data
 1231              	.LVL156:
 1232 006c 0A4B     		ldr	r3, .L69+16
 1233 006e 1860     		str	r0, [r3]
 144:.\main.c      ****                     JY901RxBufLen = 0;
 1234              		.loc 2 144 0
 1235 0070 0023     		movs	r3, #0
 1236 0072 084A     		ldr	r2, .L69+12
 1237 0074 1370     		strb	r3, [r2]
 145:.\main.c      ****                     flag_rec = 0;
 1238              		.loc 2 145 0
 1239 0076 054A     		ldr	r2, .L69+4
 1240 0078 5361     		str	r3, [r2, #20]
 146:.\main.c      ****                     flag_55 = 0;
 1241              		.loc 2 146 0
 1242 007a 1361     		str	r3, [r2, #16]
 1243 007c 08BD     		pop	{r3, pc}
 1244              	.L67:
 147:.\main.c      ****                 }
 148:.\main.c      ****             }
 149:.\main.c      ****             else
 150:.\main.c      ****                 flag_55 = flag_rec = 0; //其他情况清空标志位
 1245              		.loc 2 150 0
 1246 007e 034B     		ldr	r3, .L69+4
ARM GAS  C:\Users\ADMINI~1\AppData\Local\Temp\cciWlNAe.s 			page 30


 1247 0080 0022     		movs	r2, #0
 1248 0082 5A61     		str	r2, [r3, #20]
 1249 0084 1A61     		str	r2, [r3, #16]
 1250              	.L63:
 1251 0086 08BD     		pop	{r3, pc}
 1252              	.L70:
 1253              		.align	2
 1254              	.L69:
 1255 0088 00000000 		.word	tmp2
 1256 008c 00000000 		.word	.LANCHOR0
 1257 0090 00000000 		.word	JY901RxBuf
 1258 0094 00000000 		.word	JY901RxBufLen
 1259 0098 00000000 		.word	decode_success
 1260              		.cfi_endproc
 1261              	.LFE79:
 1262              		.size	JY901_RX_Interrupt_Handler, .-JY901_RX_Interrupt_Handler
 1263              		.section	.text.LCD_Disp,"ax",%progbits
 1264              		.align	2
 1265              		.global	LCD_Disp
 1266              		.thumb
 1267              		.thumb_func
 1268              		.type	LCD_Disp, %function
 1269              	LCD_Disp:
 1270              	.LFB73:
  21:.\main.c      ****     LCD_Position(row, col);
 1271              		.loc 2 21 0
 1272              		.cfi_startproc
 1273              		@ args = 0, pretend = 0, frame = 0
 1274              		@ frame_needed = 0, uses_anonymous_args = 0
 1275              	.LVL157:
 1276 0000 10B5     		push	{r4, lr}
 1277              		.cfi_def_cfa_offset 8
 1278              		.cfi_offset 4, -8
 1279              		.cfi_offset 14, -4
 1280 0002 0446     		mov	r4, r0
  22:.\main.c      ****     LCD_PrintString(str);
 1281              		.loc 2 22 0
 1282 0004 0846     		mov	r0, r1
 1283              	.LVL158:
 1284 0006 1146     		mov	r1, r2
 1285              	.LVL159:
 1286 0008 FFF7FEFF 		bl	LCD_Position
 1287              	.LVL160:
  23:.\main.c      **** }
 1288              		.loc 2 23 0
 1289 000c 2046     		mov	r0, r4
 1290 000e FFF7FEFF 		bl	LCD_PrintString
 1291              	.LVL161:
 1292 0012 10BD     		pop	{r4, pc}
 1293              		.cfi_endproc
 1294              	.LFE73:
 1295              		.size	LCD_Disp, .-LCD_Disp
 1296              		.global	__aeabi_fcmpgt
 1297              		.global	__aeabi_f2iz
 1298              		.global	__aeabi_fsub
 1299              		.global	__aeabi_d2iz
 1300              		.section	.text.Convert_Float2String,"ax",%progbits
ARM GAS  C:\Users\ADMINI~1\AppData\Local\Temp\cciWlNAe.s 			page 31


 1301              		.align	2
 1302              		.global	Convert_Float2String
 1303              		.thumb
 1304              		.thumb_func
 1305              		.type	Convert_Float2String, %function
 1306              	Convert_Float2String:
 1307              	.LFB74:
  30:.\main.c      ****     uint8 symbol = (x > 0.0) ? 1 : 0;
 1308              		.loc 2 30 0
 1309              		.cfi_startproc
 1310              		@ args = 0, pretend = 0, frame = 0
 1311              		@ frame_needed = 0, uses_anonymous_args = 0
 1312              	.LVL162:
 1313 0000 F0B5     		push	{r4, r5, r6, r7, lr}
 1314              		.cfi_def_cfa_offset 20
 1315              		.cfi_offset 4, -20
 1316              		.cfi_offset 5, -16
 1317              		.cfi_offset 6, -12
 1318              		.cfi_offset 7, -8
 1319              		.cfi_offset 14, -4
 1320 0002 83B0     		sub	sp, sp, #12
 1321              		.cfi_def_cfa_offset 32
 1322 0004 0746     		mov	r7, r0
 1323 0006 0C46     		mov	r4, r1
  31:.\main.c      ****     float num = ABS(x);
 1324              		.loc 2 31 0
 1325 0008 4FF00105 		mov	r5, #1
 1326 000c 0846     		mov	r0, r1
 1327              	.LVL163:
 1328 000e 0021     		movs	r1, #0
 1329              	.LVL164:
 1330 0010 FFF7FEFF 		bl	__aeabi_fcmpgt
 1331              	.LVL165:
 1332 0014 08B9     		cbnz	r0, .L74
 1333 0016 4FF00005 		mov	r5, #0
 1334              	.L74:
 1335 001a EDB2     		uxtb	r5, r5
 1336              	.LVL166:
  32:.\main.c      ****     int int_part = (int)num;
 1337              		.loc 2 32 0
 1338 001c 2046     		mov	r0, r4
 1339 001e 0021     		movs	r1, #0
 1340 0020 FFF7FEFF 		bl	__aeabi_fcmpgt
 1341              	.LVL167:
 1342 0024 08B9     		cbnz	r0, .L75
  32:.\main.c      ****     int int_part = (int)num;
 1343              		.loc 2 32 0 is_stmt 0 discriminator 2
 1344 0026 04F10044 		add	r4, r4, #-2147483648
 1345              	.LVL168:
 1346              	.L75:
  33:.\main.c      ****     int float_2part = (int)((num - int_part)*100.0); //取两位小数
 1347              		.loc 2 33 0 is_stmt 1 discriminator 4
 1348 002a 2046     		mov	r0, r4
 1349 002c FFF7FEFF 		bl	__aeabi_f2iz
 1350              	.LVL169:
 1351 0030 0646     		mov	r6, r0
 1352              	.LVL170:
ARM GAS  C:\Users\ADMINI~1\AppData\Local\Temp\cciWlNAe.s 			page 32


  34:.\main.c      ****     if(float_2part >= 10)
 1353              		.loc 2 34 0 discriminator 4
 1354 0032 FFF7FEFF 		bl	__aeabi_i2f
 1355              	.LVL171:
 1356 0036 0146     		mov	r1, r0
 1357 0038 2046     		mov	r0, r4
 1358 003a FFF7FEFF 		bl	__aeabi_fsub
 1359              	.LVL172:
 1360 003e FFF7FEFF 		bl	__aeabi_f2d
 1361              	.LVL173:
 1362 0042 0022     		movs	r2, #0
 1363 0044 144B     		ldr	r3, .L86
 1364 0046 FFF7FEFF 		bl	__aeabi_dmul
 1365              	.LVL174:
 1366 004a FFF7FEFF 		bl	__aeabi_d2iz
 1367              	.LVL175:
  35:.\main.c      ****         sprintf(str, "%c%d.%d", (symbol == 1)?'+':'-', int_part, float_2part);
 1368              		.loc 2 35 0 discriminator 4
 1369 004e 0928     		cmp	r0, #9
 1370 0050 0ADD     		ble	.L76
  36:.\main.c      ****     else
 1371              		.loc 2 36 0
 1372 0052 0DB1     		cbz	r5, .L82
 1373 0054 2B22     		movs	r2, #43
 1374 0056 00E0     		b	.L77
 1375              	.L82:
 1376 0058 2D22     		movs	r2, #45
 1377              	.L77:
  36:.\main.c      ****     else
 1378              		.loc 2 36 0 is_stmt 0 discriminator 4
 1379 005a 0090     		str	r0, [sp]
 1380 005c 3846     		mov	r0, r7
 1381              	.LVL176:
 1382 005e 0F49     		ldr	r1, .L86+4
 1383 0060 3346     		mov	r3, r6
 1384 0062 FFF7FEFF 		bl	sprintf
 1385              	.LVL177:
 1386 0066 15E0     		b	.L73
 1387              	.LVL178:
 1388              	.L76:
  38:.\main.c      ****             sprintf(str, "%c%d.0%d", (symbol == 1)?'+':'-', int_part, float_2part);
 1389              		.loc 2 38 0 is_stmt 1
 1390 0068 0028     		cmp	r0, #0
 1391 006a 0ADD     		ble	.L79
  39:.\main.c      ****         else
 1392              		.loc 2 39 0
 1393 006c 0DB1     		cbz	r5, .L83
 1394 006e 2B22     		movs	r2, #43
 1395 0070 00E0     		b	.L80
 1396              	.L83:
 1397 0072 2D22     		movs	r2, #45
 1398              	.L80:
  39:.\main.c      ****         else
 1399              		.loc 2 39 0 is_stmt 0 discriminator 4
 1400 0074 0090     		str	r0, [sp]
 1401 0076 3846     		mov	r0, r7
 1402              	.LVL179:
ARM GAS  C:\Users\ADMINI~1\AppData\Local\Temp\cciWlNAe.s 			page 33


 1403 0078 0949     		ldr	r1, .L86+8
 1404 007a 3346     		mov	r3, r6
 1405 007c FFF7FEFF 		bl	sprintf
 1406              	.LVL180:
 1407 0080 08E0     		b	.L73
 1408              	.LVL181:
 1409              	.L79:
  41:.\main.c      **** }
 1410              		.loc 2 41 0 is_stmt 1
 1411 0082 0DB1     		cbz	r5, .L84
 1412 0084 2B22     		movs	r2, #43
 1413 0086 00E0     		b	.L81
 1414              	.L84:
 1415 0088 2D22     		movs	r2, #45
 1416              	.L81:
  41:.\main.c      **** }
 1417              		.loc 2 41 0 is_stmt 0 discriminator 4
 1418 008a 3846     		mov	r0, r7
 1419              	.LVL182:
 1420 008c 0549     		ldr	r1, .L86+12
 1421 008e 3346     		mov	r3, r6
 1422 0090 FFF7FEFF 		bl	sprintf
 1423              	.LVL183:
 1424              	.L73:
  42:.\main.c      **** 
 1425              		.loc 2 42 0 is_stmt 1
 1426 0094 03B0     		add	sp, sp, #12
 1427              		.cfi_def_cfa_offset 20
 1428              		@ sp needed
 1429 0096 F0BD     		pop	{r4, r5, r6, r7, pc}
 1430              	.LVL184:
 1431              	.L87:
 1432              		.align	2
 1433              	.L86:
 1434 0098 00005940 		.word	1079574528
 1435 009c 00000000 		.word	.LC0
 1436 00a0 08000000 		.word	.LC1
 1437 00a4 14000000 		.word	.LC2
 1438              		.cfi_endproc
 1439              	.LFE74:
 1440              		.size	Convert_Float2String, .-Convert_Float2String
 1441              		.section	.text.Bluetooth_RX_Interrupt_Handler,"ax",%progbits
 1442              		.align	2
 1443              		.global	Bluetooth_RX_Interrupt_Handler
 1444              		.thumb
 1445              		.thumb_func
 1446              		.type	Bluetooth_RX_Interrupt_Handler, %function
 1447              	Bluetooth_RX_Interrupt_Handler:
 1448              	.LFB76:
  74:.\main.c      ****     tmp = UART_Bluetooth_ReadRxData();
 1449              		.loc 2 74 0
 1450              		.cfi_startproc
 1451              		@ args = 0, pretend = 0, frame = 0
 1452              		@ frame_needed = 0, uses_anonymous_args = 0
 1453 0000 10B5     		push	{r4, lr}
 1454              		.cfi_def_cfa_offset 8
 1455              		.cfi_offset 4, -8
ARM GAS  C:\Users\ADMINI~1\AppData\Local\Temp\cciWlNAe.s 			page 34


 1456              		.cfi_offset 14, -4
  75:.\main.c      ****     if(tmp == 0xa5 && flag == 0) { //遇到起始位，开始接收
 1457              		.loc 2 75 0
 1458 0002 FFF7FEFF 		bl	UART_Bluetooth_ReadRxData
 1459              	.LVL185:
 1460 0006 194B     		ldr	r3, .L93
 1461 0008 1870     		strb	r0, [r3]
  76:.\main.c      ****         BTRxBuf[0] = 0xa5;
 1462              		.loc 2 76 0
 1463 000a A528     		cmp	r0, #165
 1464 000c 0BD1     		bne	.L89
  76:.\main.c      ****         BTRxBuf[0] = 0xa5;
 1465              		.loc 2 76 0 is_stmt 0 discriminator 1
 1466 000e 184B     		ldr	r3, .L93+4
 1467 0010 9B69     		ldr	r3, [r3, #24]
 1468 0012 43B9     		cbnz	r3, .L89
  77:.\main.c      ****         BTRxBufLen = 1;
 1469              		.loc 2 77 0 is_stmt 1
 1470 0014 A522     		movs	r2, #165
 1471 0016 174B     		ldr	r3, .L93+8
 1472 0018 1A70     		strb	r2, [r3]
  78:.\main.c      ****         flag = 1;
 1473              		.loc 2 78 0
 1474 001a 0123     		movs	r3, #1
 1475 001c 164A     		ldr	r2, .L93+12
 1476 001e 1370     		strb	r3, [r2]
  79:.\main.c      ****     }
 1477              		.loc 2 79 0
 1478 0020 134A     		ldr	r2, .L93+4
 1479 0022 9361     		str	r3, [r2, #24]
 1480 0024 10BD     		pop	{r4, pc}
 1481              	.L89:
  82:.\main.c      ****             BTRxBuf[BTRxBufLen] = tmp;
 1482              		.loc 2 82 0
 1483 0026 124B     		ldr	r3, .L93+4
 1484 0028 9B69     		ldr	r3, [r3, #24]
 1485 002a 012B     		cmp	r3, #1
 1486 002c 09D1     		bne	.L91
  82:.\main.c      ****             BTRxBuf[BTRxBufLen] = tmp;
 1487              		.loc 2 82 0 is_stmt 0 discriminator 1
 1488 002e 124A     		ldr	r2, .L93+12
 1489 0030 1278     		ldrb	r2, [r2]	@ zero_extendqisi2
 1490 0032 0E2A     		cmp	r2, #14
 1491 0034 05D8     		bhi	.L91
  83:.\main.c      ****             BTRxBufLen++;
 1492              		.loc 2 83 0 is_stmt 1
 1493 0036 0F4B     		ldr	r3, .L93+8
 1494 0038 9854     		strb	r0, [r3, r2]
  84:.\main.c      ****         }
 1495              		.loc 2 84 0
 1496 003a 0132     		adds	r2, r2, #1
 1497 003c 0E4B     		ldr	r3, .L93+12
 1498 003e 1A70     		strb	r2, [r3]
 1499 0040 10BD     		pop	{r4, pc}
 1500              	.L91:
  87:.\main.c      ****                 LCD_Disp("GetData!", 1, 2); //输出提示信息
 1501              		.loc 2 87 0
ARM GAS  C:\Users\ADMINI~1\AppData\Local\Temp\cciWlNAe.s 			page 35


 1502 0042 012B     		cmp	r3, #1
 1503 0044 11D1     		bne	.L88
  87:.\main.c      ****                 LCD_Disp("GetData!", 1, 2); //输出提示信息
 1504              		.loc 2 87 0 is_stmt 0 discriminator 1
 1505 0046 0C4B     		ldr	r3, .L93+12
 1506 0048 1B78     		ldrb	r3, [r3]	@ zero_extendqisi2
 1507 004a 0F2B     		cmp	r3, #15
 1508 004c 0DD1     		bne	.L88
  88:.\main.c      ****                 Process_Bluetooth_Message(BTRxBuf, BTRxBufLen); //转入解码函数
 1509              		.loc 2 88 0 is_stmt 1
 1510 004e 0B48     		ldr	r0, .L93+16
 1511 0050 0121     		movs	r1, #1
 1512 0052 0222     		movs	r2, #2
 1513 0054 FFF7FEFF 		bl	LCD_Disp
 1514              	.LVL186:
  89:.\main.c      ****                 BTRxBufLen = 0; //清空缓冲区
 1515              		.loc 2 89 0
 1516 0058 074C     		ldr	r4, .L93+12
 1517 005a 0648     		ldr	r0, .L93+8
 1518 005c 2178     		ldrb	r1, [r4]	@ zero_extendqisi2
 1519 005e FFF7FEFF 		bl	Process_Bluetooth_Message
 1520              	.LVL187:
  90:.\main.c      ****                 flag = 0;
 1521              		.loc 2 90 0
 1522 0062 0023     		movs	r3, #0
 1523 0064 2370     		strb	r3, [r4]
  91:.\main.c      ****             }
 1524              		.loc 2 91 0
 1525 0066 024A     		ldr	r2, .L93+4
 1526 0068 9361     		str	r3, [r2, #24]
 1527              	.L88:
 1528 006a 10BD     		pop	{r4, pc}
 1529              	.L94:
 1530              		.align	2
 1531              	.L93:
 1532 006c 00000000 		.word	tmp
 1533 0070 00000000 		.word	.LANCHOR0
 1534 0074 00000000 		.word	BTRxBuf
 1535 0078 00000000 		.word	BTRxBufLen
 1536 007c 1C000000 		.word	.LC3
 1537              		.cfi_endproc
 1538              	.LFE76:
 1539              		.size	Bluetooth_RX_Interrupt_Handler, .-Bluetooth_RX_Interrupt_Handler
 1540              		.global	__aeabi_fcmplt
 1541              		.section	.text.Float28Str,"ax",%progbits
 1542              		.align	2
 1543              		.global	Float28Str
 1544              		.thumb
 1545              		.thumb_func
 1546              		.type	Float28Str, %function
 1547              	Float28Str:
 1548              	.LFB77:
 108:.\main.c      ****     f_tmp = f;
 1549              		.loc 2 108 0
 1550              		.cfi_startproc
 1551              		@ args = 0, pretend = 0, frame = 0
 1552              		@ frame_needed = 0, uses_anonymous_args = 0
ARM GAS  C:\Users\ADMINI~1\AppData\Local\Temp\cciWlNAe.s 			page 36


 1553              	.LVL188:
 1554 0000 30B5     		push	{r4, r5, lr}
 1555              		.cfi_def_cfa_offset 12
 1556              		.cfi_offset 4, -12
 1557              		.cfi_offset 5, -8
 1558              		.cfi_offset 14, -4
 1559 0002 83B0     		sub	sp, sp, #12
 1560              		.cfi_def_cfa_offset 24
 1561 0004 0446     		mov	r4, r0
 110:.\main.c      ****     f_tmp = (f_tmp < 0) ? (-f_tmp) : f_tmp;
 1562              		.loc 2 110 0
 1563 0006 0021     		movs	r1, #0
 1564 0008 FFF7FEFF 		bl	__aeabi_fcmplt
 1565              	.LVL189:
 1566 000c 08B1     		cbz	r0, .L104
 1567 000e 2D25     		movs	r5, #45
 1568 0010 00E0     		b	.L96
 1569              	.L104:
 1570 0012 2025     		movs	r5, #32
 1571              	.L96:
 110:.\main.c      ****     f_tmp = (f_tmp < 0) ? (-f_tmp) : f_tmp;
 1572              		.loc 2 110 0 is_stmt 0 discriminator 4
 1573 0014 154B     		ldr	r3, .L107
 1574 0016 1D70     		strb	r5, [r3]
 111:.\main.c      ****     float2int_tmp = (int)(f_tmp*1000.0);
 1575              		.loc 2 111 0 is_stmt 1 discriminator 4
 1576 0018 2046     		mov	r0, r4
 1577 001a 0021     		movs	r1, #0
 1578 001c FFF7FEFF 		bl	__aeabi_fcmplt
 1579              	.LVL190:
 1580 0020 10B1     		cbz	r0, .L105
 111:.\main.c      ****     float2int_tmp = (int)(f_tmp*1000.0);
 1581              		.loc 2 111 0 is_stmt 0 discriminator 1
 1582 0022 04F10040 		add	r0, r4, #-2147483648
 1583 0026 00E0     		b	.L98
 1584              	.L105:
 111:.\main.c      ****     float2int_tmp = (int)(f_tmp*1000.0);
 1585              		.loc 2 111 0
 1586 0028 2046     		mov	r0, r4
 1587              	.L98:
 111:.\main.c      ****     float2int_tmp = (int)(f_tmp*1000.0);
 1588              		.loc 2 111 0 discriminator 4
 1589 002a 114B     		ldr	r3, .L107+4
 1590 002c 1860     		str	r0, [r3]	@ float
 112:.\main.c      ****     sprintf(LCDBuffer, "%c%3d.%d", symbol, float2int_tmp/1000, float2int_tmp%1000);
 1591              		.loc 2 112 0 is_stmt 1 discriminator 4
 1592 002e FFF7FEFF 		bl	__aeabi_f2d
 1593              	.LVL191:
 1594 0032 0022     		movs	r2, #0
 1595 0034 0F4B     		ldr	r3, .L107+8
 1596 0036 FFF7FEFF 		bl	__aeabi_dmul
 1597              	.LVL192:
 1598 003a FFF7FEFF 		bl	__aeabi_d2iz
 1599              	.LVL193:
 1600 003e 0E4B     		ldr	r3, .L107+12
 1601 0040 1860     		str	r0, [r3]
 113:.\main.c      ****     LCDBuffer[8] = '\0';
ARM GAS  C:\Users\ADMINI~1\AppData\Local\Temp\cciWlNAe.s 			page 37


 1602              		.loc 2 113 0 discriminator 4
 1603 0042 0E4C     		ldr	r4, .L107+16
 1604              	.LVL194:
 1605 0044 0E4B     		ldr	r3, .L107+20
 1606 0046 83FB0023 		smull	r2, r3, r3, r0
 1607 004a C217     		asrs	r2, r0, #31
 1608 004c C2EBA313 		rsb	r3, r2, r3, asr #6
 1609 0050 4FF47A72 		mov	r2, #1000
 1610 0054 02FB1300 		mls	r0, r2, r3, r0
 1611 0058 0090     		str	r0, [sp]
 1612 005a 2046     		mov	r0, r4
 1613 005c 0949     		ldr	r1, .L107+24
 1614 005e 2A46     		mov	r2, r5
 1615 0060 FFF7FEFF 		bl	sprintf
 1616              	.LVL195:
 114:.\main.c      **** }
 1617              		.loc 2 114 0 discriminator 4
 1618 0064 0023     		movs	r3, #0
 1619 0066 2372     		strb	r3, [r4, #8]
 115:.\main.c      **** 
 1620              		.loc 2 115 0 discriminator 4
 1621 0068 03B0     		add	sp, sp, #12
 1622              		.cfi_def_cfa_offset 12
 1623              		@ sp needed
 1624 006a 30BD     		pop	{r4, r5, pc}
 1625              	.L108:
 1626              		.align	2
 1627              	.L107:
 1628 006c 00000000 		.word	symbol
 1629 0070 00000000 		.word	f_tmp
 1630 0074 00408F40 		.word	1083129856
 1631 0078 00000000 		.word	float2int_tmp
 1632 007c 00000000 		.word	LCDBuffer
 1633 0080 D34D6210 		.word	274877907
 1634 0084 28000000 		.word	.LC4
 1635              		.cfi_endproc
 1636              	.LFE77:
 1637              		.size	Float28Str, .-Float28Str
 1638              		.section	.text.LCD_DisplayAngle,"ax",%progbits
 1639              		.align	2
 1640              		.global	LCD_DisplayAngle
 1641              		.thumb
 1642              		.thumb_func
 1643              		.type	LCD_DisplayAngle, %function
 1644              	LCD_DisplayAngle:
 1645              	.LFB78:
 117:.\main.c      ****     Float28Str(Roll);
 1646              		.loc 2 117 0
 1647              		.cfi_startproc
 1648              		@ args = 0, pretend = 0, frame = 0
 1649              		@ frame_needed = 0, uses_anonymous_args = 0
 1650 0000 10B5     		push	{r4, lr}
 1651              		.cfi_def_cfa_offset 8
 1652              		.cfi_offset 4, -8
 1653              		.cfi_offset 14, -4
 118:.\main.c      ****     LCD_Disp(LCDBuffer, 0, 0);
 1654              		.loc 2 118 0
ARM GAS  C:\Users\ADMINI~1\AppData\Local\Temp\cciWlNAe.s 			page 38


 1655 0002 0E4B     		ldr	r3, .L111
 1656 0004 1868     		ldr	r0, [r3]	@ float
 1657 0006 FFF7FEFF 		bl	Float28Str
 1658              	.LVL196:
 119:.\main.c      ****     Float28Str(Pitch);
 1659              		.loc 2 119 0
 1660 000a 0D4C     		ldr	r4, .L111+4
 1661 000c 2046     		mov	r0, r4
 1662 000e 0021     		movs	r1, #0
 1663 0010 0A46     		mov	r2, r1
 1664 0012 FFF7FEFF 		bl	LCD_Disp
 1665              	.LVL197:
 120:.\main.c      ****     LCD_Disp(LCDBuffer, 0, 8);
 1666              		.loc 2 120 0
 1667 0016 0B4B     		ldr	r3, .L111+8
 1668 0018 1868     		ldr	r0, [r3]	@ float
 1669 001a FFF7FEFF 		bl	Float28Str
 1670              	.LVL198:
 121:.\main.c      ****     Float28Str(Yaw);
 1671              		.loc 2 121 0
 1672 001e 2046     		mov	r0, r4
 1673 0020 0021     		movs	r1, #0
 1674 0022 0822     		movs	r2, #8
 1675 0024 FFF7FEFF 		bl	LCD_Disp
 1676              	.LVL199:
 122:.\main.c      ****     LCD_Disp(LCDBuffer, 1, 0);
 1677              		.loc 2 122 0
 1678 0028 074B     		ldr	r3, .L111+12
 1679 002a 1868     		ldr	r0, [r3]	@ float
 1680 002c FFF7FEFF 		bl	Float28Str
 1681              	.LVL200:
 123:.\main.c      **** }
 1682              		.loc 2 123 0
 1683 0030 2046     		mov	r0, r4
 1684 0032 0121     		movs	r1, #1
 1685 0034 0022     		movs	r2, #0
 1686 0036 FFF7FEFF 		bl	LCD_Disp
 1687              	.LVL201:
 1688 003a 10BD     		pop	{r4, pc}
 1689              	.L112:
 1690              		.align	2
 1691              	.L111:
 1692 003c 00000000 		.word	Roll
 1693 0040 00000000 		.word	LCDBuffer
 1694 0044 00000000 		.word	Pitch
 1695 0048 00000000 		.word	Yaw
 1696              		.cfi_endproc
 1697              	.LFE78:
 1698              		.size	LCD_DisplayAngle, .-LCD_DisplayAngle
 1699              		.section	.text.JY901_Debug_Display,"ax",%progbits
 1700              		.align	2
 1701              		.global	JY901_Debug_Display
 1702              		.thumb
 1703              		.thumb_func
 1704              		.type	JY901_Debug_Display, %function
 1705              	JY901_Debug_Display:
 1706              	.LFB80:
ARM GAS  C:\Users\ADMINI~1\AppData\Local\Temp\cciWlNAe.s 			page 39


 151:.\main.c      **** }
 152:.\main.c      **** 
 153:.\main.c      **** char DisplayBuffer[128];
 154:.\main.c      **** CY_ISR(JY901_Debug_Display) {
 1707              		.loc 2 154 0
 1708              		.cfi_startproc
 1709              		@ args = 0, pretend = 0, frame = 0
 1710              		@ frame_needed = 0, uses_anonymous_args = 0
 1711 0000 08B5     		push	{r3, lr}
 1712              		.cfi_def_cfa_offset 8
 1713              		.cfi_offset 3, -8
 1714              		.cfi_offset 14, -4
 1715              	.L114:
 155:.\main.c      ****     while(USBUART_1_CDCIsReady() == 0u);
 1716              		.loc 2 155 0 discriminator 1
 1717 0002 FFF7FEFF 		bl	USBUART_1_CDCIsReady
 1718              	.LVL202:
 1719 0006 0028     		cmp	r0, #0
 1720 0008 FBD0     		beq	.L114
 156:.\main.c      ****     USBUART_1_PutString("===== Debug Data =====\n");
 1721              		.loc 2 156 0
 1722 000a 8548     		ldr	r0, .L143
 1723 000c FFF7FEFF 		bl	USBUART_1_PutString
 1724              	.LVL203:
 1725              	.L115:
 157:.\main.c      ****     while(USBUART_1_CDCIsReady() == 0u);
 1726              		.loc 2 157 0 discriminator 1
 1727 0010 FFF7FEFF 		bl	USBUART_1_CDCIsReady
 1728              	.LVL204:
 1729 0014 0028     		cmp	r0, #0
 1730 0016 FBD0     		beq	.L115
 158:.\main.c      ****     USBUART_1_PutString("AccelX=");
 1731              		.loc 2 158 0
 1732 0018 8248     		ldr	r0, .L143+4
 1733 001a FFF7FEFF 		bl	USBUART_1_PutString
 1734              	.LVL205:
 159:.\main.c      ****     Convert_Float2String(DisplayBuffer, AccelX);
 1735              		.loc 2 159 0
 1736 001e 824B     		ldr	r3, .L143+8
 1737 0020 1968     		ldr	r1, [r3]	@ float
 1738 0022 8248     		ldr	r0, .L143+12
 1739 0024 FFF7FEFF 		bl	Convert_Float2String
 1740              	.LVL206:
 1741              	.L116:
 160:.\main.c      ****     while(USBUART_1_CDCIsReady() == 0u);
 1742              		.loc 2 160 0 discriminator 1
 1743 0028 FFF7FEFF 		bl	USBUART_1_CDCIsReady
 1744              	.LVL207:
 1745 002c 0028     		cmp	r0, #0
 1746 002e FBD0     		beq	.L116
 161:.\main.c      ****     USBUART_1_PutString(DisplayBuffer);
 1747              		.loc 2 161 0
 1748 0030 7E48     		ldr	r0, .L143+12
 1749 0032 FFF7FEFF 		bl	USBUART_1_PutString
 1750              	.LVL208:
 1751              	.L117:
 162:.\main.c      ****     while(USBUART_1_CDCIsReady() == 0u);
ARM GAS  C:\Users\ADMINI~1\AppData\Local\Temp\cciWlNAe.s 			page 40


 1752              		.loc 2 162 0 discriminator 1
 1753 0036 FFF7FEFF 		bl	USBUART_1_CDCIsReady
 1754              	.LVL209:
 1755 003a 0028     		cmp	r0, #0
 1756 003c FBD0     		beq	.L117
 163:.\main.c      ****     USBUART_1_PutString(", AccelY=");
 1757              		.loc 2 163 0
 1758 003e 7C48     		ldr	r0, .L143+16
 1759 0040 FFF7FEFF 		bl	USBUART_1_PutString
 1760              	.LVL210:
 164:.\main.c      ****     Convert_Float2String(DisplayBuffer, AccelY);
 1761              		.loc 2 164 0
 1762 0044 7B4B     		ldr	r3, .L143+20
 1763 0046 1968     		ldr	r1, [r3]	@ float
 1764 0048 7848     		ldr	r0, .L143+12
 1765 004a FFF7FEFF 		bl	Convert_Float2String
 1766              	.LVL211:
 1767              	.L118:
 165:.\main.c      ****     while(USBUART_1_CDCIsReady() == 0u);
 1768              		.loc 2 165 0 discriminator 1
 1769 004e FFF7FEFF 		bl	USBUART_1_CDCIsReady
 1770              	.LVL212:
 1771 0052 0028     		cmp	r0, #0
 1772 0054 FBD0     		beq	.L118
 166:.\main.c      ****     USBUART_1_PutString(DisplayBuffer);
 1773              		.loc 2 166 0
 1774 0056 7548     		ldr	r0, .L143+12
 1775 0058 FFF7FEFF 		bl	USBUART_1_PutString
 1776              	.LVL213:
 1777              	.L119:
 167:.\main.c      ****     while(USBUART_1_CDCIsReady() == 0u);
 1778              		.loc 2 167 0 discriminator 1
 1779 005c FFF7FEFF 		bl	USBUART_1_CDCIsReady
 1780              	.LVL214:
 1781 0060 0028     		cmp	r0, #0
 1782 0062 FBD0     		beq	.L119
 168:.\main.c      ****     USBUART_1_PutString(", AccelZ=");
 1783              		.loc 2 168 0
 1784 0064 7448     		ldr	r0, .L143+24
 1785 0066 FFF7FEFF 		bl	USBUART_1_PutString
 1786              	.LVL215:
 169:.\main.c      ****     Convert_Float2String(DisplayBuffer, AccelZ);
 1787              		.loc 2 169 0
 1788 006a 744B     		ldr	r3, .L143+28
 1789 006c 1968     		ldr	r1, [r3]	@ float
 1790 006e 6F48     		ldr	r0, .L143+12
 1791 0070 FFF7FEFF 		bl	Convert_Float2String
 1792              	.LVL216:
 1793              	.L120:
 170:.\main.c      ****     while(USBUART_1_CDCIsReady() == 0u);
 1794              		.loc 2 170 0 discriminator 1
 1795 0074 FFF7FEFF 		bl	USBUART_1_CDCIsReady
 1796              	.LVL217:
 1797 0078 0028     		cmp	r0, #0
 1798 007a FBD0     		beq	.L120
 171:.\main.c      ****     USBUART_1_PutString(DisplayBuffer);
 1799              		.loc 2 171 0
ARM GAS  C:\Users\ADMINI~1\AppData\Local\Temp\cciWlNAe.s 			page 41


 1800 007c 6B48     		ldr	r0, .L143+12
 1801 007e FFF7FEFF 		bl	USBUART_1_PutString
 1802              	.LVL218:
 1803              	.L121:
 172:.\main.c      ****     
 173:.\main.c      ****     while(USBUART_1_CDCIsReady() == 0u);
 1804              		.loc 2 173 0 discriminator 1
 1805 0082 FFF7FEFF 		bl	USBUART_1_CDCIsReady
 1806              	.LVL219:
 1807 0086 0028     		cmp	r0, #0
 1808 0088 FBD0     		beq	.L121
 174:.\main.c      ****     USBUART_1_PutString("\nOmegaX=");
 1809              		.loc 2 174 0
 1810 008a 6D48     		ldr	r0, .L143+32
 1811 008c FFF7FEFF 		bl	USBUART_1_PutString
 1812              	.LVL220:
 175:.\main.c      ****     Convert_Float2String(DisplayBuffer, OmegaX);
 1813              		.loc 2 175 0
 1814 0090 6C4B     		ldr	r3, .L143+36
 1815 0092 1968     		ldr	r1, [r3]	@ float
 1816 0094 6548     		ldr	r0, .L143+12
 1817 0096 FFF7FEFF 		bl	Convert_Float2String
 1818              	.LVL221:
 1819              	.L122:
 176:.\main.c      ****     while(USBUART_1_CDCIsReady() == 0u);
 1820              		.loc 2 176 0 discriminator 1
 1821 009a FFF7FEFF 		bl	USBUART_1_CDCIsReady
 1822              	.LVL222:
 1823 009e 0028     		cmp	r0, #0
 1824 00a0 FBD0     		beq	.L122
 177:.\main.c      ****     USBUART_1_PutString(DisplayBuffer);
 1825              		.loc 2 177 0
 1826 00a2 6248     		ldr	r0, .L143+12
 1827 00a4 FFF7FEFF 		bl	USBUART_1_PutString
 1828              	.LVL223:
 1829              	.L123:
 178:.\main.c      ****     while(USBUART_1_CDCIsReady() == 0u);
 1830              		.loc 2 178 0 discriminator 1
 1831 00a8 FFF7FEFF 		bl	USBUART_1_CDCIsReady
 1832              	.LVL224:
 1833 00ac 0028     		cmp	r0, #0
 1834 00ae FBD0     		beq	.L123
 179:.\main.c      ****     USBUART_1_PutString(", OmegaY=");
 1835              		.loc 2 179 0
 1836 00b0 6548     		ldr	r0, .L143+40
 1837 00b2 FFF7FEFF 		bl	USBUART_1_PutString
 1838              	.LVL225:
 180:.\main.c      ****     Convert_Float2String(DisplayBuffer, OmegaY);
 1839              		.loc 2 180 0
 1840 00b6 654B     		ldr	r3, .L143+44
 1841 00b8 1968     		ldr	r1, [r3]	@ float
 1842 00ba 5C48     		ldr	r0, .L143+12
 1843 00bc FFF7FEFF 		bl	Convert_Float2String
 1844              	.LVL226:
 1845              	.L124:
 181:.\main.c      ****     while(USBUART_1_CDCIsReady() == 0u);
 1846              		.loc 2 181 0 discriminator 1
ARM GAS  C:\Users\ADMINI~1\AppData\Local\Temp\cciWlNAe.s 			page 42


 1847 00c0 FFF7FEFF 		bl	USBUART_1_CDCIsReady
 1848              	.LVL227:
 1849 00c4 0028     		cmp	r0, #0
 1850 00c6 FBD0     		beq	.L124
 182:.\main.c      ****     USBUART_1_PutString(DisplayBuffer);
 1851              		.loc 2 182 0
 1852 00c8 5848     		ldr	r0, .L143+12
 1853 00ca FFF7FEFF 		bl	USBUART_1_PutString
 1854              	.LVL228:
 1855              	.L125:
 183:.\main.c      ****     while(USBUART_1_CDCIsReady() == 0u);
 1856              		.loc 2 183 0 discriminator 1
 1857 00ce FFF7FEFF 		bl	USBUART_1_CDCIsReady
 1858              	.LVL229:
 1859 00d2 0028     		cmp	r0, #0
 1860 00d4 FBD0     		beq	.L125
 184:.\main.c      ****     USBUART_1_PutString(", OmegaZ=");
 1861              		.loc 2 184 0
 1862 00d6 5E48     		ldr	r0, .L143+48
 1863 00d8 FFF7FEFF 		bl	USBUART_1_PutString
 1864              	.LVL230:
 185:.\main.c      ****     Convert_Float2String(DisplayBuffer, OmegaZ);
 1865              		.loc 2 185 0
 1866 00dc 5D4B     		ldr	r3, .L143+52
 1867 00de 1968     		ldr	r1, [r3]	@ float
 1868 00e0 5248     		ldr	r0, .L143+12
 1869 00e2 FFF7FEFF 		bl	Convert_Float2String
 1870              	.LVL231:
 1871              	.L126:
 186:.\main.c      ****     while(USBUART_1_CDCIsReady() == 0u);
 1872              		.loc 2 186 0 discriminator 1
 1873 00e6 FFF7FEFF 		bl	USBUART_1_CDCIsReady
 1874              	.LVL232:
 1875 00ea 0028     		cmp	r0, #0
 1876 00ec FBD0     		beq	.L126
 187:.\main.c      ****     USBUART_1_PutString(DisplayBuffer);
 1877              		.loc 2 187 0
 1878 00ee 4F48     		ldr	r0, .L143+12
 1879 00f0 FFF7FEFF 		bl	USBUART_1_PutString
 1880              	.LVL233:
 1881              	.L127:
 188:.\main.c      ****     
 189:.\main.c      ****     while(USBUART_1_CDCIsReady() == 0u);
 1882              		.loc 2 189 0 discriminator 1
 1883 00f4 FFF7FEFF 		bl	USBUART_1_CDCIsReady
 1884              	.LVL234:
 1885 00f8 0028     		cmp	r0, #0
 1886 00fa FBD0     		beq	.L127
 190:.\main.c      ****     USBUART_1_PutString("\nRoll=");
 1887              		.loc 2 190 0
 1888 00fc 5648     		ldr	r0, .L143+56
 1889 00fe FFF7FEFF 		bl	USBUART_1_PutString
 1890              	.LVL235:
 191:.\main.c      ****     Convert_Float2String(DisplayBuffer, Roll);
 1891              		.loc 2 191 0
 1892 0102 564B     		ldr	r3, .L143+60
 1893 0104 1968     		ldr	r1, [r3]	@ float
ARM GAS  C:\Users\ADMINI~1\AppData\Local\Temp\cciWlNAe.s 			page 43


 1894 0106 4948     		ldr	r0, .L143+12
 1895 0108 FFF7FEFF 		bl	Convert_Float2String
 1896              	.LVL236:
 1897              	.L128:
 192:.\main.c      ****     while(USBUART_1_CDCIsReady() == 0u);
 1898              		.loc 2 192 0 discriminator 1
 1899 010c FFF7FEFF 		bl	USBUART_1_CDCIsReady
 1900              	.LVL237:
 1901 0110 0028     		cmp	r0, #0
 1902 0112 FBD0     		beq	.L128
 193:.\main.c      ****     USBUART_1_PutString(DisplayBuffer);
 1903              		.loc 2 193 0
 1904 0114 4548     		ldr	r0, .L143+12
 1905 0116 FFF7FEFF 		bl	USBUART_1_PutString
 1906              	.LVL238:
 1907              	.L129:
 194:.\main.c      ****     while(USBUART_1_CDCIsReady() == 0u);
 1908              		.loc 2 194 0 discriminator 1
 1909 011a FFF7FEFF 		bl	USBUART_1_CDCIsReady
 1910              	.LVL239:
 1911 011e 0028     		cmp	r0, #0
 1912 0120 FBD0     		beq	.L129
 195:.\main.c      ****     USBUART_1_PutString(", Pitch=");
 1913              		.loc 2 195 0
 1914 0122 4F48     		ldr	r0, .L143+64
 1915 0124 FFF7FEFF 		bl	USBUART_1_PutString
 1916              	.LVL240:
 196:.\main.c      ****     Convert_Float2String(DisplayBuffer, Pitch);
 1917              		.loc 2 196 0
 1918 0128 4E4B     		ldr	r3, .L143+68
 1919 012a 1968     		ldr	r1, [r3]	@ float
 1920 012c 3F48     		ldr	r0, .L143+12
 1921 012e FFF7FEFF 		bl	Convert_Float2String
 1922              	.LVL241:
 1923              	.L130:
 197:.\main.c      ****     while(USBUART_1_CDCIsReady() == 0u);
 1924              		.loc 2 197 0 discriminator 1
 1925 0132 FFF7FEFF 		bl	USBUART_1_CDCIsReady
 1926              	.LVL242:
 1927 0136 0028     		cmp	r0, #0
 1928 0138 FBD0     		beq	.L130
 198:.\main.c      ****     USBUART_1_PutString(DisplayBuffer);
 1929              		.loc 2 198 0
 1930 013a 3C48     		ldr	r0, .L143+12
 1931 013c FFF7FEFF 		bl	USBUART_1_PutString
 1932              	.LVL243:
 1933              	.L131:
 199:.\main.c      ****     while(USBUART_1_CDCIsReady() == 0u);
 1934              		.loc 2 199 0 discriminator 1
 1935 0140 FFF7FEFF 		bl	USBUART_1_CDCIsReady
 1936              	.LVL244:
 1937 0144 0028     		cmp	r0, #0
 1938 0146 FBD0     		beq	.L131
 200:.\main.c      ****     USBUART_1_PutString(", Yaw=");
 1939              		.loc 2 200 0
 1940 0148 4748     		ldr	r0, .L143+72
 1941 014a FFF7FEFF 		bl	USBUART_1_PutString
ARM GAS  C:\Users\ADMINI~1\AppData\Local\Temp\cciWlNAe.s 			page 44


 1942              	.LVL245:
 201:.\main.c      ****     Convert_Float2String(DisplayBuffer, Yaw);
 1943              		.loc 2 201 0
 1944 014e 474B     		ldr	r3, .L143+76
 1945 0150 1968     		ldr	r1, [r3]	@ float
 1946 0152 3648     		ldr	r0, .L143+12
 1947 0154 FFF7FEFF 		bl	Convert_Float2String
 1948              	.LVL246:
 1949              	.L132:
 202:.\main.c      ****     while(USBUART_1_CDCIsReady() == 0u);
 1950              		.loc 2 202 0 discriminator 1
 1951 0158 FFF7FEFF 		bl	USBUART_1_CDCIsReady
 1952              	.LVL247:
 1953 015c 0028     		cmp	r0, #0
 1954 015e FBD0     		beq	.L132
 203:.\main.c      ****     USBUART_1_PutString(DisplayBuffer);
 1955              		.loc 2 203 0
 1956 0160 3248     		ldr	r0, .L143+12
 1957 0162 FFF7FEFF 		bl	USBUART_1_PutString
 1958              	.LVL248:
 1959              	.L133:
 204:.\main.c      ****     
 205:.\main.c      ****     while(USBUART_1_CDCIsReady() == 0u);
 1960              		.loc 2 205 0 discriminator 1
 1961 0166 FFF7FEFF 		bl	USBUART_1_CDCIsReady
 1962              	.LVL249:
 1963 016a 0028     		cmp	r0, #0
 1964 016c FBD0     		beq	.L133
 206:.\main.c      ****     USBUART_1_PutString("\nHx=");
 1965              		.loc 2 206 0
 1966 016e 4048     		ldr	r0, .L143+80
 1967 0170 FFF7FEFF 		bl	USBUART_1_PutString
 1968              	.LVL250:
 207:.\main.c      ****     Convert_Float2String(DisplayBuffer, MagX);
 1969              		.loc 2 207 0
 1970 0174 3F4B     		ldr	r3, .L143+84
 1971 0176 1868     		ldr	r0, [r3]
 1972 0178 FFF7FEFF 		bl	__aeabi_i2f
 1973              	.LVL251:
 1974 017c 0146     		mov	r1, r0
 1975 017e 2B48     		ldr	r0, .L143+12
 1976 0180 FFF7FEFF 		bl	Convert_Float2String
 1977              	.LVL252:
 1978              	.L134:
 208:.\main.c      ****     while(USBUART_1_CDCIsReady() == 0u);
 1979              		.loc 2 208 0 discriminator 1
 1980 0184 FFF7FEFF 		bl	USBUART_1_CDCIsReady
 1981              	.LVL253:
 1982 0188 0028     		cmp	r0, #0
 1983 018a FBD0     		beq	.L134
 209:.\main.c      ****     USBUART_1_PutString(DisplayBuffer);
 1984              		.loc 2 209 0
 1985 018c 2748     		ldr	r0, .L143+12
 1986 018e FFF7FEFF 		bl	USBUART_1_PutString
 1987              	.LVL254:
 1988              	.L135:
 210:.\main.c      ****     while(USBUART_1_CDCIsReady() == 0u);
ARM GAS  C:\Users\ADMINI~1\AppData\Local\Temp\cciWlNAe.s 			page 45


 1989              		.loc 2 210 0 discriminator 1
 1990 0192 FFF7FEFF 		bl	USBUART_1_CDCIsReady
 1991              	.LVL255:
 1992 0196 0028     		cmp	r0, #0
 1993 0198 FBD0     		beq	.L135
 211:.\main.c      ****     USBUART_1_PutString(", Hy=");
 1994              		.loc 2 211 0
 1995 019a 3748     		ldr	r0, .L143+88
 1996 019c FFF7FEFF 		bl	USBUART_1_PutString
 1997              	.LVL256:
 212:.\main.c      ****     Convert_Float2String(DisplayBuffer, MagY);
 1998              		.loc 2 212 0
 1999 01a0 364B     		ldr	r3, .L143+92
 2000 01a2 1868     		ldr	r0, [r3]
 2001 01a4 FFF7FEFF 		bl	__aeabi_i2f
 2002              	.LVL257:
 2003 01a8 0146     		mov	r1, r0
 2004 01aa 2048     		ldr	r0, .L143+12
 2005 01ac FFF7FEFF 		bl	Convert_Float2String
 2006              	.LVL258:
 2007              	.L136:
 213:.\main.c      ****     while(USBUART_1_CDCIsReady() == 0u);
 2008              		.loc 2 213 0 discriminator 1
 2009 01b0 FFF7FEFF 		bl	USBUART_1_CDCIsReady
 2010              	.LVL259:
 2011 01b4 0028     		cmp	r0, #0
 2012 01b6 FBD0     		beq	.L136
 214:.\main.c      ****     USBUART_1_PutString(DisplayBuffer);
 2013              		.loc 2 214 0
 2014 01b8 1C48     		ldr	r0, .L143+12
 2015 01ba FFF7FEFF 		bl	USBUART_1_PutString
 2016              	.LVL260:
 2017              	.L137:
 215:.\main.c      ****     while(USBUART_1_CDCIsReady() == 0u);
 2018              		.loc 2 215 0 discriminator 1
 2019 01be FFF7FEFF 		bl	USBUART_1_CDCIsReady
 2020              	.LVL261:
 2021 01c2 0028     		cmp	r0, #0
 2022 01c4 FBD0     		beq	.L137
 216:.\main.c      ****     USBUART_1_PutString(", Hz=");
 2023              		.loc 2 216 0
 2024 01c6 2E48     		ldr	r0, .L143+96
 2025 01c8 FFF7FEFF 		bl	USBUART_1_PutString
 2026              	.LVL262:
 217:.\main.c      ****     Convert_Float2String(DisplayBuffer, MagZ);
 2027              		.loc 2 217 0
 2028 01cc 2D4B     		ldr	r3, .L143+100
 2029 01ce 1868     		ldr	r0, [r3]
 2030 01d0 FFF7FEFF 		bl	__aeabi_i2f
 2031              	.LVL263:
 2032 01d4 0146     		mov	r1, r0
 2033 01d6 1548     		ldr	r0, .L143+12
 2034 01d8 FFF7FEFF 		bl	Convert_Float2String
 2035              	.LVL264:
 2036              	.L138:
 218:.\main.c      ****     while(USBUART_1_CDCIsReady() == 0u);
 2037              		.loc 2 218 0 discriminator 1
ARM GAS  C:\Users\ADMINI~1\AppData\Local\Temp\cciWlNAe.s 			page 46


 2038 01dc FFF7FEFF 		bl	USBUART_1_CDCIsReady
 2039              	.LVL265:
 2040 01e0 0028     		cmp	r0, #0
 2041 01e2 FBD0     		beq	.L138
 219:.\main.c      ****     USBUART_1_PutString(DisplayBuffer);
 2042              		.loc 2 219 0
 2043 01e4 1148     		ldr	r0, .L143+12
 2044 01e6 FFF7FEFF 		bl	USBUART_1_PutString
 2045              	.LVL266:
 2046              	.L139:
 220:.\main.c      ****     
 221:.\main.c      ****     while(USBUART_1_CDCIsReady() == 0u);
 2047              		.loc 2 221 0 discriminator 1
 2048 01ea FFF7FEFF 		bl	USBUART_1_CDCIsReady
 2049              	.LVL267:
 2050 01ee 0028     		cmp	r0, #0
 2051 01f0 FBD0     		beq	.L139
 222:.\main.c      ****     USBUART_1_PutString("\nTemp=");
 2052              		.loc 2 222 0
 2053 01f2 2548     		ldr	r0, .L143+104
 2054 01f4 FFF7FEFF 		bl	USBUART_1_PutString
 2055              	.LVL268:
 223:.\main.c      ****     Convert_Float2String(DisplayBuffer, Temperature);
 2056              		.loc 2 223 0
 2057 01f8 244B     		ldr	r3, .L143+108
 2058 01fa 1968     		ldr	r1, [r3]	@ float
 2059 01fc 0B48     		ldr	r0, .L143+12
 2060 01fe FFF7FEFF 		bl	Convert_Float2String
 2061              	.LVL269:
 2062              	.L140:
 224:.\main.c      ****     while(USBUART_1_CDCIsReady() == 0u);
 2063              		.loc 2 224 0 discriminator 1
 2064 0202 FFF7FEFF 		bl	USBUART_1_CDCIsReady
 2065              	.LVL270:
 2066 0206 0028     		cmp	r0, #0
 2067 0208 FBD0     		beq	.L140
 225:.\main.c      ****     USBUART_1_PutString(DisplayBuffer);
 2068              		.loc 2 225 0
 2069 020a 0848     		ldr	r0, .L143+12
 2070 020c FFF7FEFF 		bl	USBUART_1_PutString
 2071              	.LVL271:
 2072              	.L141:
 226:.\main.c      ****     while(USBUART_1_CDCIsReady() == 0u);
 2073              		.loc 2 226 0 discriminator 1
 2074 0210 FFF7FEFF 		bl	USBUART_1_CDCIsReady
 2075              	.LVL272:
 2076 0214 0028     		cmp	r0, #0
 2077 0216 FBD0     		beq	.L141
 227:.\main.c      ****     USBUART_1_PutString("\n\n");
 2078              		.loc 2 227 0
 2079 0218 1D48     		ldr	r0, .L143+112
 2080 021a FFF7FEFF 		bl	USBUART_1_PutString
 2081              	.LVL273:
 2082 021e 08BD     		pop	{r3, pc}
 2083              	.L144:
 2084              		.align	2
 2085              	.L143:
ARM GAS  C:\Users\ADMINI~1\AppData\Local\Temp\cciWlNAe.s 			page 47


 2086 0220 34000000 		.word	.LC5
 2087 0224 4C000000 		.word	.LC6
 2088 0228 00000000 		.word	AccelX
 2089 022c 00000000 		.word	DisplayBuffer
 2090 0230 54000000 		.word	.LC7
 2091 0234 00000000 		.word	AccelY
 2092 0238 60000000 		.word	.LC8
 2093 023c 00000000 		.word	AccelZ
 2094 0240 6C000000 		.word	.LC9
 2095 0244 00000000 		.word	OmegaX
 2096 0248 78000000 		.word	.LC10
 2097 024c 00000000 		.word	OmegaY
 2098 0250 84000000 		.word	.LC11
 2099 0254 00000000 		.word	OmegaZ
 2100 0258 90000000 		.word	.LC12
 2101 025c 00000000 		.word	Roll
 2102 0260 98000000 		.word	.LC13
 2103 0264 00000000 		.word	Pitch
 2104 0268 A4000000 		.word	.LC14
 2105 026c 00000000 		.word	Yaw
 2106 0270 AC000000 		.word	.LC15
 2107 0274 00000000 		.word	MagX
 2108 0278 B4000000 		.word	.LC16
 2109 027c 00000000 		.word	MagY
 2110 0280 BC000000 		.word	.LC17
 2111 0284 00000000 		.word	MagZ
 2112 0288 C4000000 		.word	.LC18
 2113 028c 00000000 		.word	Temperature
 2114 0290 CC000000 		.word	.LC19
 2115              		.cfi_endproc
 2116              	.LFE80:
 2117              		.size	JY901_Debug_Display, .-JY901_Debug_Display
 2118              		.section	.text.main,"ax",%progbits
 2119              		.align	2
 2120              		.global	main
 2121              		.thumb
 2122              		.thumb_func
 2123              		.type	main, %function
 2124              	main:
 2125              	.LFB81:
 228:.\main.c      **** }
 229:.\main.c      **** 
 230:.\main.c      **** //主函数
 231:.\main.c      **** char tmpbuf[10];
 232:.\main.c      **** int main()
 233:.\main.c      **** {
 2126              		.loc 2 233 0
 2127              		.cfi_startproc
 2128              		@ Volatile: function does not return.
 2129              		@ args = 0, pretend = 0, frame = 0
 2130              		@ frame_needed = 0, uses_anonymous_args = 0
 2131 0000 08B5     		push	{r3, lr}
 2132              		.cfi_def_cfa_offset 8
 2133              		.cfi_offset 3, -8
 2134              		.cfi_offset 14, -4
 234:.\main.c      ****     CyGlobalIntEnable; /* Enable global interrupts. */
 2135              		.loc 2 234 0
ARM GAS  C:\Users\ADMINI~1\AppData\Local\Temp\cciWlNAe.s 			page 48


 2136              	@ 234 ".\main.c" 1
 2137 0002 62B6     		CPSIE   i
 2138              	@ 0 "" 2
 235:.\main.c      ****     
 236:.\main.c      ****     //LCD显示相关
 237:.\main.c      ****     LCD_Start();
 2139              		.loc 2 237 0
 2140              		.thumb
 2141 0004 FFF7FEFF 		bl	LCD_Start
 2142              	.LVL274:
 238:.\main.c      ****     LCD_Disp("Init     ", 0, 0);
 2143              		.loc 2 238 0
 2144 0008 2248     		ldr	r0, .L149
 2145 000a 0021     		movs	r1, #0
 2146 000c 0A46     		mov	r2, r1
 2147 000e FFF7FEFF 		bl	LCD_Disp
 2148              	.LVL275:
 239:.\main.c      ****     
 240:.\main.c      ****     //定时器/PWM相关
 241:.\main.c      ****     isr_Timer_1_StartEx(Timer_1_Interrupt_Handler);
 2149              		.loc 2 241 0
 2150 0012 2148     		ldr	r0, .L149+4
 2151 0014 FFF7FEFF 		bl	isr_Timer_1_StartEx
 2152              	.LVL276:
 242:.\main.c      ****     Timer_1_Start();
 2153              		.loc 2 242 0
 2154 0018 FFF7FEFF 		bl	Timer_1_Start
 2155              	.LVL277:
 243:.\main.c      ****     Initialize_All_PWM();
 2156              		.loc 2 243 0
 2157 001c FFF7FEFF 		bl	Initialize_All_PWM
 2158              	.LVL278:
 244:.\main.c      ****     
 245:.\main.c      ****     //USBUART相关
 246:.\main.c      ****     USBUART_1_Start(0u, USBUART_1_3V_OPERATION);
 2159              		.loc 2 246 0
 2160 0020 0020     		movs	r0, #0
 2161 0022 0146     		mov	r1, r0
 2162 0024 FFF7FEFF 		bl	USBUART_1_Start
 2163              	.LVL279:
 2164              	.L146:
 247:.\main.c      ****     while(!USBUART_1_GetConfiguration());
 2165              		.loc 2 247 0 discriminator 1
 2166 0028 FFF7FEFF 		bl	USBUART_1_GetConfiguration
 2167              	.LVL280:
 2168 002c 0028     		cmp	r0, #0
 2169 002e FBD0     		beq	.L146
 248:.\main.c      ****     USBUART_1_CDC_Init();
 2170              		.loc 2 248 0
 2171 0030 FFF7FEFF 		bl	USBUART_1_CDC_Init
 2172              	.LVL281:
 249:.\main.c      ****     
 250:.\main.c      ****     //USBUART_1_PutData(buffer, length);
 251:.\main.c      ****     //USBUART_1_PutString(str);
 252:.\main.c      ****     
 253:.\main.c      ****     //蓝牙相关
 254:.\main.c      ****     BTRxBufLen = 0;
ARM GAS  C:\Users\ADMINI~1\AppData\Local\Temp\cciWlNAe.s 			page 49


 2173              		.loc 2 254 0
 2174 0034 0024     		movs	r4, #0
 2175 0036 194B     		ldr	r3, .L149+8
 2176 0038 1C70     		strb	r4, [r3]
 255:.\main.c      ****     UART_Bluetooth_Start();
 2177              		.loc 2 255 0
 2178 003a FFF7FEFF 		bl	UART_Bluetooth_Start
 2179              	.LVL282:
 256:.\main.c      ****     UART_Bluetooth_Init();
 2180              		.loc 2 256 0
 2181 003e FFF7FEFF 		bl	UART_Bluetooth_Init
 2182              	.LVL283:
 257:.\main.c      ****     //isr_RX_StartEx(Bluetooth_RX_Interrupt_Handler); //=================
 258:.\main.c      ****     
 259:.\main.c      ****     //JY901串口相关
 260:.\main.c      ****     JY901RxBufLen = 0;
 2183              		.loc 2 260 0
 2184 0042 174B     		ldr	r3, .L149+12
 2185 0044 1C70     		strb	r4, [r3]
 261:.\main.c      ****     UART_JY901_Start();
 2186              		.loc 2 261 0
 2187 0046 FFF7FEFF 		bl	UART_JY901_Start
 2188              	.LVL284:
 262:.\main.c      ****     UART_JY901_Init();
 2189              		.loc 2 262 0
 2190 004a FFF7FEFF 		bl	UART_JY901_Init
 2191              	.LVL285:
 263:.\main.c      ****     isr_jyRX_StartEx(JY901_RX_Interrupt_Handler);
 2192              		.loc 2 263 0
 2193 004e 1548     		ldr	r0, .L149+16
 2194 0050 FFF7FEFF 		bl	isr_jyRX_StartEx
 2195              	.LVL286:
 264:.\main.c      ****     Init_JY901_Data();
 2196              		.loc 2 264 0
 2197 0054 FFF7FEFF 		bl	Init_JY901_Data
 2198              	.LVL287:
 265:.\main.c      ****     
 266:.\main.c      ****     //初始化控制算法变量
 267:.\main.c      ****     Control_Func_InitVariable();
 2199              		.loc 2 267 0
 2200 0058 FFF7FEFF 		bl	Control_Func_InitVariable
 2201              	.LVL288:
 268:.\main.c      ****     
 269:.\main.c      ****     //控制算法定时器
 270:.\main.c      ****     //isr_Ctrl_StartEx(Control_Main);
 271:.\main.c      ****     //Timer_Control_Start();
 272:.\main.c      ****     
 273:.\main.c      ****     LCD_Disp("Start    ", 0, 0);
 2202              		.loc 2 273 0
 2203 005c 1248     		ldr	r0, .L149+20
 2204 005e 2146     		mov	r1, r4
 2205 0060 2246     		mov	r2, r4
 2206 0062 FFF7FEFF 		bl	LCD_Disp
 2207              	.LVL289:
 274:.\main.c      ****     Motor_v_1 = Motor_v_2 = Motor_v_3 = Motor_v_4 = 0;
 2208              		.loc 2 274 0
 2209 0066 114B     		ldr	r3, .L149+24
ARM GAS  C:\Users\ADMINI~1\AppData\Local\Temp\cciWlNAe.s 			page 50


 2210 0068 1C60     		str	r4, [r3]
 2211 006a 114B     		ldr	r3, .L149+28
 2212 006c 1C60     		str	r4, [r3]
 2213 006e 114B     		ldr	r3, .L149+32
 2214 0070 1C60     		str	r4, [r3]
 2215 0072 114B     		ldr	r3, .L149+36
 2216 0074 1C60     		str	r4, [r3]
 2217              	.L147:
 275:.\main.c      **** 
 276:.\main.c      ****     //设置电机停转
 277:.\main.c      ****     for(;;) {
 278:.\main.c      ****         BT_Throttle = 300;
 2218              		.loc 2 278 0 discriminator 1
 2219 0076 114B     		ldr	r3, .L149+40
 2220 0078 4FF49672 		mov	r2, #300
 2221 007c 1A60     		str	r2, [r3]
 279:.\main.c      ****         BT_Pitch = 512;
 2222              		.loc 2 279 0 discriminator 1
 2223 007e 4FF40072 		mov	r2, #512
 2224 0082 DA60     		str	r2, [r3, #12]
 280:.\main.c      ****         BT_Roll = 512;
 2225              		.loc 2 280 0 discriminator 1
 2226 0084 9A60     		str	r2, [r3, #8]
 281:.\main.c      ****         BT_Yaw = 512;
 2227              		.loc 2 281 0 discriminator 1
 2228 0086 5A60     		str	r2, [r3, #4]
 282:.\main.c      ****         //JY901_Debug_Display(); //每隔1秒通过串口向上位机输出JY901数据
 283:.\main.c      ****         //Motor_v_1 = Motor_v_2 = Motor_v_3 = Motor_v_4 = 0;
 284:.\main.c      ****         //CyDelay(500);
 285:.\main.c      ****         Control_Main();
 2229              		.loc 2 285 0 discriminator 1
 2230 0088 FFF7FEFF 		bl	Control_Main
 2231              	.LVL290:
 286:.\main.c      ****         CyDelay(100);
 2232              		.loc 2 286 0 discriminator 1
 2233 008c 6420     		movs	r0, #100
 2234 008e FFF7FEFF 		bl	CyDelay
 2235              	.LVL291:
 287:.\main.c      ****     }
 2236              		.loc 2 287 0 discriminator 1
 2237 0092 F0E7     		b	.L147
 2238              	.L150:
 2239              		.align	2
 2240              	.L149:
 2241 0094 D0000000 		.word	.LC20
 2242 0098 00000000 		.word	Timer_1_Interrupt_Handler
 2243 009c 00000000 		.word	BTRxBufLen
 2244 00a0 00000000 		.word	JY901RxBufLen
 2245 00a4 00000000 		.word	JY901_RX_Interrupt_Handler
 2246 00a8 DC000000 		.word	.LC21
 2247 00ac 00000000 		.word	Motor_v_4
 2248 00b0 00000000 		.word	Motor_v_3
 2249 00b4 00000000 		.word	Motor_v_2
 2250 00b8 00000000 		.word	Motor_v_1
 2251 00bc 00000000 		.word	.LANCHOR0
 2252              		.cfi_endproc
 2253              	.LFE81:
ARM GAS  C:\Users\ADMINI~1\AppData\Local\Temp\cciWlNAe.s 			page 51


 2254              		.size	main, .-main
 2255              		.comm	tmpbuf,10,4
 2256              		.comm	DisplayBuffer,128,4
 2257              		.comm	f_tmp,4,4
 2258              		.comm	symbol,1,1
 2259              		.comm	float2int_tmp,4,4
 2260              		.comm	LCDBuffer,16,4
 2261              		.comm	decode_success,4,4
 2262              		.global	flag_rec
 2263              		.global	flag_55
 2264              		.comm	tmp2,1,1
 2265              		.comm	JY901RxBufLen,1,1
 2266              		.comm	JY901RxBuf,64,4
 2267              		.global	flag
 2268              		.comm	tmp,1,1
 2269              		.comm	BTRxBufLen,1,1
 2270              		.comm	BTRxBuf,64,4
 2271              		.comm	last_Motor_v_4,4,4
 2272              		.comm	last_Motor_v_3,4,4
 2273              		.comm	last_Motor_v_2,4,4
 2274              		.comm	last_Motor_v_1,4,4
 2275              		.comm	Motor_v_4,4,4
 2276              		.comm	Motor_v_3,4,4
 2277              		.comm	Motor_v_2,4,4
 2278              		.comm	Motor_v_1,4,4
 2279              		.comm	sum,4,4
 2280              		.comm	i,4,4
 2281              		.comm	Height,4,4
 2282              		.comm	Pressure,4,4
 2283              		.comm	MagZ,4,4
 2284              		.comm	MagY,4,4
 2285              		.comm	MagX,4,4
 2286              		.comm	Yaw,4,4
 2287              		.comm	Pitch,4,4
 2288              		.comm	Roll,4,4
 2289              		.comm	Temperature,4,4
 2290              		.comm	OmegaZ,4,4
 2291              		.comm	OmegaY,4,4
 2292              		.comm	OmegaX,4,4
 2293              		.comm	AccelZ,4,4
 2294              		.comm	AccelY,4,4
 2295              		.comm	AccelX,4,4
 2296              		.comm	Desire_w_yaw,4,4
 2297              		.comm	Desire_angle_roll,4,4
 2298              		.comm	Desire_angle_pitch,4,4
 2299              		.comm	pitch_angle_offset,4,4
 2300              		.comm	roll_angle_offset,4,4
 2301              		.global	BT_Roll
 2302              		.global	BT_Pitch
 2303              		.global	BT_Yaw
 2304              		.global	BT_Throttle
 2305              		.section	.rodata.str1.4,"aMS",%progbits,1
 2306              		.align	2
 2307              	.LC0:
 2308 0000 25632564 		.ascii	"%c%d.%d\000"
 2308      2E256400 
 2309              	.LC1:
ARM GAS  C:\Users\ADMINI~1\AppData\Local\Temp\cciWlNAe.s 			page 52


 2310 0008 25632564 		.ascii	"%c%d.0%d\000"
 2310      2E302564 
 2310      00
 2311 0011 000000   		.space	3
 2312              	.LC2:
 2313 0014 25632564 		.ascii	"%c%d.00\000"
 2313      2E303000 
 2314              	.LC3:
 2315 001c 47657444 		.ascii	"GetData!\000"
 2315      61746121 
 2315      00
 2316 0025 000000   		.space	3
 2317              	.LC4:
 2318 0028 25632533 		.ascii	"%c%3d.%d\000"
 2318      642E2564 
 2318      00
 2319 0031 000000   		.space	3
 2320              	.LC5:
 2321 0034 3D3D3D3D 		.ascii	"===== Debug Data =====\012\000"
 2321      3D204465 
 2321      62756720 
 2321      44617461 
 2321      203D3D3D 
 2322              	.LC6:
 2323 004c 41636365 		.ascii	"AccelX=\000"
 2323      6C583D00 
 2324              	.LC7:
 2325 0054 2C204163 		.ascii	", AccelY=\000"
 2325      63656C59 
 2325      3D00
 2326 005e 0000     		.space	2
 2327              	.LC8:
 2328 0060 2C204163 		.ascii	", AccelZ=\000"
 2328      63656C5A 
 2328      3D00
 2329 006a 0000     		.space	2
 2330              	.LC9:
 2331 006c 0A4F6D65 		.ascii	"\012OmegaX=\000"
 2331      6761583D 
 2331      00
 2332 0075 000000   		.space	3
 2333              	.LC10:
 2334 0078 2C204F6D 		.ascii	", OmegaY=\000"
 2334      65676159 
 2334      3D00
 2335 0082 0000     		.space	2
 2336              	.LC11:
 2337 0084 2C204F6D 		.ascii	", OmegaZ=\000"
 2337      6567615A 
 2337      3D00
 2338 008e 0000     		.space	2
 2339              	.LC12:
 2340 0090 0A526F6C 		.ascii	"\012Roll=\000"
 2340      6C3D00
 2341 0097 00       		.space	1
 2342              	.LC13:
 2343 0098 2C205069 		.ascii	", Pitch=\000"
ARM GAS  C:\Users\ADMINI~1\AppData\Local\Temp\cciWlNAe.s 			page 53


 2343      7463683D 
 2343      00
 2344 00a1 000000   		.space	3
 2345              	.LC14:
 2346 00a4 2C205961 		.ascii	", Yaw=\000"
 2346      773D00
 2347 00ab 00       		.space	1
 2348              	.LC15:
 2349 00ac 0A48783D 		.ascii	"\012Hx=\000"
 2349      00
 2350 00b1 000000   		.space	3
 2351              	.LC16:
 2352 00b4 2C204879 		.ascii	", Hy=\000"
 2352      3D00
 2353 00ba 0000     		.space	2
 2354              	.LC17:
 2355 00bc 2C20487A 		.ascii	", Hz=\000"
 2355      3D00
 2356 00c2 0000     		.space	2
 2357              	.LC18:
 2358 00c4 0A54656D 		.ascii	"\012Temp=\000"
 2358      703D00
 2359 00cb 00       		.space	1
 2360              	.LC19:
 2361 00cc 0A0A00   		.ascii	"\012\012\000"
 2362 00cf 00       		.space	1
 2363              	.LC20:
 2364 00d0 496E6974 		.ascii	"Init     \000"
 2364      20202020 
 2364      2000
 2365 00da 0000     		.space	2
 2366              	.LC21:
 2367 00dc 53746172 		.ascii	"Start    \000"
 2367      74202020 
 2367      2000
 2368 00e6 0000     		.bss
 2369              		.align	2
 2370              		.set	.LANCHOR0,. + 0
 2371              		.type	BT_Throttle, %object
 2372              		.size	BT_Throttle, 4
 2373              	BT_Throttle:
 2374 0000 00000000 		.space	4
 2375              		.type	BT_Yaw, %object
 2376              		.size	BT_Yaw, 4
 2377              	BT_Yaw:
 2378 0004 00000000 		.space	4
 2379              		.type	BT_Roll, %object
 2380              		.size	BT_Roll, 4
 2381              	BT_Roll:
 2382 0008 00000000 		.space	4
 2383              		.type	BT_Pitch, %object
 2384              		.size	BT_Pitch, 4
 2385              	BT_Pitch:
 2386 000c 00000000 		.space	4
 2387              		.type	flag_55, %object
 2388              		.size	flag_55, 4
 2389              	flag_55:
ARM GAS  C:\Users\ADMINI~1\AppData\Local\Temp\cciWlNAe.s 			page 54


 2390 0010 00000000 		.space	4
 2391              		.type	flag_rec, %object
 2392              		.size	flag_rec, 4
 2393              	flag_rec:
 2394 0014 00000000 		.space	4
 2395              		.type	flag, %object
 2396              		.size	flag, 4
 2397              	flag:
 2398 0018 00000000 		.space	4
 2399              		.text
 2400              	.Letext0:
 2401              		.file 5 "d:\\program files (x86)\\cypress\\psoc creator\\3.3\\psoc creator\\import\\gnu\\arm\\4.9.
 2402              		.file 6 "d:\\program files (x86)\\cypress\\psoc creator\\3.3\\psoc creator\\import\\gnu\\arm\\4.9.
 2403              		.file 7 "Generated_Source\\PSoC5/cytypes.h"
 2404              		.file 8 "Generated_Source\\PSoC5/core_cm3.h"
 2405              		.file 9 "Generated_Source\\PSoC5/PWM_1.h"
 2406              		.file 10 "Generated_Source\\PSoC5/PWM_2.h"
 2407              		.file 11 "Generated_Source\\PSoC5/CyLib.h"
 2408              		.file 12 "Generated_Source\\PSoC5/LCD.h"
 2409              		.file 13 "Generated_Source\\PSoC5/UART_JY901.h"
 2410              		.file 14 "Generated_Source\\PSoC5/UART_Bluetooth.h"
 2411              		.file 15 "Generated_Source\\PSoC5/USBUART_1_cdc.h"
 2412              		.file 16 "Generated_Source\\PSoC5/isr_Timer_1.h"
 2413              		.file 17 "Generated_Source\\PSoC5/Timer_1.h"
 2414              		.file 18 "Generated_Source\\PSoC5/USBUART_1.h"
 2415              		.file 19 "Generated_Source\\PSoC5/isr_jyRX.h"
 2416              		.file 20 "d:\\program files (x86)\\cypress\\psoc creator\\3.3\\psoc creator\\import\\gnu\\arm\\4.9
 2417              		.file 21 ".\\Control.h"
 2418              		.section	.debug_info,"",%progbits
 2419              	.Ldebug_info0:
 2420 0000 21120000 		.4byte	0x1221
 2421 0004 0400     		.2byte	0x4
 2422 0006 00000000 		.4byte	.Ldebug_abbrev0
 2423 000a 04       		.byte	0x4
 2424 000b 01       		.uleb128 0x1
 2425 000c 3C050000 		.4byte	.LASF114
 2426 0010 01       		.byte	0x1
 2427 0011 D4060000 		.4byte	.LASF115
 2428 0015 47000000 		.4byte	.LASF116
 2429 0019 00000000 		.4byte	.Ldebug_ranges0+0
 2430 001d 00000000 		.4byte	0
 2431 0021 00000000 		.4byte	.Ldebug_line0
 2432 0025 02       		.uleb128 0x2
 2433 0026 04       		.byte	0x4
 2434 0027 04       		.byte	0x4
 2435 0028 2F010000 		.4byte	.LASF0
 2436 002c 02       		.uleb128 0x2
 2437 002d 01       		.byte	0x1
 2438 002e 06       		.byte	0x6
 2439 002f 5C060000 		.4byte	.LASF1
 2440 0033 02       		.uleb128 0x2
 2441 0034 01       		.byte	0x1
 2442 0035 08       		.byte	0x8
 2443 0036 2E050000 		.4byte	.LASF2
 2444 003a 02       		.uleb128 0x2
 2445 003b 02       		.byte	0x2
 2446 003c 05       		.byte	0x5
ARM GAS  C:\Users\ADMINI~1\AppData\Local\Temp\cciWlNAe.s 			page 55


 2447 003d EC030000 		.4byte	.LASF3
 2448 0041 02       		.uleb128 0x2
 2449 0042 02       		.byte	0x2
 2450 0043 07       		.byte	0x7
 2451 0044 75060000 		.4byte	.LASF4
 2452 0048 03       		.uleb128 0x3
 2453 0049 BA000000 		.4byte	.LASF10
 2454 004d 05       		.byte	0x5
 2455 004e 3F       		.byte	0x3f
 2456 004f 53000000 		.4byte	0x53
 2457 0053 02       		.uleb128 0x2
 2458 0054 04       		.byte	0x4
 2459 0055 05       		.byte	0x5
 2460 0056 08040000 		.4byte	.LASF5
 2461 005a 02       		.uleb128 0x2
 2462 005b 04       		.byte	0x4
 2463 005c 07       		.byte	0x7
 2464 005d F1040000 		.4byte	.LASF6
 2465 0061 02       		.uleb128 0x2
 2466 0062 08       		.byte	0x8
 2467 0063 05       		.byte	0x5
 2468 0064 92020000 		.4byte	.LASF7
 2469 0068 02       		.uleb128 0x2
 2470 0069 08       		.byte	0x8
 2471 006a 07       		.byte	0x7
 2472 006b 4A010000 		.4byte	.LASF8
 2473 006f 04       		.uleb128 0x4
 2474 0070 04       		.byte	0x4
 2475 0071 05       		.byte	0x5
 2476 0072 696E7400 		.ascii	"int\000"
 2477 0076 02       		.uleb128 0x2
 2478 0077 04       		.byte	0x4
 2479 0078 07       		.byte	0x7
 2480 0079 9A000000 		.4byte	.LASF9
 2481 007d 03       		.uleb128 0x3
 2482 007e 0B050000 		.4byte	.LASF11
 2483 0082 06       		.byte	0x6
 2484 0083 2C       		.byte	0x2c
 2485 0084 48000000 		.4byte	0x48
 2486 0088 05       		.uleb128 0x5
 2487 0089 8D060000 		.4byte	.LASF12
 2488 008d 07       		.byte	0x7
 2489 008e 9201     		.2byte	0x192
 2490 0090 33000000 		.4byte	0x33
 2491 0094 05       		.uleb128 0x5
 2492 0095 3A020000 		.4byte	.LASF13
 2493 0099 07       		.byte	0x7
 2494 009a 9301     		.2byte	0x193
 2495 009c 41000000 		.4byte	0x41
 2496 00a0 05       		.uleb128 0x5
 2497 00a1 03030000 		.4byte	.LASF14
 2498 00a5 07       		.byte	0x7
 2499 00a6 9401     		.2byte	0x194
 2500 00a8 5A000000 		.4byte	0x5a
 2501 00ac 02       		.uleb128 0x2
 2502 00ad 08       		.byte	0x8
 2503 00ae 04       		.byte	0x4
ARM GAS  C:\Users\ADMINI~1\AppData\Local\Temp\cciWlNAe.s 			page 56


 2504 00af 93060000 		.4byte	.LASF15
 2505 00b3 05       		.uleb128 0x5
 2506 00b4 69020000 		.4byte	.LASF16
 2507 00b8 07       		.byte	0x7
 2508 00b9 A301     		.2byte	0x1a3
 2509 00bb BF000000 		.4byte	0xbf
 2510 00bf 02       		.uleb128 0x2
 2511 00c0 01       		.byte	0x1
 2512 00c1 08       		.byte	0x8
 2513 00c2 20020000 		.4byte	.LASF17
 2514 00c6 05       		.uleb128 0x5
 2515 00c7 DA000000 		.4byte	.LASF18
 2516 00cb 07       		.byte	0x7
 2517 00cc 3C02     		.2byte	0x23c
 2518 00ce D2000000 		.4byte	0xd2
 2519 00d2 06       		.uleb128 0x6
 2520 00d3 88000000 		.4byte	0x88
 2521 00d7 05       		.uleb128 0x5
 2522 00d8 E1020000 		.4byte	.LASF19
 2523 00dc 07       		.byte	0x7
 2524 00dd 4E02     		.2byte	0x24e
 2525 00df E3000000 		.4byte	0xe3
 2526 00e3 07       		.uleb128 0x7
 2527 00e4 04       		.byte	0x4
 2528 00e5 E9000000 		.4byte	0xe9
 2529 00e9 08       		.uleb128 0x8
 2530 00ea 02       		.uleb128 0x2
 2531 00eb 04       		.byte	0x4
 2532 00ec 07       		.byte	0x7
 2533 00ed E8040000 		.4byte	.LASF20
 2534 00f1 07       		.uleb128 0x7
 2535 00f2 04       		.byte	0x4
 2536 00f3 BF000000 		.4byte	0xbf
 2537 00f7 07       		.uleb128 0x7
 2538 00f8 04       		.byte	0x4
 2539 00f9 FD000000 		.4byte	0xfd
 2540 00fd 09       		.uleb128 0x9
 2541 00fe BF000000 		.4byte	0xbf
 2542 0102 02       		.uleb128 0x2
 2543 0103 08       		.byte	0x8
 2544 0104 04       		.byte	0x4
 2545 0105 9B030000 		.4byte	.LASF21
 2546 0109 0A       		.uleb128 0xa
 2547 010a E4050000 		.4byte	.LASF22
 2548 010e 01       		.byte	0x1
 2549 010f 13       		.byte	0x13
 2550 0110 00000000 		.4byte	.LFB63
 2551 0114 16000000 		.4byte	.LFE63-.LFB63
 2552 0118 01       		.uleb128 0x1
 2553 0119 9C       		.byte	0x9c
 2554 011a 42010000 		.4byte	0x142
 2555 011e 0B       		.uleb128 0xb
 2556 011f 03010000 		.4byte	.LASF24
 2557 0123 01       		.byte	0x1
 2558 0124 13       		.byte	0x13
 2559 0125 6F000000 		.4byte	0x6f
 2560 0129 00000000 		.4byte	.LLST0
ARM GAS  C:\Users\ADMINI~1\AppData\Local\Temp\cciWlNAe.s 			page 57


 2561 012d 0C       		.uleb128 0xc
 2562 012e 12000000 		.4byte	.LVL3
 2563 0132 B2100000 		.4byte	0x10b2
 2564 0136 0D       		.uleb128 0xd
 2565 0137 01       		.uleb128 0x1
 2566 0138 50       		.byte	0x50
 2567 0139 06       		.uleb128 0x6
 2568 013a F3       		.byte	0xf3
 2569 013b 01       		.uleb128 0x1
 2570 013c 50       		.byte	0x50
 2571 013d 23       		.byte	0x23
 2572 013e E707     		.uleb128 0x3e7
 2573 0140 00       		.byte	0
 2574 0141 00       		.byte	0
 2575 0142 0A       		.uleb128 0xa
 2576 0143 0E020000 		.4byte	.LASF23
 2577 0147 01       		.byte	0x1
 2578 0148 19       		.byte	0x19
 2579 0149 00000000 		.4byte	.LFB64
 2580 014d 16000000 		.4byte	.LFE64-.LFB64
 2581 0151 01       		.uleb128 0x1
 2582 0152 9C       		.byte	0x9c
 2583 0153 7B010000 		.4byte	0x17b
 2584 0157 0B       		.uleb128 0xb
 2585 0158 03010000 		.4byte	.LASF24
 2586 015c 01       		.byte	0x1
 2587 015d 19       		.byte	0x19
 2588 015e 6F000000 		.4byte	0x6f
 2589 0162 3A000000 		.4byte	.LLST1
 2590 0166 0C       		.uleb128 0xc
 2591 0167 12000000 		.4byte	.LVL8
 2592 016b C3100000 		.4byte	0x10c3
 2593 016f 0D       		.uleb128 0xd
 2594 0170 01       		.uleb128 0x1
 2595 0171 50       		.byte	0x50
 2596 0172 06       		.uleb128 0x6
 2597 0173 F3       		.byte	0xf3
 2598 0174 01       		.uleb128 0x1
 2599 0175 50       		.byte	0x50
 2600 0176 23       		.byte	0x23
 2601 0177 E707     		.uleb128 0x3e7
 2602 0179 00       		.byte	0
 2603 017a 00       		.byte	0
 2604 017b 0A       		.uleb128 0xa
 2605 017c C2060000 		.4byte	.LASF25
 2606 0180 01       		.byte	0x1
 2607 0181 1F       		.byte	0x1f
 2608 0182 00000000 		.4byte	.LFB65
 2609 0186 16000000 		.4byte	.LFE65-.LFB65
 2610 018a 01       		.uleb128 0x1
 2611 018b 9C       		.byte	0x9c
 2612 018c B4010000 		.4byte	0x1b4
 2613 0190 0B       		.uleb128 0xb
 2614 0191 03010000 		.4byte	.LASF24
 2615 0195 01       		.byte	0x1
 2616 0196 1F       		.byte	0x1f
 2617 0197 6F000000 		.4byte	0x6f
ARM GAS  C:\Users\ADMINI~1\AppData\Local\Temp\cciWlNAe.s 			page 58


 2618 019b 74000000 		.4byte	.LLST2
 2619 019f 0C       		.uleb128 0xc
 2620 01a0 12000000 		.4byte	.LVL13
 2621 01a4 D4100000 		.4byte	0x10d4
 2622 01a8 0D       		.uleb128 0xd
 2623 01a9 01       		.uleb128 0x1
 2624 01aa 50       		.byte	0x50
 2625 01ab 06       		.uleb128 0x6
 2626 01ac F3       		.byte	0xf3
 2627 01ad 01       		.uleb128 0x1
 2628 01ae 50       		.byte	0x50
 2629 01af 23       		.byte	0x23
 2630 01b0 E707     		.uleb128 0x3e7
 2631 01b2 00       		.byte	0
 2632 01b3 00       		.byte	0
 2633 01b4 0A       		.uleb128 0xa
 2634 01b5 CF020000 		.4byte	.LASF26
 2635 01b9 01       		.byte	0x1
 2636 01ba 25       		.byte	0x25
 2637 01bb 00000000 		.4byte	.LFB66
 2638 01bf 16000000 		.4byte	.LFE66-.LFB66
 2639 01c3 01       		.uleb128 0x1
 2640 01c4 9C       		.byte	0x9c
 2641 01c5 ED010000 		.4byte	0x1ed
 2642 01c9 0B       		.uleb128 0xb
 2643 01ca 03010000 		.4byte	.LASF24
 2644 01ce 01       		.byte	0x1
 2645 01cf 25       		.byte	0x25
 2646 01d0 6F000000 		.4byte	0x6f
 2647 01d4 AE000000 		.4byte	.LLST3
 2648 01d8 0C       		.uleb128 0xc
 2649 01d9 12000000 		.4byte	.LVL18
 2650 01dd E5100000 		.4byte	0x10e5
 2651 01e1 0D       		.uleb128 0xd
 2652 01e2 01       		.uleb128 0x1
 2653 01e3 50       		.byte	0x50
 2654 01e4 06       		.uleb128 0x6
 2655 01e5 F3       		.byte	0xf3
 2656 01e6 01       		.uleb128 0x1
 2657 01e7 50       		.byte	0x50
 2658 01e8 23       		.byte	0x23
 2659 01e9 E707     		.uleb128 0x3e7
 2660 01eb 00       		.byte	0
 2661 01ec 00       		.byte	0
 2662 01ed 0A       		.uleb128 0xa
 2663 01ee CA050000 		.4byte	.LASF27
 2664 01f2 02       		.byte	0x2
 2665 01f3 30       		.byte	0x30
 2666 01f4 00000000 		.4byte	.LFB75
 2667 01f8 AC000000 		.4byte	.LFE75-.LFB75
 2668 01fc 01       		.uleb128 0x1
 2669 01fd 9C       		.byte	0x9c
 2670 01fe 27020000 		.4byte	0x227
 2671 0202 0E       		.uleb128 0xe
 2672 0203 20000000 		.4byte	.LVL20
 2673 0207 09010000 		.4byte	0x109
 2674 020b 0E       		.uleb128 0xe
ARM GAS  C:\Users\ADMINI~1\AppData\Local\Temp\cciWlNAe.s 			page 59


 2675 020c 40000000 		.4byte	.LVL21
 2676 0210 42010000 		.4byte	0x142
 2677 0214 0E       		.uleb128 0xe
 2678 0215 60000000 		.4byte	.LVL22
 2679 0219 7B010000 		.4byte	0x17b
 2680 021d 0E       		.uleb128 0xe
 2681 021e 80000000 		.4byte	.LVL23
 2682 0222 B4010000 		.4byte	0x1b4
 2683 0226 00       		.byte	0
 2684 0227 0A       		.uleb128 0xa
 2685 0228 59040000 		.4byte	.LASF28
 2686 022c 01       		.byte	0x1
 2687 022d 2B       		.byte	0x2b
 2688 022e 00000000 		.4byte	.LFB67
 2689 0232 20000000 		.4byte	.LFE67-.LFB67
 2690 0236 01       		.uleb128 0x1
 2691 0237 9C       		.byte	0x9c
 2692 0238 C2020000 		.4byte	0x2c2
 2693 023c 0F       		.uleb128 0xf
 2694 023d 703100   		.ascii	"p1\000"
 2695 0240 01       		.byte	0x1
 2696 0241 2B       		.byte	0x2b
 2697 0242 6F000000 		.4byte	0x6f
 2698 0246 E8000000 		.4byte	.LLST4
 2699 024a 0F       		.uleb128 0xf
 2700 024b 703200   		.ascii	"p2\000"
 2701 024e 01       		.byte	0x1
 2702 024f 2B       		.byte	0x2b
 2703 0250 6F000000 		.4byte	0x6f
 2704 0254 09010000 		.4byte	.LLST5
 2705 0258 0F       		.uleb128 0xf
 2706 0259 703300   		.ascii	"p3\000"
 2707 025c 01       		.byte	0x1
 2708 025d 2B       		.byte	0x2b
 2709 025e 6F000000 		.4byte	0x6f
 2710 0262 27010000 		.4byte	.LLST6
 2711 0266 0F       		.uleb128 0xf
 2712 0267 703400   		.ascii	"p4\000"
 2713 026a 01       		.byte	0x1
 2714 026b 2B       		.byte	0x2b
 2715 026c 6F000000 		.4byte	0x6f
 2716 0270 45010000 		.4byte	.LLST7
 2717 0274 10       		.uleb128 0x10
 2718 0275 0C000000 		.4byte	.LVL25
 2719 0279 09010000 		.4byte	0x109
 2720 027d 89020000 		.4byte	0x289
 2721 0281 0D       		.uleb128 0xd
 2722 0282 01       		.uleb128 0x1
 2723 0283 50       		.byte	0x50
 2724 0284 03       		.uleb128 0x3
 2725 0285 F3       		.byte	0xf3
 2726 0286 01       		.uleb128 0x1
 2727 0287 50       		.byte	0x50
 2728 0288 00       		.byte	0
 2729 0289 10       		.uleb128 0x10
 2730 028a 12000000 		.4byte	.LVL26
 2731 028e 42010000 		.4byte	0x142
ARM GAS  C:\Users\ADMINI~1\AppData\Local\Temp\cciWlNAe.s 			page 60


 2732 0292 9D020000 		.4byte	0x29d
 2733 0296 0D       		.uleb128 0xd
 2734 0297 01       		.uleb128 0x1
 2735 0298 50       		.byte	0x50
 2736 0299 02       		.uleb128 0x2
 2737 029a 76       		.byte	0x76
 2738 029b 00       		.sleb128 0
 2739 029c 00       		.byte	0
 2740 029d 10       		.uleb128 0x10
 2741 029e 18000000 		.4byte	.LVL27
 2742 02a2 7B010000 		.4byte	0x17b
 2743 02a6 B1020000 		.4byte	0x2b1
 2744 02aa 0D       		.uleb128 0xd
 2745 02ab 01       		.uleb128 0x1
 2746 02ac 50       		.byte	0x50
 2747 02ad 02       		.uleb128 0x2
 2748 02ae 75       		.byte	0x75
 2749 02af 00       		.sleb128 0
 2750 02b0 00       		.byte	0
 2751 02b1 0C       		.uleb128 0xc
 2752 02b2 1E000000 		.4byte	.LVL28
 2753 02b6 B4010000 		.4byte	0x1b4
 2754 02ba 0D       		.uleb128 0xd
 2755 02bb 01       		.uleb128 0x1
 2756 02bc 50       		.byte	0x50
 2757 02bd 02       		.uleb128 0x2
 2758 02be 74       		.byte	0x74
 2759 02bf 00       		.sleb128 0
 2760 02c0 00       		.byte	0
 2761 02c1 00       		.byte	0
 2762 02c2 11       		.uleb128 0x11
 2763 02c3 10060000 		.4byte	.LASF29
 2764 02c7 01       		.byte	0x1
 2765 02c8 32       		.byte	0x32
 2766 02c9 00000000 		.4byte	.LFB68
 2767 02cd 24000000 		.4byte	.LFE68-.LFB68
 2768 02d1 01       		.uleb128 0x1
 2769 02d2 9C       		.byte	0x9c
 2770 02d3 32030000 		.4byte	0x332
 2771 02d7 0E       		.uleb128 0xe
 2772 02d8 06000000 		.4byte	.LVL29
 2773 02dc F6100000 		.4byte	0x10f6
 2774 02e0 0E       		.uleb128 0xe
 2775 02e1 0A000000 		.4byte	.LVL30
 2776 02e5 FD100000 		.4byte	0x10fd
 2777 02e9 10       		.uleb128 0x10
 2778 02ea 10000000 		.4byte	.LVL31
 2779 02ee B2100000 		.4byte	0x10b2
 2780 02f2 FC020000 		.4byte	0x2fc
 2781 02f6 0D       		.uleb128 0xd
 2782 02f7 01       		.uleb128 0x1
 2783 02f8 50       		.byte	0x50
 2784 02f9 01       		.uleb128 0x1
 2785 02fa 30       		.byte	0x30
 2786 02fb 00       		.byte	0
 2787 02fc 10       		.uleb128 0x10
 2788 02fd 16000000 		.4byte	.LVL32
ARM GAS  C:\Users\ADMINI~1\AppData\Local\Temp\cciWlNAe.s 			page 61


 2789 0301 C3100000 		.4byte	0x10c3
 2790 0305 0F030000 		.4byte	0x30f
 2791 0309 0D       		.uleb128 0xd
 2792 030a 01       		.uleb128 0x1
 2793 030b 50       		.byte	0x50
 2794 030c 01       		.uleb128 0x1
 2795 030d 30       		.byte	0x30
 2796 030e 00       		.byte	0
 2797 030f 10       		.uleb128 0x10
 2798 0310 1C000000 		.4byte	.LVL33
 2799 0314 D4100000 		.4byte	0x10d4
 2800 0318 22030000 		.4byte	0x322
 2801 031c 0D       		.uleb128 0xd
 2802 031d 01       		.uleb128 0x1
 2803 031e 50       		.byte	0x50
 2804 031f 01       		.uleb128 0x1
 2805 0320 30       		.byte	0x30
 2806 0321 00       		.byte	0
 2807 0322 0C       		.uleb128 0xc
 2808 0323 22000000 		.4byte	.LVL34
 2809 0327 E5100000 		.4byte	0x10e5
 2810 032b 0D       		.uleb128 0xd
 2811 032c 01       		.uleb128 0x1
 2812 032d 50       		.byte	0x50
 2813 032e 01       		.uleb128 0x1
 2814 032f 30       		.byte	0x30
 2815 0330 00       		.byte	0
 2816 0331 00       		.byte	0
 2817 0332 11       		.uleb128 0x11
 2818 0333 AB040000 		.4byte	.LASF30
 2819 0337 01       		.byte	0x1
 2820 0338 3B       		.byte	0x3b
 2821 0339 00000000 		.4byte	.LFB69
 2822 033d 4C000000 		.4byte	.LFE69-.LFB69
 2823 0341 01       		.uleb128 0x1
 2824 0342 9C       		.byte	0x9c
 2825 0343 0E040000 		.4byte	0x40e
 2826 0347 10       		.uleb128 0x10
 2827 0348 0A000000 		.4byte	.LVL35
 2828 034c 09010000 		.4byte	0x109
 2829 0350 5C030000 		.4byte	0x35c
 2830 0354 0D       		.uleb128 0xd
 2831 0355 01       		.uleb128 0x1
 2832 0356 50       		.byte	0x50
 2833 0357 03       		.uleb128 0x3
 2834 0358 0A       		.byte	0xa
 2835 0359 E803     		.2byte	0x3e8
 2836 035b 00       		.byte	0
 2837 035c 10       		.uleb128 0x10
 2838 035d 12000000 		.4byte	.LVL36
 2839 0361 42010000 		.4byte	0x142
 2840 0365 71030000 		.4byte	0x371
 2841 0369 0D       		.uleb128 0xd
 2842 036a 01       		.uleb128 0x1
 2843 036b 50       		.byte	0x50
 2844 036c 03       		.uleb128 0x3
 2845 036d 0A       		.byte	0xa
ARM GAS  C:\Users\ADMINI~1\AppData\Local\Temp\cciWlNAe.s 			page 62


 2846 036e E803     		.2byte	0x3e8
 2847 0370 00       		.byte	0
 2848 0371 10       		.uleb128 0x10
 2849 0372 1A000000 		.4byte	.LVL37
 2850 0376 7B010000 		.4byte	0x17b
 2851 037a 86030000 		.4byte	0x386
 2852 037e 0D       		.uleb128 0xd
 2853 037f 01       		.uleb128 0x1
 2854 0380 50       		.byte	0x50
 2855 0381 03       		.uleb128 0x3
 2856 0382 0A       		.byte	0xa
 2857 0383 E803     		.2byte	0x3e8
 2858 0385 00       		.byte	0
 2859 0386 10       		.uleb128 0x10
 2860 0387 22000000 		.4byte	.LVL38
 2861 038b B4010000 		.4byte	0x1b4
 2862 038f 9B030000 		.4byte	0x39b
 2863 0393 0D       		.uleb128 0xd
 2864 0394 01       		.uleb128 0x1
 2865 0395 50       		.byte	0x50
 2866 0396 03       		.uleb128 0x3
 2867 0397 0A       		.byte	0xa
 2868 0398 E803     		.2byte	0x3e8
 2869 039a 00       		.byte	0
 2870 039b 10       		.uleb128 0x10
 2871 039c 2A000000 		.4byte	.LVL39
 2872 03a0 04110000 		.4byte	0x1104
 2873 03a4 B0030000 		.4byte	0x3b0
 2874 03a8 0D       		.uleb128 0xd
 2875 03a9 01       		.uleb128 0x1
 2876 03aa 50       		.byte	0x50
 2877 03ab 03       		.uleb128 0x3
 2878 03ac 0A       		.byte	0xa
 2879 03ad D007     		.2byte	0x7d0
 2880 03af 00       		.byte	0
 2881 03b0 10       		.uleb128 0x10
 2882 03b1 30000000 		.4byte	.LVL40
 2883 03b5 09010000 		.4byte	0x109
 2884 03b9 C3030000 		.4byte	0x3c3
 2885 03bd 0D       		.uleb128 0xd
 2886 03be 01       		.uleb128 0x1
 2887 03bf 50       		.byte	0x50
 2888 03c0 01       		.uleb128 0x1
 2889 03c1 30       		.byte	0x30
 2890 03c2 00       		.byte	0
 2891 03c3 10       		.uleb128 0x10
 2892 03c4 36000000 		.4byte	.LVL41
 2893 03c8 42010000 		.4byte	0x142
 2894 03cc D6030000 		.4byte	0x3d6
 2895 03d0 0D       		.uleb128 0xd
 2896 03d1 01       		.uleb128 0x1
 2897 03d2 50       		.byte	0x50
 2898 03d3 01       		.uleb128 0x1
 2899 03d4 30       		.byte	0x30
 2900 03d5 00       		.byte	0
 2901 03d6 10       		.uleb128 0x10
 2902 03d7 3C000000 		.4byte	.LVL42
ARM GAS  C:\Users\ADMINI~1\AppData\Local\Temp\cciWlNAe.s 			page 63


 2903 03db 7B010000 		.4byte	0x17b
 2904 03df E9030000 		.4byte	0x3e9
 2905 03e3 0D       		.uleb128 0xd
 2906 03e4 01       		.uleb128 0x1
 2907 03e5 50       		.byte	0x50
 2908 03e6 01       		.uleb128 0x1
 2909 03e7 30       		.byte	0x30
 2910 03e8 00       		.byte	0
 2911 03e9 10       		.uleb128 0x10
 2912 03ea 42000000 		.4byte	.LVL43
 2913 03ee B4010000 		.4byte	0x1b4
 2914 03f2 FC030000 		.4byte	0x3fc
 2915 03f6 0D       		.uleb128 0xd
 2916 03f7 01       		.uleb128 0x1
 2917 03f8 50       		.byte	0x50
 2918 03f9 01       		.uleb128 0x1
 2919 03fa 30       		.byte	0x30
 2920 03fb 00       		.byte	0
 2921 03fc 0C       		.uleb128 0xc
 2922 03fd 4A000000 		.4byte	.LVL44
 2923 0401 04110000 		.4byte	0x1104
 2924 0405 0D       		.uleb128 0xd
 2925 0406 01       		.uleb128 0x1
 2926 0407 50       		.byte	0x50
 2927 0408 03       		.uleb128 0x3
 2928 0409 0A       		.byte	0xa
 2929 040a E803     		.2byte	0x3e8
 2930 040c 00       		.byte	0
 2931 040d 00       		.byte	0
 2932 040e 12       		.uleb128 0x12
 2933 040f 29030000 		.4byte	.LASF31
 2934 0413 03       		.byte	0x3
 2935 0414 0D       		.byte	0xd
 2936 0415 00000000 		.4byte	.LFB70
 2937 0419 44010000 		.4byte	.LFE70-.LFB70
 2938 041d 01       		.uleb128 0x1
 2939 041e 9C       		.byte	0x9c
 2940 041f 5E040000 		.4byte	0x45e
 2941 0423 0F       		.uleb128 0xf
 2942 0424 62756600 		.ascii	"buf\000"
 2943 0428 03       		.byte	0x3
 2944 0429 0D       		.byte	0xd
 2945 042a 5E040000 		.4byte	0x45e
 2946 042e 63010000 		.4byte	.LLST8
 2947 0432 0B       		.uleb128 0xb
 2948 0433 33020000 		.4byte	.LASF32
 2949 0437 03       		.byte	0x3
 2950 0438 0D       		.byte	0xd
 2951 0439 88000000 		.4byte	0x88
 2952 043d 8F010000 		.4byte	.LLST9
 2953 0441 13       		.uleb128 0x13
 2954 0442 73756D00 		.ascii	"sum\000"
 2955 0446 03       		.byte	0x3
 2956 0447 0E       		.byte	0xe
 2957 0448 6F000000 		.4byte	0x6f
 2958 044c B0010000 		.4byte	.LLST10
 2959 0450 13       		.uleb128 0x13
ARM GAS  C:\Users\ADMINI~1\AppData\Local\Temp\cciWlNAe.s 			page 64


 2960 0451 6A00     		.ascii	"j\000"
 2961 0453 03       		.byte	0x3
 2962 0454 0F       		.byte	0xf
 2963 0455 6F000000 		.4byte	0x6f
 2964 0459 CF010000 		.4byte	.LLST11
 2965 045d 00       		.byte	0
 2966 045e 07       		.uleb128 0x7
 2967 045f 04       		.byte	0x4
 2968 0460 88000000 		.4byte	0x88
 2969 0464 14       		.uleb128 0x14
 2970 0465 FE010000 		.4byte	.LASF117
 2971 0469 04       		.byte	0x4
 2972 046a 18       		.byte	0x18
 2973 046b 00000000 		.4byte	.LFB71
 2974 046f 70000000 		.4byte	.LFE71-.LFB71
 2975 0473 01       		.uleb128 0x1
 2976 0474 9C       		.byte	0x9c
 2977 0475 15       		.uleb128 0x15
 2978 0476 08000000 		.4byte	.LASF118
 2979 047a 04       		.byte	0x4
 2980 047b 20       		.byte	0x20
 2981 047c 6F000000 		.4byte	0x6f
 2982 0480 00000000 		.4byte	.LFB72
 2983 0484 24030000 		.4byte	.LFE72-.LFB72
 2984 0488 01       		.uleb128 0x1
 2985 0489 9C       		.byte	0x9c
 2986 048a AD040000 		.4byte	0x4ad
 2987 048e 0F       		.uleb128 0xf
 2988 048f 62756600 		.ascii	"buf\000"
 2989 0493 04       		.byte	0x4
 2990 0494 20       		.byte	0x20
 2991 0495 5E040000 		.4byte	0x45e
 2992 0499 EE010000 		.4byte	.LLST12
 2993 049d 0F       		.uleb128 0xf
 2994 049e 6C656E00 		.ascii	"len\000"
 2995 04a2 04       		.byte	0x4
 2996 04a3 20       		.byte	0x20
 2997 04a4 6F000000 		.4byte	0x6f
 2998 04a8 D3020000 		.4byte	.LLST13
 2999 04ac 00       		.byte	0
 3000 04ad 0A       		.uleb128 0xa
 3001 04ae 13050000 		.4byte	.LASF33
 3002 04b2 02       		.byte	0x2
 3003 04b3 7E       		.byte	0x7e
 3004 04b4 00000000 		.4byte	.LFB79
 3005 04b8 9C000000 		.4byte	.LFE79-.LFB79
 3006 04bc 01       		.uleb128 0x1
 3007 04bd 9C       		.byte	0x9c
 3008 04be DF040000 		.4byte	0x4df
 3009 04c2 0E       		.uleb128 0xe
 3010 04c3 06000000 		.4byte	.LVL155
 3011 04c7 15110000 		.4byte	0x1115
 3012 04cb 0C       		.uleb128 0xc
 3013 04cc 6C000000 		.4byte	.LVL156
 3014 04d0 75040000 		.4byte	0x475
 3015 04d4 0D       		.uleb128 0xd
 3016 04d5 01       		.uleb128 0x1
ARM GAS  C:\Users\ADMINI~1\AppData\Local\Temp\cciWlNAe.s 			page 65


 3017 04d6 50       		.byte	0x50
 3018 04d7 05       		.uleb128 0x5
 3019 04d8 03       		.byte	0x3
 3020 04d9 00000000 		.4byte	JY901RxBuf
 3021 04dd 00       		.byte	0
 3022 04de 00       		.byte	0
 3023 04df 0A       		.uleb128 0xa
 3024 04e0 1F000000 		.4byte	.LASF34
 3025 04e4 02       		.byte	0x2
 3026 04e5 15       		.byte	0x15
 3027 04e6 00000000 		.4byte	.LFB73
 3028 04ea 14000000 		.4byte	.LFE73-.LFB73
 3029 04ee 01       		.uleb128 0x1
 3030 04ef 9C       		.byte	0x9c
 3031 04f0 3B050000 		.4byte	0x53b
 3032 04f4 0F       		.uleb128 0xf
 3033 04f5 73747200 		.ascii	"str\000"
 3034 04f9 02       		.byte	0x2
 3035 04fa 15       		.byte	0x15
 3036 04fb F1000000 		.4byte	0xf1
 3037 04ff 0D030000 		.4byte	.LLST14
 3038 0503 0F       		.uleb128 0xf
 3039 0504 726F7700 		.ascii	"row\000"
 3040 0508 02       		.byte	0x2
 3041 0509 15       		.byte	0x15
 3042 050a 33000000 		.4byte	0x33
 3043 050e 2B030000 		.4byte	.LLST15
 3044 0512 0F       		.uleb128 0xf
 3045 0513 636F6C00 		.ascii	"col\000"
 3046 0517 02       		.byte	0x2
 3047 0518 15       		.byte	0x15
 3048 0519 33000000 		.4byte	0x33
 3049 051d 4C030000 		.4byte	.LLST16
 3050 0521 0E       		.uleb128 0xe
 3051 0522 0C000000 		.4byte	.LVL160
 3052 0526 20110000 		.4byte	0x1120
 3053 052a 0C       		.uleb128 0xc
 3054 052b 12000000 		.4byte	.LVL161
 3055 052f 36110000 		.4byte	0x1136
 3056 0533 0D       		.uleb128 0xd
 3057 0534 01       		.uleb128 0x1
 3058 0535 50       		.byte	0x50
 3059 0536 02       		.uleb128 0x2
 3060 0537 74       		.byte	0x74
 3061 0538 00       		.sleb128 0
 3062 0539 00       		.byte	0
 3063 053a 00       		.byte	0
 3064 053b 12       		.uleb128 0x12
 3065 053c 3F040000 		.4byte	.LASF35
 3066 0540 02       		.byte	0x2
 3067 0541 1E       		.byte	0x1e
 3068 0542 00000000 		.4byte	.LFB74
 3069 0546 A8000000 		.4byte	.LFE74-.LFB74
 3070 054a 01       		.uleb128 0x1
 3071 054b 9C       		.byte	0x9c
 3072 054c 0E060000 		.4byte	0x60e
 3073 0550 0F       		.uleb128 0xf
ARM GAS  C:\Users\ADMINI~1\AppData\Local\Temp\cciWlNAe.s 			page 66


 3074 0551 73747200 		.ascii	"str\000"
 3075 0555 02       		.byte	0x2
 3076 0556 1E       		.byte	0x1e
 3077 0557 F1000000 		.4byte	0xf1
 3078 055b 6D030000 		.4byte	.LLST17
 3079 055f 0F       		.uleb128 0xf
 3080 0560 7800     		.ascii	"x\000"
 3081 0562 02       		.byte	0x2
 3082 0563 1E       		.byte	0x1e
 3083 0564 25000000 		.4byte	0x25
 3084 0568 99030000 		.4byte	.LLST18
 3085 056c 16       		.uleb128 0x16
 3086 056d B3000000 		.4byte	.LASF36
 3087 0571 02       		.byte	0x2
 3088 0572 1F       		.byte	0x1f
 3089 0573 88000000 		.4byte	0x88
 3090 0577 D2030000 		.4byte	.LLST19
 3091 057b 13       		.uleb128 0x13
 3092 057c 6E756D00 		.ascii	"num\000"
 3093 0580 02       		.byte	0x2
 3094 0581 20       		.byte	0x20
 3095 0582 25000000 		.4byte	0x25
 3096 0586 E5030000 		.4byte	.LLST20
 3097 058a 16       		.uleb128 0x16
 3098 058b A2040000 		.4byte	.LASF37
 3099 058f 02       		.byte	0x2
 3100 0590 21       		.byte	0x21
 3101 0591 6F000000 		.4byte	0x6f
 3102 0595 F8030000 		.4byte	.LLST21
 3103 0599 16       		.uleb128 0x16
 3104 059a B6010000 		.4byte	.LASF38
 3105 059e 02       		.byte	0x2
 3106 059f 22       		.byte	0x22
 3107 05a0 6F000000 		.4byte	0x6f
 3108 05a4 16040000 		.4byte	.LLST22
 3109 05a8 10       		.uleb128 0x10
 3110 05a9 66000000 		.4byte	.LVL177
 3111 05ad 52110000 		.4byte	0x1152
 3112 05b1 CB050000 		.4byte	0x5cb
 3113 05b5 0D       		.uleb128 0xd
 3114 05b6 01       		.uleb128 0x1
 3115 05b7 53       		.byte	0x53
 3116 05b8 02       		.uleb128 0x2
 3117 05b9 76       		.byte	0x76
 3118 05ba 00       		.sleb128 0
 3119 05bb 0D       		.uleb128 0xd
 3120 05bc 01       		.uleb128 0x1
 3121 05bd 51       		.byte	0x51
 3122 05be 05       		.uleb128 0x5
 3123 05bf 03       		.byte	0x3
 3124 05c0 00000000 		.4byte	.LC0
 3125 05c4 0D       		.uleb128 0xd
 3126 05c5 01       		.uleb128 0x1
 3127 05c6 50       		.byte	0x50
 3128 05c7 02       		.uleb128 0x2
 3129 05c8 77       		.byte	0x77
 3130 05c9 00       		.sleb128 0
ARM GAS  C:\Users\ADMINI~1\AppData\Local\Temp\cciWlNAe.s 			page 67


 3131 05ca 00       		.byte	0
 3132 05cb 10       		.uleb128 0x10
 3133 05cc 80000000 		.4byte	.LVL180
 3134 05d0 52110000 		.4byte	0x1152
 3135 05d4 EE050000 		.4byte	0x5ee
 3136 05d8 0D       		.uleb128 0xd
 3137 05d9 01       		.uleb128 0x1
 3138 05da 53       		.byte	0x53
 3139 05db 02       		.uleb128 0x2
 3140 05dc 76       		.byte	0x76
 3141 05dd 00       		.sleb128 0
 3142 05de 0D       		.uleb128 0xd
 3143 05df 01       		.uleb128 0x1
 3144 05e0 51       		.byte	0x51
 3145 05e1 05       		.uleb128 0x5
 3146 05e2 03       		.byte	0x3
 3147 05e3 08000000 		.4byte	.LC1
 3148 05e7 0D       		.uleb128 0xd
 3149 05e8 01       		.uleb128 0x1
 3150 05e9 50       		.byte	0x50
 3151 05ea 02       		.uleb128 0x2
 3152 05eb 77       		.byte	0x77
 3153 05ec 00       		.sleb128 0
 3154 05ed 00       		.byte	0
 3155 05ee 0C       		.uleb128 0xc
 3156 05ef 94000000 		.4byte	.LVL183
 3157 05f3 52110000 		.4byte	0x1152
 3158 05f7 0D       		.uleb128 0xd
 3159 05f8 01       		.uleb128 0x1
 3160 05f9 53       		.byte	0x53
 3161 05fa 02       		.uleb128 0x2
 3162 05fb 76       		.byte	0x76
 3163 05fc 00       		.sleb128 0
 3164 05fd 0D       		.uleb128 0xd
 3165 05fe 01       		.uleb128 0x1
 3166 05ff 51       		.byte	0x51
 3167 0600 05       		.uleb128 0x5
 3168 0601 03       		.byte	0x3
 3169 0602 14000000 		.4byte	.LC2
 3170 0606 0D       		.uleb128 0xd
 3171 0607 01       		.uleb128 0x1
 3172 0608 50       		.byte	0x50
 3173 0609 02       		.uleb128 0x2
 3174 060a 77       		.byte	0x77
 3175 060b 00       		.sleb128 0
 3176 060c 00       		.byte	0
 3177 060d 00       		.byte	0
 3178 060e 0A       		.uleb128 0xa
 3179 060f 09010000 		.4byte	.LASF39
 3180 0613 02       		.byte	0x2
 3181 0614 4A       		.byte	0x4a
 3182 0615 00000000 		.4byte	.LFB76
 3183 0619 80000000 		.4byte	.LFE76-.LFB76
 3184 061d 01       		.uleb128 0x1
 3185 061e 9C       		.byte	0x9c
 3186 061f 61060000 		.4byte	0x661
 3187 0623 0E       		.uleb128 0xe
ARM GAS  C:\Users\ADMINI~1\AppData\Local\Temp\cciWlNAe.s 			page 68


 3188 0624 06000000 		.4byte	.LVL185
 3189 0628 6D110000 		.4byte	0x116d
 3190 062c 10       		.uleb128 0x10
 3191 062d 58000000 		.4byte	.LVL186
 3192 0631 DF040000 		.4byte	0x4df
 3193 0635 4D060000 		.4byte	0x64d
 3194 0639 0D       		.uleb128 0xd
 3195 063a 01       		.uleb128 0x1
 3196 063b 52       		.byte	0x52
 3197 063c 01       		.uleb128 0x1
 3198 063d 32       		.byte	0x32
 3199 063e 0D       		.uleb128 0xd
 3200 063f 01       		.uleb128 0x1
 3201 0640 51       		.byte	0x51
 3202 0641 01       		.uleb128 0x1
 3203 0642 31       		.byte	0x31
 3204 0643 0D       		.uleb128 0xd
 3205 0644 01       		.uleb128 0x1
 3206 0645 50       		.byte	0x50
 3207 0646 05       		.uleb128 0x5
 3208 0647 03       		.byte	0x3
 3209 0648 1C000000 		.4byte	.LC3
 3210 064c 00       		.byte	0
 3211 064d 0C       		.uleb128 0xc
 3212 064e 62000000 		.4byte	.LVL187
 3213 0652 0E040000 		.4byte	0x40e
 3214 0656 0D       		.uleb128 0xd
 3215 0657 01       		.uleb128 0x1
 3216 0658 50       		.byte	0x50
 3217 0659 05       		.uleb128 0x5
 3218 065a 03       		.byte	0x3
 3219 065b 00000000 		.4byte	BTRxBuf
 3220 065f 00       		.byte	0
 3221 0660 00       		.byte	0
 3222 0661 12       		.uleb128 0x12
 3223 0662 DD060000 		.4byte	.LASF40
 3224 0666 02       		.byte	0x2
 3225 0667 6C       		.byte	0x6c
 3226 0668 00000000 		.4byte	.LFB77
 3227 066c 88000000 		.4byte	.LFE77-.LFB77
 3228 0670 01       		.uleb128 0x1
 3229 0671 9C       		.byte	0x9c
 3230 0672 A3060000 		.4byte	0x6a3
 3231 0676 0F       		.uleb128 0xf
 3232 0677 6600     		.ascii	"f\000"
 3233 0679 02       		.byte	0x2
 3234 067a 6C       		.byte	0x6c
 3235 067b 25000000 		.4byte	0x25
 3236 067f 57040000 		.4byte	.LLST23
 3237 0683 0C       		.uleb128 0xc
 3238 0684 64000000 		.4byte	.LVL195
 3239 0688 52110000 		.4byte	0x1152
 3240 068c 0D       		.uleb128 0xd
 3241 068d 01       		.uleb128 0x1
 3242 068e 52       		.byte	0x52
 3243 068f 02       		.uleb128 0x2
 3244 0690 75       		.byte	0x75
ARM GAS  C:\Users\ADMINI~1\AppData\Local\Temp\cciWlNAe.s 			page 69


 3245 0691 00       		.sleb128 0
 3246 0692 0D       		.uleb128 0xd
 3247 0693 01       		.uleb128 0x1
 3248 0694 51       		.byte	0x51
 3249 0695 05       		.uleb128 0x5
 3250 0696 03       		.byte	0x3
 3251 0697 28000000 		.4byte	.LC4
 3252 069b 0D       		.uleb128 0xd
 3253 069c 01       		.uleb128 0x1
 3254 069d 50       		.byte	0x50
 3255 069e 02       		.uleb128 0x2
 3256 069f 74       		.byte	0x74
 3257 06a0 00       		.sleb128 0
 3258 06a1 00       		.byte	0
 3259 06a2 00       		.byte	0
 3260 06a3 11       		.uleb128 0x11
 3261 06a4 C9000000 		.4byte	.LASF41
 3262 06a8 02       		.byte	0x2
 3263 06a9 75       		.byte	0x75
 3264 06aa 00000000 		.4byte	.LFB78
 3265 06ae 4C000000 		.4byte	.LFE78-.LFB78
 3266 06b2 01       		.uleb128 0x1
 3267 06b3 9C       		.byte	0x9c
 3268 06b4 2A070000 		.4byte	0x72a
 3269 06b8 0E       		.uleb128 0xe
 3270 06b9 0A000000 		.4byte	.LVL196
 3271 06bd 61060000 		.4byte	0x661
 3272 06c1 10       		.uleb128 0x10
 3273 06c2 16000000 		.4byte	.LVL197
 3274 06c6 DF040000 		.4byte	0x4df
 3275 06ca DF060000 		.4byte	0x6df
 3276 06ce 0D       		.uleb128 0xd
 3277 06cf 01       		.uleb128 0x1
 3278 06d0 52       		.byte	0x52
 3279 06d1 01       		.uleb128 0x1
 3280 06d2 30       		.byte	0x30
 3281 06d3 0D       		.uleb128 0xd
 3282 06d4 01       		.uleb128 0x1
 3283 06d5 51       		.byte	0x51
 3284 06d6 01       		.uleb128 0x1
 3285 06d7 30       		.byte	0x30
 3286 06d8 0D       		.uleb128 0xd
 3287 06d9 01       		.uleb128 0x1
 3288 06da 50       		.byte	0x50
 3289 06db 02       		.uleb128 0x2
 3290 06dc 74       		.byte	0x74
 3291 06dd 00       		.sleb128 0
 3292 06de 00       		.byte	0
 3293 06df 0E       		.uleb128 0xe
 3294 06e0 1E000000 		.4byte	.LVL198
 3295 06e4 61060000 		.4byte	0x661
 3296 06e8 10       		.uleb128 0x10
 3297 06e9 28000000 		.4byte	.LVL199
 3298 06ed DF040000 		.4byte	0x4df
 3299 06f1 06070000 		.4byte	0x706
 3300 06f5 0D       		.uleb128 0xd
 3301 06f6 01       		.uleb128 0x1
ARM GAS  C:\Users\ADMINI~1\AppData\Local\Temp\cciWlNAe.s 			page 70


 3302 06f7 52       		.byte	0x52
 3303 06f8 01       		.uleb128 0x1
 3304 06f9 38       		.byte	0x38
 3305 06fa 0D       		.uleb128 0xd
 3306 06fb 01       		.uleb128 0x1
 3307 06fc 51       		.byte	0x51
 3308 06fd 01       		.uleb128 0x1
 3309 06fe 30       		.byte	0x30
 3310 06ff 0D       		.uleb128 0xd
 3311 0700 01       		.uleb128 0x1
 3312 0701 50       		.byte	0x50
 3313 0702 02       		.uleb128 0x2
 3314 0703 74       		.byte	0x74
 3315 0704 00       		.sleb128 0
 3316 0705 00       		.byte	0
 3317 0706 0E       		.uleb128 0xe
 3318 0707 30000000 		.4byte	.LVL200
 3319 070b 61060000 		.4byte	0x661
 3320 070f 0C       		.uleb128 0xc
 3321 0710 3A000000 		.4byte	.LVL201
 3322 0714 DF040000 		.4byte	0x4df
 3323 0718 0D       		.uleb128 0xd
 3324 0719 01       		.uleb128 0x1
 3325 071a 52       		.byte	0x52
 3326 071b 01       		.uleb128 0x1
 3327 071c 30       		.byte	0x30
 3328 071d 0D       		.uleb128 0xd
 3329 071e 01       		.uleb128 0x1
 3330 071f 51       		.byte	0x51
 3331 0720 01       		.uleb128 0x1
 3332 0721 31       		.byte	0x31
 3333 0722 0D       		.uleb128 0xd
 3334 0723 01       		.uleb128 0x1
 3335 0724 50       		.byte	0x50
 3336 0725 02       		.uleb128 0x2
 3337 0726 74       		.byte	0x74
 3338 0727 00       		.sleb128 0
 3339 0728 00       		.byte	0
 3340 0729 00       		.byte	0
 3341 072a 12       		.uleb128 0x12
 3342 072b CC030000 		.4byte	.LASF42
 3343 072f 02       		.byte	0x2
 3344 0730 9A       		.byte	0x9a
 3345 0731 00000000 		.4byte	.LFB80
 3346 0735 94020000 		.4byte	.LFE80-.LFB80
 3347 0739 01       		.uleb128 0x1
 3348 073a 9C       		.byte	0x9c
 3349 073b E70B0000 		.4byte	0xbe7
 3350 073f 0E       		.uleb128 0xe
 3351 0740 06000000 		.4byte	.LVL202
 3352 0744 78110000 		.4byte	0x1178
 3353 0748 10       		.uleb128 0x10
 3354 0749 10000000 		.4byte	.LVL203
 3355 074d 83110000 		.4byte	0x1183
 3356 0751 5F070000 		.4byte	0x75f
 3357 0755 0D       		.uleb128 0xd
 3358 0756 01       		.uleb128 0x1
ARM GAS  C:\Users\ADMINI~1\AppData\Local\Temp\cciWlNAe.s 			page 71


 3359 0757 50       		.byte	0x50
 3360 0758 05       		.uleb128 0x5
 3361 0759 03       		.byte	0x3
 3362 075a 34000000 		.4byte	.LC5
 3363 075e 00       		.byte	0
 3364 075f 0E       		.uleb128 0xe
 3365 0760 14000000 		.4byte	.LVL204
 3366 0764 78110000 		.4byte	0x1178
 3367 0768 10       		.uleb128 0x10
 3368 0769 1E000000 		.4byte	.LVL205
 3369 076d 83110000 		.4byte	0x1183
 3370 0771 7F070000 		.4byte	0x77f
 3371 0775 0D       		.uleb128 0xd
 3372 0776 01       		.uleb128 0x1
 3373 0777 50       		.byte	0x50
 3374 0778 05       		.uleb128 0x5
 3375 0779 03       		.byte	0x3
 3376 077a 4C000000 		.4byte	.LC6
 3377 077e 00       		.byte	0
 3378 077f 10       		.uleb128 0x10
 3379 0780 28000000 		.4byte	.LVL206
 3380 0784 3B050000 		.4byte	0x53b
 3381 0788 96070000 		.4byte	0x796
 3382 078c 0D       		.uleb128 0xd
 3383 078d 01       		.uleb128 0x1
 3384 078e 50       		.byte	0x50
 3385 078f 05       		.uleb128 0x5
 3386 0790 03       		.byte	0x3
 3387 0791 00000000 		.4byte	DisplayBuffer
 3388 0795 00       		.byte	0
 3389 0796 0E       		.uleb128 0xe
 3390 0797 2C000000 		.4byte	.LVL207
 3391 079b 78110000 		.4byte	0x1178
 3392 079f 10       		.uleb128 0x10
 3393 07a0 36000000 		.4byte	.LVL208
 3394 07a4 83110000 		.4byte	0x1183
 3395 07a8 B6070000 		.4byte	0x7b6
 3396 07ac 0D       		.uleb128 0xd
 3397 07ad 01       		.uleb128 0x1
 3398 07ae 50       		.byte	0x50
 3399 07af 05       		.uleb128 0x5
 3400 07b0 03       		.byte	0x3
 3401 07b1 00000000 		.4byte	DisplayBuffer
 3402 07b5 00       		.byte	0
 3403 07b6 0E       		.uleb128 0xe
 3404 07b7 3A000000 		.4byte	.LVL209
 3405 07bb 78110000 		.4byte	0x1178
 3406 07bf 10       		.uleb128 0x10
 3407 07c0 44000000 		.4byte	.LVL210
 3408 07c4 83110000 		.4byte	0x1183
 3409 07c8 D6070000 		.4byte	0x7d6
 3410 07cc 0D       		.uleb128 0xd
 3411 07cd 01       		.uleb128 0x1
 3412 07ce 50       		.byte	0x50
 3413 07cf 05       		.uleb128 0x5
 3414 07d0 03       		.byte	0x3
 3415 07d1 54000000 		.4byte	.LC7
ARM GAS  C:\Users\ADMINI~1\AppData\Local\Temp\cciWlNAe.s 			page 72


 3416 07d5 00       		.byte	0
 3417 07d6 10       		.uleb128 0x10
 3418 07d7 4E000000 		.4byte	.LVL211
 3419 07db 3B050000 		.4byte	0x53b
 3420 07df ED070000 		.4byte	0x7ed
 3421 07e3 0D       		.uleb128 0xd
 3422 07e4 01       		.uleb128 0x1
 3423 07e5 50       		.byte	0x50
 3424 07e6 05       		.uleb128 0x5
 3425 07e7 03       		.byte	0x3
 3426 07e8 00000000 		.4byte	DisplayBuffer
 3427 07ec 00       		.byte	0
 3428 07ed 0E       		.uleb128 0xe
 3429 07ee 52000000 		.4byte	.LVL212
 3430 07f2 78110000 		.4byte	0x1178
 3431 07f6 10       		.uleb128 0x10
 3432 07f7 5C000000 		.4byte	.LVL213
 3433 07fb 83110000 		.4byte	0x1183
 3434 07ff 0D080000 		.4byte	0x80d
 3435 0803 0D       		.uleb128 0xd
 3436 0804 01       		.uleb128 0x1
 3437 0805 50       		.byte	0x50
 3438 0806 05       		.uleb128 0x5
 3439 0807 03       		.byte	0x3
 3440 0808 00000000 		.4byte	DisplayBuffer
 3441 080c 00       		.byte	0
 3442 080d 0E       		.uleb128 0xe
 3443 080e 60000000 		.4byte	.LVL214
 3444 0812 78110000 		.4byte	0x1178
 3445 0816 10       		.uleb128 0x10
 3446 0817 6A000000 		.4byte	.LVL215
 3447 081b 83110000 		.4byte	0x1183
 3448 081f 2D080000 		.4byte	0x82d
 3449 0823 0D       		.uleb128 0xd
 3450 0824 01       		.uleb128 0x1
 3451 0825 50       		.byte	0x50
 3452 0826 05       		.uleb128 0x5
 3453 0827 03       		.byte	0x3
 3454 0828 60000000 		.4byte	.LC8
 3455 082c 00       		.byte	0
 3456 082d 10       		.uleb128 0x10
 3457 082e 74000000 		.4byte	.LVL216
 3458 0832 3B050000 		.4byte	0x53b
 3459 0836 44080000 		.4byte	0x844
 3460 083a 0D       		.uleb128 0xd
 3461 083b 01       		.uleb128 0x1
 3462 083c 50       		.byte	0x50
 3463 083d 05       		.uleb128 0x5
 3464 083e 03       		.byte	0x3
 3465 083f 00000000 		.4byte	DisplayBuffer
 3466 0843 00       		.byte	0
 3467 0844 0E       		.uleb128 0xe
 3468 0845 78000000 		.4byte	.LVL217
 3469 0849 78110000 		.4byte	0x1178
 3470 084d 10       		.uleb128 0x10
 3471 084e 82000000 		.4byte	.LVL218
 3472 0852 83110000 		.4byte	0x1183
ARM GAS  C:\Users\ADMINI~1\AppData\Local\Temp\cciWlNAe.s 			page 73


 3473 0856 64080000 		.4byte	0x864
 3474 085a 0D       		.uleb128 0xd
 3475 085b 01       		.uleb128 0x1
 3476 085c 50       		.byte	0x50
 3477 085d 05       		.uleb128 0x5
 3478 085e 03       		.byte	0x3
 3479 085f 00000000 		.4byte	DisplayBuffer
 3480 0863 00       		.byte	0
 3481 0864 0E       		.uleb128 0xe
 3482 0865 86000000 		.4byte	.LVL219
 3483 0869 78110000 		.4byte	0x1178
 3484 086d 10       		.uleb128 0x10
 3485 086e 90000000 		.4byte	.LVL220
 3486 0872 83110000 		.4byte	0x1183
 3487 0876 84080000 		.4byte	0x884
 3488 087a 0D       		.uleb128 0xd
 3489 087b 01       		.uleb128 0x1
 3490 087c 50       		.byte	0x50
 3491 087d 05       		.uleb128 0x5
 3492 087e 03       		.byte	0x3
 3493 087f 6C000000 		.4byte	.LC9
 3494 0883 00       		.byte	0
 3495 0884 10       		.uleb128 0x10
 3496 0885 9A000000 		.4byte	.LVL221
 3497 0889 3B050000 		.4byte	0x53b
 3498 088d 9B080000 		.4byte	0x89b
 3499 0891 0D       		.uleb128 0xd
 3500 0892 01       		.uleb128 0x1
 3501 0893 50       		.byte	0x50
 3502 0894 05       		.uleb128 0x5
 3503 0895 03       		.byte	0x3
 3504 0896 00000000 		.4byte	DisplayBuffer
 3505 089a 00       		.byte	0
 3506 089b 0E       		.uleb128 0xe
 3507 089c 9E000000 		.4byte	.LVL222
 3508 08a0 78110000 		.4byte	0x1178
 3509 08a4 10       		.uleb128 0x10
 3510 08a5 A8000000 		.4byte	.LVL223
 3511 08a9 83110000 		.4byte	0x1183
 3512 08ad BB080000 		.4byte	0x8bb
 3513 08b1 0D       		.uleb128 0xd
 3514 08b2 01       		.uleb128 0x1
 3515 08b3 50       		.byte	0x50
 3516 08b4 05       		.uleb128 0x5
 3517 08b5 03       		.byte	0x3
 3518 08b6 00000000 		.4byte	DisplayBuffer
 3519 08ba 00       		.byte	0
 3520 08bb 0E       		.uleb128 0xe
 3521 08bc AC000000 		.4byte	.LVL224
 3522 08c0 78110000 		.4byte	0x1178
 3523 08c4 10       		.uleb128 0x10
 3524 08c5 B6000000 		.4byte	.LVL225
 3525 08c9 83110000 		.4byte	0x1183
 3526 08cd DB080000 		.4byte	0x8db
 3527 08d1 0D       		.uleb128 0xd
 3528 08d2 01       		.uleb128 0x1
 3529 08d3 50       		.byte	0x50
ARM GAS  C:\Users\ADMINI~1\AppData\Local\Temp\cciWlNAe.s 			page 74


 3530 08d4 05       		.uleb128 0x5
 3531 08d5 03       		.byte	0x3
 3532 08d6 78000000 		.4byte	.LC10
 3533 08da 00       		.byte	0
 3534 08db 10       		.uleb128 0x10
 3535 08dc C0000000 		.4byte	.LVL226
 3536 08e0 3B050000 		.4byte	0x53b
 3537 08e4 F2080000 		.4byte	0x8f2
 3538 08e8 0D       		.uleb128 0xd
 3539 08e9 01       		.uleb128 0x1
 3540 08ea 50       		.byte	0x50
 3541 08eb 05       		.uleb128 0x5
 3542 08ec 03       		.byte	0x3
 3543 08ed 00000000 		.4byte	DisplayBuffer
 3544 08f1 00       		.byte	0
 3545 08f2 0E       		.uleb128 0xe
 3546 08f3 C4000000 		.4byte	.LVL227
 3547 08f7 78110000 		.4byte	0x1178
 3548 08fb 10       		.uleb128 0x10
 3549 08fc CE000000 		.4byte	.LVL228
 3550 0900 83110000 		.4byte	0x1183
 3551 0904 12090000 		.4byte	0x912
 3552 0908 0D       		.uleb128 0xd
 3553 0909 01       		.uleb128 0x1
 3554 090a 50       		.byte	0x50
 3555 090b 05       		.uleb128 0x5
 3556 090c 03       		.byte	0x3
 3557 090d 00000000 		.4byte	DisplayBuffer
 3558 0911 00       		.byte	0
 3559 0912 0E       		.uleb128 0xe
 3560 0913 D2000000 		.4byte	.LVL229
 3561 0917 78110000 		.4byte	0x1178
 3562 091b 10       		.uleb128 0x10
 3563 091c DC000000 		.4byte	.LVL230
 3564 0920 83110000 		.4byte	0x1183
 3565 0924 32090000 		.4byte	0x932
 3566 0928 0D       		.uleb128 0xd
 3567 0929 01       		.uleb128 0x1
 3568 092a 50       		.byte	0x50
 3569 092b 05       		.uleb128 0x5
 3570 092c 03       		.byte	0x3
 3571 092d 84000000 		.4byte	.LC11
 3572 0931 00       		.byte	0
 3573 0932 10       		.uleb128 0x10
 3574 0933 E6000000 		.4byte	.LVL231
 3575 0937 3B050000 		.4byte	0x53b
 3576 093b 49090000 		.4byte	0x949
 3577 093f 0D       		.uleb128 0xd
 3578 0940 01       		.uleb128 0x1
 3579 0941 50       		.byte	0x50
 3580 0942 05       		.uleb128 0x5
 3581 0943 03       		.byte	0x3
 3582 0944 00000000 		.4byte	DisplayBuffer
 3583 0948 00       		.byte	0
 3584 0949 0E       		.uleb128 0xe
 3585 094a EA000000 		.4byte	.LVL232
 3586 094e 78110000 		.4byte	0x1178
ARM GAS  C:\Users\ADMINI~1\AppData\Local\Temp\cciWlNAe.s 			page 75


 3587 0952 10       		.uleb128 0x10
 3588 0953 F4000000 		.4byte	.LVL233
 3589 0957 83110000 		.4byte	0x1183
 3590 095b 69090000 		.4byte	0x969
 3591 095f 0D       		.uleb128 0xd
 3592 0960 01       		.uleb128 0x1
 3593 0961 50       		.byte	0x50
 3594 0962 05       		.uleb128 0x5
 3595 0963 03       		.byte	0x3
 3596 0964 00000000 		.4byte	DisplayBuffer
 3597 0968 00       		.byte	0
 3598 0969 0E       		.uleb128 0xe
 3599 096a F8000000 		.4byte	.LVL234
 3600 096e 78110000 		.4byte	0x1178
 3601 0972 10       		.uleb128 0x10
 3602 0973 02010000 		.4byte	.LVL235
 3603 0977 83110000 		.4byte	0x1183
 3604 097b 89090000 		.4byte	0x989
 3605 097f 0D       		.uleb128 0xd
 3606 0980 01       		.uleb128 0x1
 3607 0981 50       		.byte	0x50
 3608 0982 05       		.uleb128 0x5
 3609 0983 03       		.byte	0x3
 3610 0984 90000000 		.4byte	.LC12
 3611 0988 00       		.byte	0
 3612 0989 10       		.uleb128 0x10
 3613 098a 0C010000 		.4byte	.LVL236
 3614 098e 3B050000 		.4byte	0x53b
 3615 0992 A0090000 		.4byte	0x9a0
 3616 0996 0D       		.uleb128 0xd
 3617 0997 01       		.uleb128 0x1
 3618 0998 50       		.byte	0x50
 3619 0999 05       		.uleb128 0x5
 3620 099a 03       		.byte	0x3
 3621 099b 00000000 		.4byte	DisplayBuffer
 3622 099f 00       		.byte	0
 3623 09a0 0E       		.uleb128 0xe
 3624 09a1 10010000 		.4byte	.LVL237
 3625 09a5 78110000 		.4byte	0x1178
 3626 09a9 10       		.uleb128 0x10
 3627 09aa 1A010000 		.4byte	.LVL238
 3628 09ae 83110000 		.4byte	0x1183
 3629 09b2 C0090000 		.4byte	0x9c0
 3630 09b6 0D       		.uleb128 0xd
 3631 09b7 01       		.uleb128 0x1
 3632 09b8 50       		.byte	0x50
 3633 09b9 05       		.uleb128 0x5
 3634 09ba 03       		.byte	0x3
 3635 09bb 00000000 		.4byte	DisplayBuffer
 3636 09bf 00       		.byte	0
 3637 09c0 0E       		.uleb128 0xe
 3638 09c1 1E010000 		.4byte	.LVL239
 3639 09c5 78110000 		.4byte	0x1178
 3640 09c9 10       		.uleb128 0x10
 3641 09ca 28010000 		.4byte	.LVL240
 3642 09ce 83110000 		.4byte	0x1183
 3643 09d2 E0090000 		.4byte	0x9e0
ARM GAS  C:\Users\ADMINI~1\AppData\Local\Temp\cciWlNAe.s 			page 76


 3644 09d6 0D       		.uleb128 0xd
 3645 09d7 01       		.uleb128 0x1
 3646 09d8 50       		.byte	0x50
 3647 09d9 05       		.uleb128 0x5
 3648 09da 03       		.byte	0x3
 3649 09db 98000000 		.4byte	.LC13
 3650 09df 00       		.byte	0
 3651 09e0 10       		.uleb128 0x10
 3652 09e1 32010000 		.4byte	.LVL241
 3653 09e5 3B050000 		.4byte	0x53b
 3654 09e9 F7090000 		.4byte	0x9f7
 3655 09ed 0D       		.uleb128 0xd
 3656 09ee 01       		.uleb128 0x1
 3657 09ef 50       		.byte	0x50
 3658 09f0 05       		.uleb128 0x5
 3659 09f1 03       		.byte	0x3
 3660 09f2 00000000 		.4byte	DisplayBuffer
 3661 09f6 00       		.byte	0
 3662 09f7 0E       		.uleb128 0xe
 3663 09f8 36010000 		.4byte	.LVL242
 3664 09fc 78110000 		.4byte	0x1178
 3665 0a00 10       		.uleb128 0x10
 3666 0a01 40010000 		.4byte	.LVL243
 3667 0a05 83110000 		.4byte	0x1183
 3668 0a09 170A0000 		.4byte	0xa17
 3669 0a0d 0D       		.uleb128 0xd
 3670 0a0e 01       		.uleb128 0x1
 3671 0a0f 50       		.byte	0x50
 3672 0a10 05       		.uleb128 0x5
 3673 0a11 03       		.byte	0x3
 3674 0a12 00000000 		.4byte	DisplayBuffer
 3675 0a16 00       		.byte	0
 3676 0a17 0E       		.uleb128 0xe
 3677 0a18 44010000 		.4byte	.LVL244
 3678 0a1c 78110000 		.4byte	0x1178
 3679 0a20 10       		.uleb128 0x10
 3680 0a21 4E010000 		.4byte	.LVL245
 3681 0a25 83110000 		.4byte	0x1183
 3682 0a29 370A0000 		.4byte	0xa37
 3683 0a2d 0D       		.uleb128 0xd
 3684 0a2e 01       		.uleb128 0x1
 3685 0a2f 50       		.byte	0x50
 3686 0a30 05       		.uleb128 0x5
 3687 0a31 03       		.byte	0x3
 3688 0a32 A4000000 		.4byte	.LC14
 3689 0a36 00       		.byte	0
 3690 0a37 10       		.uleb128 0x10
 3691 0a38 58010000 		.4byte	.LVL246
 3692 0a3c 3B050000 		.4byte	0x53b
 3693 0a40 4E0A0000 		.4byte	0xa4e
 3694 0a44 0D       		.uleb128 0xd
 3695 0a45 01       		.uleb128 0x1
 3696 0a46 50       		.byte	0x50
 3697 0a47 05       		.uleb128 0x5
 3698 0a48 03       		.byte	0x3
 3699 0a49 00000000 		.4byte	DisplayBuffer
 3700 0a4d 00       		.byte	0
ARM GAS  C:\Users\ADMINI~1\AppData\Local\Temp\cciWlNAe.s 			page 77


 3701 0a4e 0E       		.uleb128 0xe
 3702 0a4f 5C010000 		.4byte	.LVL247
 3703 0a53 78110000 		.4byte	0x1178
 3704 0a57 10       		.uleb128 0x10
 3705 0a58 66010000 		.4byte	.LVL248
 3706 0a5c 83110000 		.4byte	0x1183
 3707 0a60 6E0A0000 		.4byte	0xa6e
 3708 0a64 0D       		.uleb128 0xd
 3709 0a65 01       		.uleb128 0x1
 3710 0a66 50       		.byte	0x50
 3711 0a67 05       		.uleb128 0x5
 3712 0a68 03       		.byte	0x3
 3713 0a69 00000000 		.4byte	DisplayBuffer
 3714 0a6d 00       		.byte	0
 3715 0a6e 0E       		.uleb128 0xe
 3716 0a6f 6A010000 		.4byte	.LVL249
 3717 0a73 78110000 		.4byte	0x1178
 3718 0a77 10       		.uleb128 0x10
 3719 0a78 74010000 		.4byte	.LVL250
 3720 0a7c 83110000 		.4byte	0x1183
 3721 0a80 8E0A0000 		.4byte	0xa8e
 3722 0a84 0D       		.uleb128 0xd
 3723 0a85 01       		.uleb128 0x1
 3724 0a86 50       		.byte	0x50
 3725 0a87 05       		.uleb128 0x5
 3726 0a88 03       		.byte	0x3
 3727 0a89 AC000000 		.4byte	.LC15
 3728 0a8d 00       		.byte	0
 3729 0a8e 10       		.uleb128 0x10
 3730 0a8f 84010000 		.4byte	.LVL252
 3731 0a93 3B050000 		.4byte	0x53b
 3732 0a97 A50A0000 		.4byte	0xaa5
 3733 0a9b 0D       		.uleb128 0xd
 3734 0a9c 01       		.uleb128 0x1
 3735 0a9d 50       		.byte	0x50
 3736 0a9e 05       		.uleb128 0x5
 3737 0a9f 03       		.byte	0x3
 3738 0aa0 00000000 		.4byte	DisplayBuffer
 3739 0aa4 00       		.byte	0
 3740 0aa5 0E       		.uleb128 0xe
 3741 0aa6 88010000 		.4byte	.LVL253
 3742 0aaa 78110000 		.4byte	0x1178
 3743 0aae 10       		.uleb128 0x10
 3744 0aaf 92010000 		.4byte	.LVL254
 3745 0ab3 83110000 		.4byte	0x1183
 3746 0ab7 C50A0000 		.4byte	0xac5
 3747 0abb 0D       		.uleb128 0xd
 3748 0abc 01       		.uleb128 0x1
 3749 0abd 50       		.byte	0x50
 3750 0abe 05       		.uleb128 0x5
 3751 0abf 03       		.byte	0x3
 3752 0ac0 00000000 		.4byte	DisplayBuffer
 3753 0ac4 00       		.byte	0
 3754 0ac5 0E       		.uleb128 0xe
 3755 0ac6 96010000 		.4byte	.LVL255
 3756 0aca 78110000 		.4byte	0x1178
 3757 0ace 10       		.uleb128 0x10
ARM GAS  C:\Users\ADMINI~1\AppData\Local\Temp\cciWlNAe.s 			page 78


 3758 0acf A0010000 		.4byte	.LVL256
 3759 0ad3 83110000 		.4byte	0x1183
 3760 0ad7 E50A0000 		.4byte	0xae5
 3761 0adb 0D       		.uleb128 0xd
 3762 0adc 01       		.uleb128 0x1
 3763 0add 50       		.byte	0x50
 3764 0ade 05       		.uleb128 0x5
 3765 0adf 03       		.byte	0x3
 3766 0ae0 B4000000 		.4byte	.LC16
 3767 0ae4 00       		.byte	0
 3768 0ae5 10       		.uleb128 0x10
 3769 0ae6 B0010000 		.4byte	.LVL258
 3770 0aea 3B050000 		.4byte	0x53b
 3771 0aee FC0A0000 		.4byte	0xafc
 3772 0af2 0D       		.uleb128 0xd
 3773 0af3 01       		.uleb128 0x1
 3774 0af4 50       		.byte	0x50
 3775 0af5 05       		.uleb128 0x5
 3776 0af6 03       		.byte	0x3
 3777 0af7 00000000 		.4byte	DisplayBuffer
 3778 0afb 00       		.byte	0
 3779 0afc 0E       		.uleb128 0xe
 3780 0afd B4010000 		.4byte	.LVL259
 3781 0b01 78110000 		.4byte	0x1178
 3782 0b05 10       		.uleb128 0x10
 3783 0b06 BE010000 		.4byte	.LVL260
 3784 0b0a 83110000 		.4byte	0x1183
 3785 0b0e 1C0B0000 		.4byte	0xb1c
 3786 0b12 0D       		.uleb128 0xd
 3787 0b13 01       		.uleb128 0x1
 3788 0b14 50       		.byte	0x50
 3789 0b15 05       		.uleb128 0x5
 3790 0b16 03       		.byte	0x3
 3791 0b17 00000000 		.4byte	DisplayBuffer
 3792 0b1b 00       		.byte	0
 3793 0b1c 0E       		.uleb128 0xe
 3794 0b1d C2010000 		.4byte	.LVL261
 3795 0b21 78110000 		.4byte	0x1178
 3796 0b25 10       		.uleb128 0x10
 3797 0b26 CC010000 		.4byte	.LVL262
 3798 0b2a 83110000 		.4byte	0x1183
 3799 0b2e 3C0B0000 		.4byte	0xb3c
 3800 0b32 0D       		.uleb128 0xd
 3801 0b33 01       		.uleb128 0x1
 3802 0b34 50       		.byte	0x50
 3803 0b35 05       		.uleb128 0x5
 3804 0b36 03       		.byte	0x3
 3805 0b37 BC000000 		.4byte	.LC17
 3806 0b3b 00       		.byte	0
 3807 0b3c 10       		.uleb128 0x10
 3808 0b3d DC010000 		.4byte	.LVL264
 3809 0b41 3B050000 		.4byte	0x53b
 3810 0b45 530B0000 		.4byte	0xb53
 3811 0b49 0D       		.uleb128 0xd
 3812 0b4a 01       		.uleb128 0x1
 3813 0b4b 50       		.byte	0x50
 3814 0b4c 05       		.uleb128 0x5
ARM GAS  C:\Users\ADMINI~1\AppData\Local\Temp\cciWlNAe.s 			page 79


 3815 0b4d 03       		.byte	0x3
 3816 0b4e 00000000 		.4byte	DisplayBuffer
 3817 0b52 00       		.byte	0
 3818 0b53 0E       		.uleb128 0xe
 3819 0b54 E0010000 		.4byte	.LVL265
 3820 0b58 78110000 		.4byte	0x1178
 3821 0b5c 10       		.uleb128 0x10
 3822 0b5d EA010000 		.4byte	.LVL266
 3823 0b61 83110000 		.4byte	0x1183
 3824 0b65 730B0000 		.4byte	0xb73
 3825 0b69 0D       		.uleb128 0xd
 3826 0b6a 01       		.uleb128 0x1
 3827 0b6b 50       		.byte	0x50
 3828 0b6c 05       		.uleb128 0x5
 3829 0b6d 03       		.byte	0x3
 3830 0b6e 00000000 		.4byte	DisplayBuffer
 3831 0b72 00       		.byte	0
 3832 0b73 0E       		.uleb128 0xe
 3833 0b74 EE010000 		.4byte	.LVL267
 3834 0b78 78110000 		.4byte	0x1178
 3835 0b7c 10       		.uleb128 0x10
 3836 0b7d F8010000 		.4byte	.LVL268
 3837 0b81 83110000 		.4byte	0x1183
 3838 0b85 930B0000 		.4byte	0xb93
 3839 0b89 0D       		.uleb128 0xd
 3840 0b8a 01       		.uleb128 0x1
 3841 0b8b 50       		.byte	0x50
 3842 0b8c 05       		.uleb128 0x5
 3843 0b8d 03       		.byte	0x3
 3844 0b8e C4000000 		.4byte	.LC18
 3845 0b92 00       		.byte	0
 3846 0b93 10       		.uleb128 0x10
 3847 0b94 02020000 		.4byte	.LVL269
 3848 0b98 3B050000 		.4byte	0x53b
 3849 0b9c AA0B0000 		.4byte	0xbaa
 3850 0ba0 0D       		.uleb128 0xd
 3851 0ba1 01       		.uleb128 0x1
 3852 0ba2 50       		.byte	0x50
 3853 0ba3 05       		.uleb128 0x5
 3854 0ba4 03       		.byte	0x3
 3855 0ba5 00000000 		.4byte	DisplayBuffer
 3856 0ba9 00       		.byte	0
 3857 0baa 0E       		.uleb128 0xe
 3858 0bab 06020000 		.4byte	.LVL270
 3859 0baf 78110000 		.4byte	0x1178
 3860 0bb3 10       		.uleb128 0x10
 3861 0bb4 10020000 		.4byte	.LVL271
 3862 0bb8 83110000 		.4byte	0x1183
 3863 0bbc CA0B0000 		.4byte	0xbca
 3864 0bc0 0D       		.uleb128 0xd
 3865 0bc1 01       		.uleb128 0x1
 3866 0bc2 50       		.byte	0x50
 3867 0bc3 05       		.uleb128 0x5
 3868 0bc4 03       		.byte	0x3
 3869 0bc5 00000000 		.4byte	DisplayBuffer
 3870 0bc9 00       		.byte	0
 3871 0bca 0E       		.uleb128 0xe
ARM GAS  C:\Users\ADMINI~1\AppData\Local\Temp\cciWlNAe.s 			page 80


 3872 0bcb 14020000 		.4byte	.LVL272
 3873 0bcf 78110000 		.4byte	0x1178
 3874 0bd3 0C       		.uleb128 0xc
 3875 0bd4 1E020000 		.4byte	.LVL273
 3876 0bd8 83110000 		.4byte	0x1183
 3877 0bdc 0D       		.uleb128 0xd
 3878 0bdd 01       		.uleb128 0x1
 3879 0bde 50       		.byte	0x50
 3880 0bdf 05       		.uleb128 0x5
 3881 0be0 03       		.byte	0x3
 3882 0be1 CC000000 		.4byte	.LC19
 3883 0be5 00       		.byte	0
 3884 0be6 00       		.byte	0
 3885 0be7 17       		.uleb128 0x17
 3886 0be8 88060000 		.4byte	.LASF43
 3887 0bec 02       		.byte	0x2
 3888 0bed E8       		.byte	0xe8
 3889 0bee 6F000000 		.4byte	0x6f
 3890 0bf2 00000000 		.4byte	.LFB81
 3891 0bf6 C0000000 		.4byte	.LFE81-.LFB81
 3892 0bfa 01       		.uleb128 0x1
 3893 0bfb 9C       		.byte	0x9c
 3894 0bfc 070D0000 		.4byte	0xd07
 3895 0c00 0E       		.uleb128 0xe
 3896 0c01 08000000 		.4byte	.LVL274
 3897 0c05 94110000 		.4byte	0x1194
 3898 0c09 10       		.uleb128 0x10
 3899 0c0a 12000000 		.4byte	.LVL275
 3900 0c0e DF040000 		.4byte	0x4df
 3901 0c12 2A0C0000 		.4byte	0xc2a
 3902 0c16 0D       		.uleb128 0xd
 3903 0c17 01       		.uleb128 0x1
 3904 0c18 52       		.byte	0x52
 3905 0c19 01       		.uleb128 0x1
 3906 0c1a 30       		.byte	0x30
 3907 0c1b 0D       		.uleb128 0xd
 3908 0c1c 01       		.uleb128 0x1
 3909 0c1d 51       		.byte	0x51
 3910 0c1e 01       		.uleb128 0x1
 3911 0c1f 30       		.byte	0x30
 3912 0c20 0D       		.uleb128 0xd
 3913 0c21 01       		.uleb128 0x1
 3914 0c22 50       		.byte	0x50
 3915 0c23 05       		.uleb128 0x5
 3916 0c24 03       		.byte	0x3
 3917 0c25 D0000000 		.4byte	.LC20
 3918 0c29 00       		.byte	0
 3919 0c2a 10       		.uleb128 0x10
 3920 0c2b 18000000 		.4byte	.LVL276
 3921 0c2f 9B110000 		.4byte	0x119b
 3922 0c33 410C0000 		.4byte	0xc41
 3923 0c37 0D       		.uleb128 0xd
 3924 0c38 01       		.uleb128 0x1
 3925 0c39 50       		.byte	0x50
 3926 0c3a 05       		.uleb128 0x5
 3927 0c3b 03       		.byte	0x3
 3928 0c3c 00000000 		.4byte	Timer_1_Interrupt_Handler
ARM GAS  C:\Users\ADMINI~1\AppData\Local\Temp\cciWlNAe.s 			page 81


 3929 0c40 00       		.byte	0
 3930 0c41 0E       		.uleb128 0xe
 3931 0c42 1C000000 		.4byte	.LVL277
 3932 0c46 AC110000 		.4byte	0x11ac
 3933 0c4a 0E       		.uleb128 0xe
 3934 0c4b 20000000 		.4byte	.LVL278
 3935 0c4f C2020000 		.4byte	0x2c2
 3936 0c53 10       		.uleb128 0x10
 3937 0c54 28000000 		.4byte	.LVL279
 3938 0c58 B3110000 		.4byte	0x11b3
 3939 0c5c 6B0C0000 		.4byte	0xc6b
 3940 0c60 0D       		.uleb128 0xd
 3941 0c61 01       		.uleb128 0x1
 3942 0c62 51       		.byte	0x51
 3943 0c63 01       		.uleb128 0x1
 3944 0c64 30       		.byte	0x30
 3945 0c65 0D       		.uleb128 0xd
 3946 0c66 01       		.uleb128 0x1
 3947 0c67 50       		.byte	0x50
 3948 0c68 01       		.uleb128 0x1
 3949 0c69 30       		.byte	0x30
 3950 0c6a 00       		.byte	0
 3951 0c6b 0E       		.uleb128 0xe
 3952 0c6c 2C000000 		.4byte	.LVL280
 3953 0c70 CA110000 		.4byte	0x11ca
 3954 0c74 0E       		.uleb128 0xe
 3955 0c75 34000000 		.4byte	.LVL281
 3956 0c79 D6110000 		.4byte	0x11d6
 3957 0c7d 0E       		.uleb128 0xe
 3958 0c7e 3E000000 		.4byte	.LVL282
 3959 0c82 E1110000 		.4byte	0x11e1
 3960 0c86 0E       		.uleb128 0xe
 3961 0c87 42000000 		.4byte	.LVL283
 3962 0c8b E8110000 		.4byte	0x11e8
 3963 0c8f 0E       		.uleb128 0xe
 3964 0c90 4A000000 		.4byte	.LVL284
 3965 0c94 EF110000 		.4byte	0x11ef
 3966 0c98 0E       		.uleb128 0xe
 3967 0c99 4E000000 		.4byte	.LVL285
 3968 0c9d F6110000 		.4byte	0x11f6
 3969 0ca1 10       		.uleb128 0x10
 3970 0ca2 54000000 		.4byte	.LVL286
 3971 0ca6 FD110000 		.4byte	0x11fd
 3972 0caa B80C0000 		.4byte	0xcb8
 3973 0cae 0D       		.uleb128 0xd
 3974 0caf 01       		.uleb128 0x1
 3975 0cb0 50       		.byte	0x50
 3976 0cb1 05       		.uleb128 0x5
 3977 0cb2 03       		.byte	0x3
 3978 0cb3 00000000 		.4byte	JY901_RX_Interrupt_Handler
 3979 0cb7 00       		.byte	0
 3980 0cb8 0E       		.uleb128 0xe
 3981 0cb9 58000000 		.4byte	.LVL287
 3982 0cbd 64040000 		.4byte	0x464
 3983 0cc1 0E       		.uleb128 0xe
 3984 0cc2 5C000000 		.4byte	.LVL288
 3985 0cc6 0E120000 		.4byte	0x120e
ARM GAS  C:\Users\ADMINI~1\AppData\Local\Temp\cciWlNAe.s 			page 82


 3986 0cca 10       		.uleb128 0x10
 3987 0ccb 66000000 		.4byte	.LVL289
 3988 0ccf DF040000 		.4byte	0x4df
 3989 0cd3 ED0C0000 		.4byte	0xced
 3990 0cd7 0D       		.uleb128 0xd
 3991 0cd8 01       		.uleb128 0x1
 3992 0cd9 52       		.byte	0x52
 3993 0cda 02       		.uleb128 0x2
 3994 0cdb 74       		.byte	0x74
 3995 0cdc 00       		.sleb128 0
 3996 0cdd 0D       		.uleb128 0xd
 3997 0cde 01       		.uleb128 0x1
 3998 0cdf 51       		.byte	0x51
 3999 0ce0 02       		.uleb128 0x2
 4000 0ce1 74       		.byte	0x74
 4001 0ce2 00       		.sleb128 0
 4002 0ce3 0D       		.uleb128 0xd
 4003 0ce4 01       		.uleb128 0x1
 4004 0ce5 50       		.byte	0x50
 4005 0ce6 05       		.uleb128 0x5
 4006 0ce7 03       		.byte	0x3
 4007 0ce8 DC000000 		.4byte	.LC21
 4008 0cec 00       		.byte	0
 4009 0ced 0E       		.uleb128 0xe
 4010 0cee 8C000000 		.4byte	.LVL290
 4011 0cf2 1B120000 		.4byte	0x121b
 4012 0cf6 0C       		.uleb128 0xc
 4013 0cf7 92000000 		.4byte	.LVL291
 4014 0cfb 04110000 		.4byte	0x1104
 4015 0cff 0D       		.uleb128 0xd
 4016 0d00 01       		.uleb128 0x1
 4017 0d01 50       		.byte	0x50
 4018 0d02 02       		.uleb128 0x2
 4019 0d03 08       		.byte	0x8
 4020 0d04 64       		.byte	0x64
 4021 0d05 00       		.byte	0
 4022 0d06 00       		.byte	0
 4023 0d07 18       		.uleb128 0x18
 4024 0d08 32040000 		.4byte	.LASF44
 4025 0d0c 08       		.byte	0x8
 4026 0d0d 9606     		.2byte	0x696
 4027 0d0f 130D0000 		.4byte	0xd13
 4028 0d13 06       		.uleb128 0x6
 4029 0d14 7D000000 		.4byte	0x7d
 4030 0d18 19       		.uleb128 0x19
 4031 0d19 C3020000 		.4byte	.LASF45
 4032 0d1d 03       		.byte	0x3
 4033 0d1e 09       		.byte	0x9
 4034 0d1f 290D0000 		.4byte	0xd29
 4035 0d23 05       		.uleb128 0x5
 4036 0d24 03       		.byte	0x3
 4037 0d25 00000000 		.4byte	BT_Throttle
 4038 0d29 06       		.uleb128 0x6
 4039 0d2a 6F000000 		.4byte	0x6f
 4040 0d2e 19       		.uleb128 0x19
 4041 0d2f 83040000 		.4byte	.LASF46
 4042 0d33 03       		.byte	0x3
ARM GAS  C:\Users\ADMINI~1\AppData\Local\Temp\cciWlNAe.s 			page 83


 4043 0d34 09       		.byte	0x9
 4044 0d35 290D0000 		.4byte	0xd29
 4045 0d39 05       		.uleb128 0x5
 4046 0d3a 03       		.byte	0x3
 4047 0d3b 00000000 		.4byte	BT_Yaw
 4048 0d3f 19       		.uleb128 0x19
 4049 0d40 FA000000 		.4byte	.LASF47
 4050 0d44 03       		.byte	0x3
 4051 0d45 09       		.byte	0x9
 4052 0d46 290D0000 		.4byte	0xd29
 4053 0d4a 05       		.uleb128 0x5
 4054 0d4b 03       		.byte	0x3
 4055 0d4c 00000000 		.4byte	BT_Pitch
 4056 0d50 19       		.uleb128 0x19
 4057 0d51 4B030000 		.4byte	.LASF48
 4058 0d55 03       		.byte	0x3
 4059 0d56 09       		.byte	0x9
 4060 0d57 290D0000 		.4byte	0xd29
 4061 0d5b 05       		.uleb128 0x5
 4062 0d5c 03       		.byte	0x3
 4063 0d5d 00000000 		.4byte	BT_Roll
 4064 0d61 19       		.uleb128 0x19
 4065 0d62 9A010000 		.4byte	.LASF49
 4066 0d66 03       		.byte	0x3
 4067 0d67 0A       		.byte	0xa
 4068 0d68 720D0000 		.4byte	0xd72
 4069 0d6c 05       		.uleb128 0x5
 4070 0d6d 03       		.byte	0x3
 4071 0d6e 00000000 		.4byte	roll_angle_offset
 4072 0d72 06       		.uleb128 0x6
 4073 0d73 25000000 		.4byte	0x25
 4074 0d77 19       		.uleb128 0x19
 4075 0d78 34000000 		.4byte	.LASF50
 4076 0d7c 03       		.byte	0x3
 4077 0d7d 0A       		.byte	0xa
 4078 0d7e 720D0000 		.4byte	0xd72
 4079 0d82 05       		.uleb128 0x5
 4080 0d83 03       		.byte	0x3
 4081 0d84 00000000 		.4byte	pitch_angle_offset
 4082 0d88 19       		.uleb128 0x19
 4083 0d89 DD010000 		.4byte	.LASF51
 4084 0d8d 03       		.byte	0x3
 4085 0d8e 0B       		.byte	0xb
 4086 0d8f 720D0000 		.4byte	0xd72
 4087 0d93 05       		.uleb128 0x5
 4088 0d94 03       		.byte	0x3
 4089 0d95 00000000 		.4byte	Desire_angle_pitch
 4090 0d99 19       		.uleb128 0x19
 4091 0d9a F6030000 		.4byte	.LASF52
 4092 0d9e 03       		.byte	0x3
 4093 0d9f 0B       		.byte	0xb
 4094 0da0 720D0000 		.4byte	0xd72
 4095 0da4 05       		.uleb128 0x5
 4096 0da5 03       		.byte	0x3
 4097 0da6 00000000 		.4byte	Desire_angle_roll
 4098 0daa 19       		.uleb128 0x19
 4099 0dab 68060000 		.4byte	.LASF53
ARM GAS  C:\Users\ADMINI~1\AppData\Local\Temp\cciWlNAe.s 			page 84


 4100 0daf 03       		.byte	0x3
 4101 0db0 0B       		.byte	0xb
 4102 0db1 720D0000 		.4byte	0xd72
 4103 0db5 05       		.uleb128 0x5
 4104 0db6 03       		.byte	0x3
 4105 0db7 00000000 		.4byte	Desire_w_yaw
 4106 0dbb 19       		.uleb128 0x19
 4107 0dbc 6E040000 		.4byte	.LASF54
 4108 0dc0 04       		.byte	0x4
 4109 0dc1 0A       		.byte	0xa
 4110 0dc2 720D0000 		.4byte	0xd72
 4111 0dc6 05       		.uleb128 0x5
 4112 0dc7 03       		.byte	0x3
 4113 0dc8 00000000 		.4byte	AccelX
 4114 0dcc 19       		.uleb128 0x19
 4115 0dcd 75040000 		.4byte	.LASF55
 4116 0dd1 04       		.byte	0x4
 4117 0dd2 0A       		.byte	0xa
 4118 0dd3 720D0000 		.4byte	0xd72
 4119 0dd7 05       		.uleb128 0x5
 4120 0dd8 03       		.byte	0x3
 4121 0dd9 00000000 		.4byte	AccelY
 4122 0ddd 19       		.uleb128 0x19
 4123 0dde 7C040000 		.4byte	.LASF56
 4124 0de2 04       		.byte	0x4
 4125 0de3 0A       		.byte	0xa
 4126 0de4 720D0000 		.4byte	0xd72
 4127 0de8 05       		.uleb128 0x5
 4128 0de9 03       		.byte	0x3
 4129 0dea 00000000 		.4byte	AccelZ
 4130 0dee 19       		.uleb128 0x19
 4131 0def 23060000 		.4byte	.LASF57
 4132 0df3 04       		.byte	0x4
 4133 0df4 0B       		.byte	0xb
 4134 0df5 720D0000 		.4byte	0xd72
 4135 0df9 05       		.uleb128 0x5
 4136 0dfa 03       		.byte	0x3
 4137 0dfb 00000000 		.4byte	OmegaX
 4138 0dff 19       		.uleb128 0x19
 4139 0e00 2A060000 		.4byte	.LASF58
 4140 0e04 04       		.byte	0x4
 4141 0e05 0B       		.byte	0xb
 4142 0e06 720D0000 		.4byte	0xd72
 4143 0e0a 05       		.uleb128 0x5
 4144 0e0b 03       		.byte	0x3
 4145 0e0c 00000000 		.4byte	OmegaY
 4146 0e10 19       		.uleb128 0x19
 4147 0e11 31060000 		.4byte	.LASF59
 4148 0e15 04       		.byte	0x4
 4149 0e16 0B       		.byte	0xb
 4150 0e17 720D0000 		.4byte	0xd72
 4151 0e1b 05       		.uleb128 0x5
 4152 0e1c 03       		.byte	0x3
 4153 0e1d 00000000 		.4byte	OmegaZ
 4154 0e21 19       		.uleb128 0x19
 4155 0e22 53030000 		.4byte	.LASF60
 4156 0e26 04       		.byte	0x4
ARM GAS  C:\Users\ADMINI~1\AppData\Local\Temp\cciWlNAe.s 			page 85


 4157 0e27 0C       		.byte	0xc
 4158 0e28 720D0000 		.4byte	0xd72
 4159 0e2c 05       		.uleb128 0x5
 4160 0e2d 03       		.byte	0x3
 4161 0e2e 00000000 		.4byte	Temperature
 4162 0e32 19       		.uleb128 0x19
 4163 0e33 C4000000 		.4byte	.LASF61
 4164 0e37 04       		.byte	0x4
 4165 0e38 0D       		.byte	0xd
 4166 0e39 720D0000 		.4byte	0xd72
 4167 0e3d 05       		.uleb128 0x5
 4168 0e3e 03       		.byte	0x3
 4169 0e3f 00000000 		.4byte	Roll
 4170 0e43 19       		.uleb128 0x19
 4171 0e44 74010000 		.4byte	.LASF62
 4172 0e48 04       		.byte	0x4
 4173 0e49 0D       		.byte	0xd
 4174 0e4a 720D0000 		.4byte	0xd72
 4175 0e4e 05       		.uleb128 0x5
 4176 0e4f 03       		.byte	0x3
 4177 0e50 00000000 		.4byte	Pitch
 4178 0e54 1A       		.uleb128 0x1a
 4179 0e55 59617700 		.ascii	"Yaw\000"
 4180 0e59 04       		.byte	0x4
 4181 0e5a 0D       		.byte	0xd
 4182 0e5b 720D0000 		.4byte	0xd72
 4183 0e5f 05       		.uleb128 0x5
 4184 0e60 03       		.byte	0x3
 4185 0e61 00000000 		.4byte	Yaw
 4186 0e65 19       		.uleb128 0x19
 4187 0e66 AC010000 		.4byte	.LASF63
 4188 0e6a 04       		.byte	0x4
 4189 0e6b 14       		.byte	0x14
 4190 0e6c 290D0000 		.4byte	0xd29
 4191 0e70 05       		.uleb128 0x5
 4192 0e71 03       		.byte	0x3
 4193 0e72 00000000 		.4byte	MagX
 4194 0e76 19       		.uleb128 0x19
 4195 0e77 B1010000 		.4byte	.LASF64
 4196 0e7b 04       		.byte	0x4
 4197 0e7c 14       		.byte	0x14
 4198 0e7d 290D0000 		.4byte	0xd29
 4199 0e81 05       		.uleb128 0x5
 4200 0e82 03       		.byte	0x3
 4201 0e83 00000000 		.4byte	MagY
 4202 0e87 19       		.uleb128 0x19
 4203 0e88 2F000000 		.4byte	.LASF65
 4204 0e8c 04       		.byte	0x4
 4205 0e8d 14       		.byte	0x14
 4206 0e8e 290D0000 		.4byte	0xd29
 4207 0e92 05       		.uleb128 0x5
 4208 0e93 03       		.byte	0x3
 4209 0e94 00000000 		.4byte	MagZ
 4210 0e98 19       		.uleb128 0x19
 4211 0e99 6F020000 		.4byte	.LASF66
 4212 0e9d 04       		.byte	0x4
 4213 0e9e 15       		.byte	0x15
ARM GAS  C:\Users\ADMINI~1\AppData\Local\Temp\cciWlNAe.s 			page 86


 4214 0e9f 290D0000 		.4byte	0xd29
 4215 0ea3 05       		.uleb128 0x5
 4216 0ea4 03       		.byte	0x3
 4217 0ea5 00000000 		.4byte	Pressure
 4218 0ea9 19       		.uleb128 0x19
 4219 0eaa 28010000 		.4byte	.LASF67
 4220 0eae 04       		.byte	0x4
 4221 0eaf 15       		.byte	0x15
 4222 0eb0 290D0000 		.4byte	0xd29
 4223 0eb4 05       		.uleb128 0x5
 4224 0eb5 03       		.byte	0x3
 4225 0eb6 00000000 		.4byte	Height
 4226 0eba 1A       		.uleb128 0x1a
 4227 0ebb 6900     		.ascii	"i\000"
 4228 0ebd 04       		.byte	0x4
 4229 0ebe 16       		.byte	0x16
 4230 0ebf 6F000000 		.4byte	0x6f
 4231 0ec3 05       		.uleb128 0x5
 4232 0ec4 03       		.byte	0x3
 4233 0ec5 00000000 		.4byte	i
 4234 0ec9 1A       		.uleb128 0x1a
 4235 0eca 73756D00 		.ascii	"sum\000"
 4236 0ece 04       		.byte	0x4
 4237 0ecf 16       		.byte	0x16
 4238 0ed0 6F000000 		.4byte	0x6f
 4239 0ed4 05       		.uleb128 0x5
 4240 0ed5 03       		.byte	0x3
 4241 0ed6 00000000 		.4byte	sum
 4242 0eda 19       		.uleb128 0x19
 4243 0edb 41020000 		.4byte	.LASF68
 4244 0edf 02       		.byte	0x2
 4245 0ee0 2D       		.byte	0x2d
 4246 0ee1 290D0000 		.4byte	0xd29
 4247 0ee5 05       		.uleb128 0x5
 4248 0ee6 03       		.byte	0x3
 4249 0ee7 00000000 		.4byte	Motor_v_1
 4250 0eeb 19       		.uleb128 0x19
 4251 0eec 4B020000 		.4byte	.LASF69
 4252 0ef0 02       		.byte	0x2
 4253 0ef1 2D       		.byte	0x2d
 4254 0ef2 290D0000 		.4byte	0xd29
 4255 0ef6 05       		.uleb128 0x5
 4256 0ef7 03       		.byte	0x3
 4257 0ef8 00000000 		.4byte	Motor_v_2
 4258 0efc 19       		.uleb128 0x19
 4259 0efd 55020000 		.4byte	.LASF70
 4260 0f01 02       		.byte	0x2
 4261 0f02 2D       		.byte	0x2d
 4262 0f03 290D0000 		.4byte	0xd29
 4263 0f07 05       		.uleb128 0x5
 4264 0f08 03       		.byte	0x3
 4265 0f09 00000000 		.4byte	Motor_v_3
 4266 0f0d 19       		.uleb128 0x19
 4267 0f0e 5F020000 		.4byte	.LASF71
 4268 0f12 02       		.byte	0x2
 4269 0f13 2D       		.byte	0x2d
 4270 0f14 290D0000 		.4byte	0xd29
ARM GAS  C:\Users\ADMINI~1\AppData\Local\Temp\cciWlNAe.s 			page 87


 4271 0f18 05       		.uleb128 0x5
 4272 0f19 03       		.byte	0x3
 4273 0f1a 00000000 		.4byte	Motor_v_4
 4274 0f1e 19       		.uleb128 0x19
 4275 0f1f 5F030000 		.4byte	.LASF72
 4276 0f23 02       		.byte	0x2
 4277 0f24 2E       		.byte	0x2e
 4278 0f25 6F000000 		.4byte	0x6f
 4279 0f29 05       		.uleb128 0x5
 4280 0f2a 03       		.byte	0x3
 4281 0f2b 00000000 		.4byte	last_Motor_v_1
 4282 0f2f 19       		.uleb128 0x19
 4283 0f30 6E030000 		.4byte	.LASF73
 4284 0f34 02       		.byte	0x2
 4285 0f35 2E       		.byte	0x2e
 4286 0f36 6F000000 		.4byte	0x6f
 4287 0f3a 05       		.uleb128 0x5
 4288 0f3b 03       		.byte	0x3
 4289 0f3c 00000000 		.4byte	last_Motor_v_2
 4290 0f40 19       		.uleb128 0x19
 4291 0f41 7D030000 		.4byte	.LASF74
 4292 0f45 02       		.byte	0x2
 4293 0f46 2E       		.byte	0x2e
 4294 0f47 6F000000 		.4byte	0x6f
 4295 0f4b 05       		.uleb128 0x5
 4296 0f4c 03       		.byte	0x3
 4297 0f4d 00000000 		.4byte	last_Motor_v_3
 4298 0f51 19       		.uleb128 0x19
 4299 0f52 8C030000 		.4byte	.LASF75
 4300 0f56 02       		.byte	0x2
 4301 0f57 2E       		.byte	0x2e
 4302 0f58 6F000000 		.4byte	0x6f
 4303 0f5c 05       		.uleb128 0x5
 4304 0f5d 03       		.byte	0x3
 4305 0f5e 00000000 		.4byte	last_Motor_v_4
 4306 0f62 1B       		.uleb128 0x1b
 4307 0f63 88000000 		.4byte	0x88
 4308 0f67 720F0000 		.4byte	0xf72
 4309 0f6b 1C       		.uleb128 0x1c
 4310 0f6c EA000000 		.4byte	0xea
 4311 0f70 3F       		.byte	0x3f
 4312 0f71 00       		.byte	0
 4313 0f72 19       		.uleb128 0x19
 4314 0f73 03050000 		.4byte	.LASF76
 4315 0f77 02       		.byte	0x2
 4316 0f78 45       		.byte	0x45
 4317 0f79 620F0000 		.4byte	0xf62
 4318 0f7d 05       		.uleb128 0x5
 4319 0f7e 03       		.byte	0x3
 4320 0f7f 00000000 		.4byte	BTRxBuf
 4321 0f83 19       		.uleb128 0x19
 4322 0f84 1E030000 		.4byte	.LASF77
 4323 0f88 02       		.byte	0x2
 4324 0f89 46       		.byte	0x46
 4325 0f8a 88000000 		.4byte	0x88
 4326 0f8e 05       		.uleb128 0x5
 4327 0f8f 03       		.byte	0x3
ARM GAS  C:\Users\ADMINI~1\AppData\Local\Temp\cciWlNAe.s 			page 88


 4328 0f90 00000000 		.4byte	BTRxBufLen
 4329 0f94 1A       		.uleb128 0x1a
 4330 0f95 746D7000 		.ascii	"tmp\000"
 4331 0f99 02       		.byte	0x2
 4332 0f9a 47       		.byte	0x47
 4333 0f9b 88000000 		.4byte	0x88
 4334 0f9f 05       		.uleb128 0x5
 4335 0fa0 03       		.byte	0x3
 4336 0fa1 00000000 		.4byte	tmp
 4337 0fa5 19       		.uleb128 0x19
 4338 0fa6 54040000 		.4byte	.LASF78
 4339 0faa 02       		.byte	0x2
 4340 0fab 48       		.byte	0x48
 4341 0fac 6F000000 		.4byte	0x6f
 4342 0fb0 05       		.uleb128 0x5
 4343 0fb1 03       		.byte	0x3
 4344 0fb2 00000000 		.4byte	flag
 4345 0fb6 19       		.uleb128 0x19
 4346 0fb7 DF000000 		.4byte	.LASF79
 4347 0fbb 02       		.byte	0x2
 4348 0fbc 60       		.byte	0x60
 4349 0fbd 620F0000 		.4byte	0xf62
 4350 0fc1 05       		.uleb128 0x5
 4351 0fc2 03       		.byte	0x3
 4352 0fc3 00000000 		.4byte	JY901RxBuf
 4353 0fc7 19       		.uleb128 0x19
 4354 0fc8 25020000 		.4byte	.LASF80
 4355 0fcc 02       		.byte	0x2
 4356 0fcd 61       		.byte	0x61
 4357 0fce 88000000 		.4byte	0x88
 4358 0fd2 05       		.uleb128 0x5
 4359 0fd3 03       		.byte	0x3
 4360 0fd4 00000000 		.4byte	JY901RxBufLen
 4361 0fd8 19       		.uleb128 0x19
 4362 0fd9 1A000000 		.4byte	.LASF81
 4363 0fdd 02       		.byte	0x2
 4364 0fde 62       		.byte	0x62
 4365 0fdf 88000000 		.4byte	0x88
 4366 0fe3 05       		.uleb128 0x5
 4367 0fe4 03       		.byte	0x3
 4368 0fe5 00000000 		.4byte	tmp2
 4369 0fe9 19       		.uleb128 0x19
 4370 0fea 43030000 		.4byte	.LASF82
 4371 0fee 02       		.byte	0x2
 4372 0fef 63       		.byte	0x63
 4373 0ff0 6F000000 		.4byte	0x6f
 4374 0ff4 05       		.uleb128 0x5
 4375 0ff5 03       		.byte	0x3
 4376 0ff6 00000000 		.4byte	flag_55
 4377 0ffa 19       		.uleb128 0x19
 4378 0ffb 91010000 		.4byte	.LASF83
 4379 0fff 02       		.byte	0x2
 4380 1000 64       		.byte	0x64
 4381 1001 6F000000 		.4byte	0x6f
 4382 1005 05       		.uleb128 0x5
 4383 1006 03       		.byte	0x3
 4384 1007 00000000 		.4byte	flag_rec
ARM GAS  C:\Users\ADMINI~1\AppData\Local\Temp\cciWlNAe.s 			page 89


 4385 100b 19       		.uleb128 0x19
 4386 100c A0020000 		.4byte	.LASF84
 4387 1010 02       		.byte	0x2
 4388 1011 65       		.byte	0x65
 4389 1012 6F000000 		.4byte	0x6f
 4390 1016 05       		.uleb128 0x5
 4391 1017 03       		.byte	0x3
 4392 1018 00000000 		.4byte	decode_success
 4393 101c 1B       		.uleb128 0x1b
 4394 101d BF000000 		.4byte	0xbf
 4395 1021 2C100000 		.4byte	0x102c
 4396 1025 1C       		.uleb128 0x1c
 4397 1026 EA000000 		.4byte	0xea
 4398 102a 0F       		.byte	0xf
 4399 102b 00       		.byte	0
 4400 102c 19       		.uleb128 0x19
 4401 102d 7A010000 		.4byte	.LASF85
 4402 1031 02       		.byte	0x2
 4403 1032 68       		.byte	0x68
 4404 1033 1C100000 		.4byte	0x101c
 4405 1037 05       		.uleb128 0x5
 4406 1038 03       		.byte	0x3
 4407 1039 00000000 		.4byte	LCDBuffer
 4408 103d 19       		.uleb128 0x19
 4409 103e 8A040000 		.4byte	.LASF86
 4410 1042 02       		.byte	0x2
 4411 1043 69       		.byte	0x69
 4412 1044 6F000000 		.4byte	0x6f
 4413 1048 05       		.uleb128 0x5
 4414 1049 03       		.byte	0x3
 4415 104a 00000000 		.4byte	float2int_tmp
 4416 104e 19       		.uleb128 0x19
 4417 104f B3000000 		.4byte	.LASF36
 4418 1053 02       		.byte	0x2
 4419 1054 6A       		.byte	0x6a
 4420 1055 BF000000 		.4byte	0xbf
 4421 1059 05       		.uleb128 0x5
 4422 105a 03       		.byte	0x3
 4423 105b 00000000 		.4byte	symbol
 4424 105f 19       		.uleb128 0x19
 4425 1060 78020000 		.4byte	.LASF87
 4426 1064 02       		.byte	0x2
 4427 1065 6B       		.byte	0x6b
 4428 1066 25000000 		.4byte	0x25
 4429 106a 05       		.uleb128 0x5
 4430 106b 03       		.byte	0x3
 4431 106c 00000000 		.4byte	f_tmp
 4432 1070 1B       		.uleb128 0x1b
 4433 1071 BF000000 		.4byte	0xbf
 4434 1075 80100000 		.4byte	0x1080
 4435 1079 1C       		.uleb128 0x1c
 4436 107a EA000000 		.4byte	0xea
 4437 107e 7F       		.byte	0x7f
 4438 107f 00       		.byte	0
 4439 1080 19       		.uleb128 0x19
 4440 1081 F0010000 		.4byte	.LASF88
 4441 1085 02       		.byte	0x2
ARM GAS  C:\Users\ADMINI~1\AppData\Local\Temp\cciWlNAe.s 			page 90


 4442 1086 99       		.byte	0x99
 4443 1087 70100000 		.4byte	0x1070
 4444 108b 05       		.uleb128 0x5
 4445 108c 03       		.byte	0x3
 4446 108d 00000000 		.4byte	DisplayBuffer
 4447 1091 1B       		.uleb128 0x1b
 4448 1092 BF000000 		.4byte	0xbf
 4449 1096 A1100000 		.4byte	0x10a1
 4450 109a 1C       		.uleb128 0x1c
 4451 109b EA000000 		.4byte	0xea
 4452 109f 09       		.byte	0x9
 4453 10a0 00       		.byte	0
 4454 10a1 19       		.uleb128 0x19
 4455 10a2 28000000 		.4byte	.LASF89
 4456 10a6 02       		.byte	0x2
 4457 10a7 E7       		.byte	0xe7
 4458 10a8 91100000 		.4byte	0x1091
 4459 10ac 05       		.uleb128 0x5
 4460 10ad 03       		.byte	0x3
 4461 10ae 00000000 		.4byte	tmpbuf
 4462 10b2 1D       		.uleb128 0x1d
 4463 10b3 72000000 		.4byte	.LASF90
 4464 10b7 09       		.byte	0x9
 4465 10b8 C7       		.byte	0xc7
 4466 10b9 C3100000 		.4byte	0x10c3
 4467 10bd 1E       		.uleb128 0x1e
 4468 10be 94000000 		.4byte	0x94
 4469 10c2 00       		.byte	0
 4470 10c3 1D       		.uleb128 0x1d
 4471 10c4 86000000 		.4byte	.LASF91
 4472 10c8 09       		.byte	0x9
 4473 10c9 CA       		.byte	0xca
 4474 10ca D4100000 		.4byte	0x10d4
 4475 10ce 1E       		.uleb128 0x1e
 4476 10cf 94000000 		.4byte	0x94
 4477 10d3 00       		.byte	0
 4478 10d4 1D       		.uleb128 0x1d
 4479 10d5 9A060000 		.4byte	.LASF92
 4480 10d9 0A       		.byte	0xa
 4481 10da C7       		.byte	0xc7
 4482 10db E5100000 		.4byte	0x10e5
 4483 10df 1E       		.uleb128 0x1e
 4484 10e0 94000000 		.4byte	0x94
 4485 10e4 00       		.byte	0
 4486 10e5 1D       		.uleb128 0x1d
 4487 10e6 AE060000 		.4byte	.LASF93
 4488 10ea 0A       		.byte	0xa
 4489 10eb CA       		.byte	0xca
 4490 10ec F6100000 		.4byte	0x10f6
 4491 10f0 1E       		.uleb128 0x1e
 4492 10f1 94000000 		.4byte	0x94
 4493 10f5 00       		.byte	0
 4494 10f6 1F       		.uleb128 0x1f
 4495 10f7 A7000000 		.4byte	.LASF94
 4496 10fb 09       		.byte	0x9
 4497 10fc 92       		.byte	0x92
 4498 10fd 1F       		.uleb128 0x1f
ARM GAS  C:\Users\ADMINI~1\AppData\Local\Temp\cciWlNAe.s 			page 91


 4499 10fe E0030000 		.4byte	.LASF95
 4500 1102 0A       		.byte	0xa
 4501 1103 92       		.byte	0x92
 4502 1104 1D       		.uleb128 0x1d
 4503 1105 00000000 		.4byte	.LASF96
 4504 1109 0B       		.byte	0xb
 4505 110a 76       		.byte	0x76
 4506 110b 15110000 		.4byte	0x1115
 4507 110f 1E       		.uleb128 0x1e
 4508 1110 A0000000 		.4byte	0xa0
 4509 1114 00       		.byte	0
 4510 1115 20       		.uleb128 0x20
 4511 1116 38060000 		.4byte	.LASF99
 4512 111a 0D       		.byte	0xd
 4513 111b 6F       		.byte	0x6f
 4514 111c 88000000 		.4byte	0x88
 4515 1120 1D       		.uleb128 0x1d
 4516 1121 BF030000 		.4byte	.LASF97
 4517 1125 0C       		.byte	0xc
 4518 1126 3D       		.byte	0x3d
 4519 1127 36110000 		.4byte	0x1136
 4520 112b 1E       		.uleb128 0x1e
 4521 112c 88000000 		.4byte	0x88
 4522 1130 1E       		.uleb128 0x1e
 4523 1131 88000000 		.4byte	0x88
 4524 1135 00       		.byte	0
 4525 1136 1D       		.uleb128 0x1d
 4526 1137 11040000 		.4byte	.LASF98
 4527 113b 0C       		.byte	0xc
 4528 113c 3C       		.byte	0x3c
 4529 113d 47110000 		.4byte	0x1147
 4530 1141 1E       		.uleb128 0x1e
 4531 1142 47110000 		.4byte	0x1147
 4532 1146 00       		.byte	0
 4533 1147 07       		.uleb128 0x7
 4534 1148 04       		.byte	0x4
 4535 1149 4D110000 		.4byte	0x114d
 4536 114d 09       		.uleb128 0x9
 4537 114e B3000000 		.4byte	0xb3
 4538 1152 21       		.uleb128 0x21
 4539 1153 A7030000 		.4byte	.LASF119
 4540 1157 14       		.byte	0x14
 4541 1158 DE       		.byte	0xde
 4542 1159 6F000000 		.4byte	0x6f
 4543 115d 6D110000 		.4byte	0x116d
 4544 1161 1E       		.uleb128 0x1e
 4545 1162 F1000000 		.4byte	0xf1
 4546 1166 1E       		.uleb128 0x1e
 4547 1167 F7000000 		.4byte	0xf7
 4548 116b 22       		.uleb128 0x22
 4549 116c 00       		.byte	0
 4550 116d 20       		.uleb128 0x20
 4551 116e F6050000 		.4byte	.LASF100
 4552 1172 0E       		.byte	0xe
 4553 1173 6F       		.byte	0x6f
 4554 1174 88000000 		.4byte	0x88
 4555 1178 20       		.uleb128 0x20
ARM GAS  C:\Users\ADMINI~1\AppData\Local\Temp\cciWlNAe.s 			page 92


 4556 1179 35010000 		.4byte	.LASF101
 4557 117d 0F       		.byte	0xf
 4558 117e 28       		.byte	0x28
 4559 117f 88000000 		.4byte	0x88
 4560 1183 1D       		.uleb128 0x1d
 4561 1184 7E020000 		.4byte	.LASF102
 4562 1188 0F       		.byte	0xf
 4563 1189 24       		.byte	0x24
 4564 118a 94110000 		.4byte	0x1194
 4565 118e 1E       		.uleb128 0x1e
 4566 118f 47110000 		.4byte	0x1147
 4567 1193 00       		.byte	0
 4568 1194 1F       		.uleb128 0x1f
 4569 1195 98040000 		.4byte	.LASF103
 4570 1199 0C       		.byte	0xc
 4571 119a 38       		.byte	0x38
 4572 119b 1D       		.uleb128 0x1d
 4573 119c AF020000 		.4byte	.LASF104
 4574 11a0 10       		.byte	0x10
 4575 11a1 18       		.byte	0x18
 4576 11a2 AC110000 		.4byte	0x11ac
 4577 11a6 1E       		.uleb128 0x1e
 4578 11a7 D7000000 		.4byte	0xd7
 4579 11ab 00       		.byte	0
 4580 11ac 1F       		.uleb128 0x1f
 4581 11ad 4E060000 		.4byte	.LASF105
 4582 11b1 11       		.byte	0x11
 4583 11b2 5A       		.byte	0x5a
 4584 11b3 23       		.uleb128 0x23
 4585 11b4 AF030000 		.4byte	.LASF106
 4586 11b8 12       		.byte	0x12
 4587 11b9 2A01     		.2byte	0x12a
 4588 11bb CA110000 		.4byte	0x11ca
 4589 11bf 1E       		.uleb128 0x1e
 4590 11c0 88000000 		.4byte	0x88
 4591 11c4 1E       		.uleb128 0x1e
 4592 11c5 88000000 		.4byte	0x88
 4593 11c9 00       		.byte	0
 4594 11ca 24       		.uleb128 0x24
 4595 11cb C2010000 		.4byte	.LASF107
 4596 11cf 12       		.byte	0x12
 4597 11d0 2D01     		.2byte	0x12d
 4598 11d2 88000000 		.4byte	0x88
 4599 11d6 20       		.uleb128 0x20
 4600 11d7 61010000 		.4byte	.LASF108
 4601 11db 0F       		.byte	0xf
 4602 11dc 22       		.byte	0x22
 4603 11dd 88000000 		.4byte	0x88
 4604 11e1 1F       		.uleb128 0x1f
 4605 11e2 EE020000 		.4byte	.LASF109
 4606 11e6 0E       		.byte	0xe
 4607 11e7 54       		.byte	0x54
 4608 11e8 1F       		.uleb128 0x1f
 4609 11e9 0A030000 		.4byte	.LASF110
 4610 11ed 0E       		.byte	0xe
 4611 11ee 59       		.byte	0x59
 4612 11ef 1F       		.uleb128 0x1f
ARM GAS  C:\Users\ADMINI~1\AppData\Local\Temp\cciWlNAe.s 			page 93


 4613 11f0 21040000 		.4byte	.LASF111
 4614 11f4 0D       		.byte	0xd
 4615 11f5 54       		.byte	0x54
 4616 11f6 1F       		.uleb128 0x1f
 4617 11f7 EA000000 		.4byte	.LASF112
 4618 11fb 0D       		.byte	0xd
 4619 11fc 59       		.byte	0x59
 4620 11fd 1D       		.uleb128 0x1d
 4621 11fe BD040000 		.4byte	.LASF113
 4622 1202 13       		.byte	0x13
 4623 1203 18       		.byte	0x18
 4624 1204 0E120000 		.4byte	0x120e
 4625 1208 1E       		.uleb128 0x1e
 4626 1209 D7000000 		.4byte	0xd7
 4627 120d 00       		.byte	0
 4628 120e 25       		.uleb128 0x25
 4629 120f CE040000 		.4byte	.LASF120
 4630 1213 15       		.byte	0x15
 4631 1214 07       		.byte	0x7
 4632 1215 1B120000 		.4byte	0x121b
 4633 1219 22       		.uleb128 0x22
 4634 121a 00       		.byte	0
 4635 121b 26       		.uleb128 0x26
 4636 121c 84010000 		.4byte	.LASF121
 4637 1220 15       		.byte	0x15
 4638 1221 06       		.byte	0x6
 4639 1222 22       		.uleb128 0x22
 4640 1223 00       		.byte	0
 4641 1224 00       		.byte	0
 4642              		.section	.debug_abbrev,"",%progbits
 4643              	.Ldebug_abbrev0:
 4644 0000 01       		.uleb128 0x1
 4645 0001 11       		.uleb128 0x11
 4646 0002 01       		.byte	0x1
 4647 0003 25       		.uleb128 0x25
 4648 0004 0E       		.uleb128 0xe
 4649 0005 13       		.uleb128 0x13
 4650 0006 0B       		.uleb128 0xb
 4651 0007 03       		.uleb128 0x3
 4652 0008 0E       		.uleb128 0xe
 4653 0009 1B       		.uleb128 0x1b
 4654 000a 0E       		.uleb128 0xe
 4655 000b 55       		.uleb128 0x55
 4656 000c 17       		.uleb128 0x17
 4657 000d 11       		.uleb128 0x11
 4658 000e 01       		.uleb128 0x1
 4659 000f 10       		.uleb128 0x10
 4660 0010 17       		.uleb128 0x17
 4661 0011 00       		.byte	0
 4662 0012 00       		.byte	0
 4663 0013 02       		.uleb128 0x2
 4664 0014 24       		.uleb128 0x24
 4665 0015 00       		.byte	0
 4666 0016 0B       		.uleb128 0xb
 4667 0017 0B       		.uleb128 0xb
 4668 0018 3E       		.uleb128 0x3e
 4669 0019 0B       		.uleb128 0xb
ARM GAS  C:\Users\ADMINI~1\AppData\Local\Temp\cciWlNAe.s 			page 94


 4670 001a 03       		.uleb128 0x3
 4671 001b 0E       		.uleb128 0xe
 4672 001c 00       		.byte	0
 4673 001d 00       		.byte	0
 4674 001e 03       		.uleb128 0x3
 4675 001f 16       		.uleb128 0x16
 4676 0020 00       		.byte	0
 4677 0021 03       		.uleb128 0x3
 4678 0022 0E       		.uleb128 0xe
 4679 0023 3A       		.uleb128 0x3a
 4680 0024 0B       		.uleb128 0xb
 4681 0025 3B       		.uleb128 0x3b
 4682 0026 0B       		.uleb128 0xb
 4683 0027 49       		.uleb128 0x49
 4684 0028 13       		.uleb128 0x13
 4685 0029 00       		.byte	0
 4686 002a 00       		.byte	0
 4687 002b 04       		.uleb128 0x4
 4688 002c 24       		.uleb128 0x24
 4689 002d 00       		.byte	0
 4690 002e 0B       		.uleb128 0xb
 4691 002f 0B       		.uleb128 0xb
 4692 0030 3E       		.uleb128 0x3e
 4693 0031 0B       		.uleb128 0xb
 4694 0032 03       		.uleb128 0x3
 4695 0033 08       		.uleb128 0x8
 4696 0034 00       		.byte	0
 4697 0035 00       		.byte	0
 4698 0036 05       		.uleb128 0x5
 4699 0037 16       		.uleb128 0x16
 4700 0038 00       		.byte	0
 4701 0039 03       		.uleb128 0x3
 4702 003a 0E       		.uleb128 0xe
 4703 003b 3A       		.uleb128 0x3a
 4704 003c 0B       		.uleb128 0xb
 4705 003d 3B       		.uleb128 0x3b
 4706 003e 05       		.uleb128 0x5
 4707 003f 49       		.uleb128 0x49
 4708 0040 13       		.uleb128 0x13
 4709 0041 00       		.byte	0
 4710 0042 00       		.byte	0
 4711 0043 06       		.uleb128 0x6
 4712 0044 35       		.uleb128 0x35
 4713 0045 00       		.byte	0
 4714 0046 49       		.uleb128 0x49
 4715 0047 13       		.uleb128 0x13
 4716 0048 00       		.byte	0
 4717 0049 00       		.byte	0
 4718 004a 07       		.uleb128 0x7
 4719 004b 0F       		.uleb128 0xf
 4720 004c 00       		.byte	0
 4721 004d 0B       		.uleb128 0xb
 4722 004e 0B       		.uleb128 0xb
 4723 004f 49       		.uleb128 0x49
 4724 0050 13       		.uleb128 0x13
 4725 0051 00       		.byte	0
 4726 0052 00       		.byte	0
ARM GAS  C:\Users\ADMINI~1\AppData\Local\Temp\cciWlNAe.s 			page 95


 4727 0053 08       		.uleb128 0x8
 4728 0054 15       		.uleb128 0x15
 4729 0055 00       		.byte	0
 4730 0056 27       		.uleb128 0x27
 4731 0057 19       		.uleb128 0x19
 4732 0058 00       		.byte	0
 4733 0059 00       		.byte	0
 4734 005a 09       		.uleb128 0x9
 4735 005b 26       		.uleb128 0x26
 4736 005c 00       		.byte	0
 4737 005d 49       		.uleb128 0x49
 4738 005e 13       		.uleb128 0x13
 4739 005f 00       		.byte	0
 4740 0060 00       		.byte	0
 4741 0061 0A       		.uleb128 0xa
 4742 0062 2E       		.uleb128 0x2e
 4743 0063 01       		.byte	0x1
 4744 0064 3F       		.uleb128 0x3f
 4745 0065 19       		.uleb128 0x19
 4746 0066 03       		.uleb128 0x3
 4747 0067 0E       		.uleb128 0xe
 4748 0068 3A       		.uleb128 0x3a
 4749 0069 0B       		.uleb128 0xb
 4750 006a 3B       		.uleb128 0x3b
 4751 006b 0B       		.uleb128 0xb
 4752 006c 27       		.uleb128 0x27
 4753 006d 19       		.uleb128 0x19
 4754 006e 11       		.uleb128 0x11
 4755 006f 01       		.uleb128 0x1
 4756 0070 12       		.uleb128 0x12
 4757 0071 06       		.uleb128 0x6
 4758 0072 40       		.uleb128 0x40
 4759 0073 18       		.uleb128 0x18
 4760 0074 9742     		.uleb128 0x2117
 4761 0076 19       		.uleb128 0x19
 4762 0077 01       		.uleb128 0x1
 4763 0078 13       		.uleb128 0x13
 4764 0079 00       		.byte	0
 4765 007a 00       		.byte	0
 4766 007b 0B       		.uleb128 0xb
 4767 007c 05       		.uleb128 0x5
 4768 007d 00       		.byte	0
 4769 007e 03       		.uleb128 0x3
 4770 007f 0E       		.uleb128 0xe
 4771 0080 3A       		.uleb128 0x3a
 4772 0081 0B       		.uleb128 0xb
 4773 0082 3B       		.uleb128 0x3b
 4774 0083 0B       		.uleb128 0xb
 4775 0084 49       		.uleb128 0x49
 4776 0085 13       		.uleb128 0x13
 4777 0086 02       		.uleb128 0x2
 4778 0087 17       		.uleb128 0x17
 4779 0088 00       		.byte	0
 4780 0089 00       		.byte	0
 4781 008a 0C       		.uleb128 0xc
 4782 008b 898201   		.uleb128 0x4109
 4783 008e 01       		.byte	0x1
ARM GAS  C:\Users\ADMINI~1\AppData\Local\Temp\cciWlNAe.s 			page 96


 4784 008f 11       		.uleb128 0x11
 4785 0090 01       		.uleb128 0x1
 4786 0091 31       		.uleb128 0x31
 4787 0092 13       		.uleb128 0x13
 4788 0093 00       		.byte	0
 4789 0094 00       		.byte	0
 4790 0095 0D       		.uleb128 0xd
 4791 0096 8A8201   		.uleb128 0x410a
 4792 0099 00       		.byte	0
 4793 009a 02       		.uleb128 0x2
 4794 009b 18       		.uleb128 0x18
 4795 009c 9142     		.uleb128 0x2111
 4796 009e 18       		.uleb128 0x18
 4797 009f 00       		.byte	0
 4798 00a0 00       		.byte	0
 4799 00a1 0E       		.uleb128 0xe
 4800 00a2 898201   		.uleb128 0x4109
 4801 00a5 00       		.byte	0
 4802 00a6 11       		.uleb128 0x11
 4803 00a7 01       		.uleb128 0x1
 4804 00a8 31       		.uleb128 0x31
 4805 00a9 13       		.uleb128 0x13
 4806 00aa 00       		.byte	0
 4807 00ab 00       		.byte	0
 4808 00ac 0F       		.uleb128 0xf
 4809 00ad 05       		.uleb128 0x5
 4810 00ae 00       		.byte	0
 4811 00af 03       		.uleb128 0x3
 4812 00b0 08       		.uleb128 0x8
 4813 00b1 3A       		.uleb128 0x3a
 4814 00b2 0B       		.uleb128 0xb
 4815 00b3 3B       		.uleb128 0x3b
 4816 00b4 0B       		.uleb128 0xb
 4817 00b5 49       		.uleb128 0x49
 4818 00b6 13       		.uleb128 0x13
 4819 00b7 02       		.uleb128 0x2
 4820 00b8 17       		.uleb128 0x17
 4821 00b9 00       		.byte	0
 4822 00ba 00       		.byte	0
 4823 00bb 10       		.uleb128 0x10
 4824 00bc 898201   		.uleb128 0x4109
 4825 00bf 01       		.byte	0x1
 4826 00c0 11       		.uleb128 0x11
 4827 00c1 01       		.uleb128 0x1
 4828 00c2 31       		.uleb128 0x31
 4829 00c3 13       		.uleb128 0x13
 4830 00c4 01       		.uleb128 0x1
 4831 00c5 13       		.uleb128 0x13
 4832 00c6 00       		.byte	0
 4833 00c7 00       		.byte	0
 4834 00c8 11       		.uleb128 0x11
 4835 00c9 2E       		.uleb128 0x2e
 4836 00ca 01       		.byte	0x1
 4837 00cb 3F       		.uleb128 0x3f
 4838 00cc 19       		.uleb128 0x19
 4839 00cd 03       		.uleb128 0x3
 4840 00ce 0E       		.uleb128 0xe
ARM GAS  C:\Users\ADMINI~1\AppData\Local\Temp\cciWlNAe.s 			page 97


 4841 00cf 3A       		.uleb128 0x3a
 4842 00d0 0B       		.uleb128 0xb
 4843 00d1 3B       		.uleb128 0x3b
 4844 00d2 0B       		.uleb128 0xb
 4845 00d3 11       		.uleb128 0x11
 4846 00d4 01       		.uleb128 0x1
 4847 00d5 12       		.uleb128 0x12
 4848 00d6 06       		.uleb128 0x6
 4849 00d7 40       		.uleb128 0x40
 4850 00d8 18       		.uleb128 0x18
 4851 00d9 9742     		.uleb128 0x2117
 4852 00db 19       		.uleb128 0x19
 4853 00dc 01       		.uleb128 0x1
 4854 00dd 13       		.uleb128 0x13
 4855 00de 00       		.byte	0
 4856 00df 00       		.byte	0
 4857 00e0 12       		.uleb128 0x12
 4858 00e1 2E       		.uleb128 0x2e
 4859 00e2 01       		.byte	0x1
 4860 00e3 3F       		.uleb128 0x3f
 4861 00e4 19       		.uleb128 0x19
 4862 00e5 03       		.uleb128 0x3
 4863 00e6 0E       		.uleb128 0xe
 4864 00e7 3A       		.uleb128 0x3a
 4865 00e8 0B       		.uleb128 0xb
 4866 00e9 3B       		.uleb128 0x3b
 4867 00ea 0B       		.uleb128 0xb
 4868 00eb 27       		.uleb128 0x27
 4869 00ec 19       		.uleb128 0x19
 4870 00ed 11       		.uleb128 0x11
 4871 00ee 01       		.uleb128 0x1
 4872 00ef 12       		.uleb128 0x12
 4873 00f0 06       		.uleb128 0x6
 4874 00f1 40       		.uleb128 0x40
 4875 00f2 18       		.uleb128 0x18
 4876 00f3 9642     		.uleb128 0x2116
 4877 00f5 19       		.uleb128 0x19
 4878 00f6 01       		.uleb128 0x1
 4879 00f7 13       		.uleb128 0x13
 4880 00f8 00       		.byte	0
 4881 00f9 00       		.byte	0
 4882 00fa 13       		.uleb128 0x13
 4883 00fb 34       		.uleb128 0x34
 4884 00fc 00       		.byte	0
 4885 00fd 03       		.uleb128 0x3
 4886 00fe 08       		.uleb128 0x8
 4887 00ff 3A       		.uleb128 0x3a
 4888 0100 0B       		.uleb128 0xb
 4889 0101 3B       		.uleb128 0x3b
 4890 0102 0B       		.uleb128 0xb
 4891 0103 49       		.uleb128 0x49
 4892 0104 13       		.uleb128 0x13
 4893 0105 02       		.uleb128 0x2
 4894 0106 17       		.uleb128 0x17
 4895 0107 00       		.byte	0
 4896 0108 00       		.byte	0
 4897 0109 14       		.uleb128 0x14
ARM GAS  C:\Users\ADMINI~1\AppData\Local\Temp\cciWlNAe.s 			page 98


 4898 010a 2E       		.uleb128 0x2e
 4899 010b 00       		.byte	0
 4900 010c 3F       		.uleb128 0x3f
 4901 010d 19       		.uleb128 0x19
 4902 010e 03       		.uleb128 0x3
 4903 010f 0E       		.uleb128 0xe
 4904 0110 3A       		.uleb128 0x3a
 4905 0111 0B       		.uleb128 0xb
 4906 0112 3B       		.uleb128 0x3b
 4907 0113 0B       		.uleb128 0xb
 4908 0114 11       		.uleb128 0x11
 4909 0115 01       		.uleb128 0x1
 4910 0116 12       		.uleb128 0x12
 4911 0117 06       		.uleb128 0x6
 4912 0118 40       		.uleb128 0x40
 4913 0119 18       		.uleb128 0x18
 4914 011a 9742     		.uleb128 0x2117
 4915 011c 19       		.uleb128 0x19
 4916 011d 00       		.byte	0
 4917 011e 00       		.byte	0
 4918 011f 15       		.uleb128 0x15
 4919 0120 2E       		.uleb128 0x2e
 4920 0121 01       		.byte	0x1
 4921 0122 3F       		.uleb128 0x3f
 4922 0123 19       		.uleb128 0x19
 4923 0124 03       		.uleb128 0x3
 4924 0125 0E       		.uleb128 0xe
 4925 0126 3A       		.uleb128 0x3a
 4926 0127 0B       		.uleb128 0xb
 4927 0128 3B       		.uleb128 0x3b
 4928 0129 0B       		.uleb128 0xb
 4929 012a 27       		.uleb128 0x27
 4930 012b 19       		.uleb128 0x19
 4931 012c 49       		.uleb128 0x49
 4932 012d 13       		.uleb128 0x13
 4933 012e 11       		.uleb128 0x11
 4934 012f 01       		.uleb128 0x1
 4935 0130 12       		.uleb128 0x12
 4936 0131 06       		.uleb128 0x6
 4937 0132 40       		.uleb128 0x40
 4938 0133 18       		.uleb128 0x18
 4939 0134 9642     		.uleb128 0x2116
 4940 0136 19       		.uleb128 0x19
 4941 0137 01       		.uleb128 0x1
 4942 0138 13       		.uleb128 0x13
 4943 0139 00       		.byte	0
 4944 013a 00       		.byte	0
 4945 013b 16       		.uleb128 0x16
 4946 013c 34       		.uleb128 0x34
 4947 013d 00       		.byte	0
 4948 013e 03       		.uleb128 0x3
 4949 013f 0E       		.uleb128 0xe
 4950 0140 3A       		.uleb128 0x3a
 4951 0141 0B       		.uleb128 0xb
 4952 0142 3B       		.uleb128 0x3b
 4953 0143 0B       		.uleb128 0xb
 4954 0144 49       		.uleb128 0x49
ARM GAS  C:\Users\ADMINI~1\AppData\Local\Temp\cciWlNAe.s 			page 99


 4955 0145 13       		.uleb128 0x13
 4956 0146 02       		.uleb128 0x2
 4957 0147 17       		.uleb128 0x17
 4958 0148 00       		.byte	0
 4959 0149 00       		.byte	0
 4960 014a 17       		.uleb128 0x17
 4961 014b 2E       		.uleb128 0x2e
 4962 014c 01       		.byte	0x1
 4963 014d 3F       		.uleb128 0x3f
 4964 014e 19       		.uleb128 0x19
 4965 014f 03       		.uleb128 0x3
 4966 0150 0E       		.uleb128 0xe
 4967 0151 3A       		.uleb128 0x3a
 4968 0152 0B       		.uleb128 0xb
 4969 0153 3B       		.uleb128 0x3b
 4970 0154 0B       		.uleb128 0xb
 4971 0155 49       		.uleb128 0x49
 4972 0156 13       		.uleb128 0x13
 4973 0157 11       		.uleb128 0x11
 4974 0158 01       		.uleb128 0x1
 4975 0159 12       		.uleb128 0x12
 4976 015a 06       		.uleb128 0x6
 4977 015b 40       		.uleb128 0x40
 4978 015c 18       		.uleb128 0x18
 4979 015d 9742     		.uleb128 0x2117
 4980 015f 19       		.uleb128 0x19
 4981 0160 01       		.uleb128 0x1
 4982 0161 13       		.uleb128 0x13
 4983 0162 00       		.byte	0
 4984 0163 00       		.byte	0
 4985 0164 18       		.uleb128 0x18
 4986 0165 34       		.uleb128 0x34
 4987 0166 00       		.byte	0
 4988 0167 03       		.uleb128 0x3
 4989 0168 0E       		.uleb128 0xe
 4990 0169 3A       		.uleb128 0x3a
 4991 016a 0B       		.uleb128 0xb
 4992 016b 3B       		.uleb128 0x3b
 4993 016c 05       		.uleb128 0x5
 4994 016d 49       		.uleb128 0x49
 4995 016e 13       		.uleb128 0x13
 4996 016f 3F       		.uleb128 0x3f
 4997 0170 19       		.uleb128 0x19
 4998 0171 3C       		.uleb128 0x3c
 4999 0172 19       		.uleb128 0x19
 5000 0173 00       		.byte	0
 5001 0174 00       		.byte	0
 5002 0175 19       		.uleb128 0x19
 5003 0176 34       		.uleb128 0x34
 5004 0177 00       		.byte	0
 5005 0178 03       		.uleb128 0x3
 5006 0179 0E       		.uleb128 0xe
 5007 017a 3A       		.uleb128 0x3a
 5008 017b 0B       		.uleb128 0xb
 5009 017c 3B       		.uleb128 0x3b
 5010 017d 0B       		.uleb128 0xb
 5011 017e 49       		.uleb128 0x49
ARM GAS  C:\Users\ADMINI~1\AppData\Local\Temp\cciWlNAe.s 			page 100


 5012 017f 13       		.uleb128 0x13
 5013 0180 3F       		.uleb128 0x3f
 5014 0181 19       		.uleb128 0x19
 5015 0182 02       		.uleb128 0x2
 5016 0183 18       		.uleb128 0x18
 5017 0184 00       		.byte	0
 5018 0185 00       		.byte	0
 5019 0186 1A       		.uleb128 0x1a
 5020 0187 34       		.uleb128 0x34
 5021 0188 00       		.byte	0
 5022 0189 03       		.uleb128 0x3
 5023 018a 08       		.uleb128 0x8
 5024 018b 3A       		.uleb128 0x3a
 5025 018c 0B       		.uleb128 0xb
 5026 018d 3B       		.uleb128 0x3b
 5027 018e 0B       		.uleb128 0xb
 5028 018f 49       		.uleb128 0x49
 5029 0190 13       		.uleb128 0x13
 5030 0191 3F       		.uleb128 0x3f
 5031 0192 19       		.uleb128 0x19
 5032 0193 02       		.uleb128 0x2
 5033 0194 18       		.uleb128 0x18
 5034 0195 00       		.byte	0
 5035 0196 00       		.byte	0
 5036 0197 1B       		.uleb128 0x1b
 5037 0198 01       		.uleb128 0x1
 5038 0199 01       		.byte	0x1
 5039 019a 49       		.uleb128 0x49
 5040 019b 13       		.uleb128 0x13
 5041 019c 01       		.uleb128 0x1
 5042 019d 13       		.uleb128 0x13
 5043 019e 00       		.byte	0
 5044 019f 00       		.byte	0
 5045 01a0 1C       		.uleb128 0x1c
 5046 01a1 21       		.uleb128 0x21
 5047 01a2 00       		.byte	0
 5048 01a3 49       		.uleb128 0x49
 5049 01a4 13       		.uleb128 0x13
 5050 01a5 2F       		.uleb128 0x2f
 5051 01a6 0B       		.uleb128 0xb
 5052 01a7 00       		.byte	0
 5053 01a8 00       		.byte	0
 5054 01a9 1D       		.uleb128 0x1d
 5055 01aa 2E       		.uleb128 0x2e
 5056 01ab 01       		.byte	0x1
 5057 01ac 3F       		.uleb128 0x3f
 5058 01ad 19       		.uleb128 0x19
 5059 01ae 03       		.uleb128 0x3
 5060 01af 0E       		.uleb128 0xe
 5061 01b0 3A       		.uleb128 0x3a
 5062 01b1 0B       		.uleb128 0xb
 5063 01b2 3B       		.uleb128 0x3b
 5064 01b3 0B       		.uleb128 0xb
 5065 01b4 27       		.uleb128 0x27
 5066 01b5 19       		.uleb128 0x19
 5067 01b6 3C       		.uleb128 0x3c
 5068 01b7 19       		.uleb128 0x19
ARM GAS  C:\Users\ADMINI~1\AppData\Local\Temp\cciWlNAe.s 			page 101


 5069 01b8 01       		.uleb128 0x1
 5070 01b9 13       		.uleb128 0x13
 5071 01ba 00       		.byte	0
 5072 01bb 00       		.byte	0
 5073 01bc 1E       		.uleb128 0x1e
 5074 01bd 05       		.uleb128 0x5
 5075 01be 00       		.byte	0
 5076 01bf 49       		.uleb128 0x49
 5077 01c0 13       		.uleb128 0x13
 5078 01c1 00       		.byte	0
 5079 01c2 00       		.byte	0
 5080 01c3 1F       		.uleb128 0x1f
 5081 01c4 2E       		.uleb128 0x2e
 5082 01c5 00       		.byte	0
 5083 01c6 3F       		.uleb128 0x3f
 5084 01c7 19       		.uleb128 0x19
 5085 01c8 03       		.uleb128 0x3
 5086 01c9 0E       		.uleb128 0xe
 5087 01ca 3A       		.uleb128 0x3a
 5088 01cb 0B       		.uleb128 0xb
 5089 01cc 3B       		.uleb128 0x3b
 5090 01cd 0B       		.uleb128 0xb
 5091 01ce 27       		.uleb128 0x27
 5092 01cf 19       		.uleb128 0x19
 5093 01d0 3C       		.uleb128 0x3c
 5094 01d1 19       		.uleb128 0x19
 5095 01d2 00       		.byte	0
 5096 01d3 00       		.byte	0
 5097 01d4 20       		.uleb128 0x20
 5098 01d5 2E       		.uleb128 0x2e
 5099 01d6 00       		.byte	0
 5100 01d7 3F       		.uleb128 0x3f
 5101 01d8 19       		.uleb128 0x19
 5102 01d9 03       		.uleb128 0x3
 5103 01da 0E       		.uleb128 0xe
 5104 01db 3A       		.uleb128 0x3a
 5105 01dc 0B       		.uleb128 0xb
 5106 01dd 3B       		.uleb128 0x3b
 5107 01de 0B       		.uleb128 0xb
 5108 01df 27       		.uleb128 0x27
 5109 01e0 19       		.uleb128 0x19
 5110 01e1 49       		.uleb128 0x49
 5111 01e2 13       		.uleb128 0x13
 5112 01e3 3C       		.uleb128 0x3c
 5113 01e4 19       		.uleb128 0x19
 5114 01e5 00       		.byte	0
 5115 01e6 00       		.byte	0
 5116 01e7 21       		.uleb128 0x21
 5117 01e8 2E       		.uleb128 0x2e
 5118 01e9 01       		.byte	0x1
 5119 01ea 3F       		.uleb128 0x3f
 5120 01eb 19       		.uleb128 0x19
 5121 01ec 03       		.uleb128 0x3
 5122 01ed 0E       		.uleb128 0xe
 5123 01ee 3A       		.uleb128 0x3a
 5124 01ef 0B       		.uleb128 0xb
 5125 01f0 3B       		.uleb128 0x3b
ARM GAS  C:\Users\ADMINI~1\AppData\Local\Temp\cciWlNAe.s 			page 102


 5126 01f1 0B       		.uleb128 0xb
 5127 01f2 27       		.uleb128 0x27
 5128 01f3 19       		.uleb128 0x19
 5129 01f4 49       		.uleb128 0x49
 5130 01f5 13       		.uleb128 0x13
 5131 01f6 3C       		.uleb128 0x3c
 5132 01f7 19       		.uleb128 0x19
 5133 01f8 01       		.uleb128 0x1
 5134 01f9 13       		.uleb128 0x13
 5135 01fa 00       		.byte	0
 5136 01fb 00       		.byte	0
 5137 01fc 22       		.uleb128 0x22
 5138 01fd 18       		.uleb128 0x18
 5139 01fe 00       		.byte	0
 5140 01ff 00       		.byte	0
 5141 0200 00       		.byte	0
 5142 0201 23       		.uleb128 0x23
 5143 0202 2E       		.uleb128 0x2e
 5144 0203 01       		.byte	0x1
 5145 0204 3F       		.uleb128 0x3f
 5146 0205 19       		.uleb128 0x19
 5147 0206 03       		.uleb128 0x3
 5148 0207 0E       		.uleb128 0xe
 5149 0208 3A       		.uleb128 0x3a
 5150 0209 0B       		.uleb128 0xb
 5151 020a 3B       		.uleb128 0x3b
 5152 020b 05       		.uleb128 0x5
 5153 020c 27       		.uleb128 0x27
 5154 020d 19       		.uleb128 0x19
 5155 020e 3C       		.uleb128 0x3c
 5156 020f 19       		.uleb128 0x19
 5157 0210 01       		.uleb128 0x1
 5158 0211 13       		.uleb128 0x13
 5159 0212 00       		.byte	0
 5160 0213 00       		.byte	0
 5161 0214 24       		.uleb128 0x24
 5162 0215 2E       		.uleb128 0x2e
 5163 0216 00       		.byte	0
 5164 0217 3F       		.uleb128 0x3f
 5165 0218 19       		.uleb128 0x19
 5166 0219 03       		.uleb128 0x3
 5167 021a 0E       		.uleb128 0xe
 5168 021b 3A       		.uleb128 0x3a
 5169 021c 0B       		.uleb128 0xb
 5170 021d 3B       		.uleb128 0x3b
 5171 021e 05       		.uleb128 0x5
 5172 021f 27       		.uleb128 0x27
 5173 0220 19       		.uleb128 0x19
 5174 0221 49       		.uleb128 0x49
 5175 0222 13       		.uleb128 0x13
 5176 0223 3C       		.uleb128 0x3c
 5177 0224 19       		.uleb128 0x19
 5178 0225 00       		.byte	0
 5179 0226 00       		.byte	0
 5180 0227 25       		.uleb128 0x25
 5181 0228 2E       		.uleb128 0x2e
 5182 0229 01       		.byte	0x1
ARM GAS  C:\Users\ADMINI~1\AppData\Local\Temp\cciWlNAe.s 			page 103


 5183 022a 3F       		.uleb128 0x3f
 5184 022b 19       		.uleb128 0x19
 5185 022c 03       		.uleb128 0x3
 5186 022d 0E       		.uleb128 0xe
 5187 022e 3A       		.uleb128 0x3a
 5188 022f 0B       		.uleb128 0xb
 5189 0230 3B       		.uleb128 0x3b
 5190 0231 0B       		.uleb128 0xb
 5191 0232 3C       		.uleb128 0x3c
 5192 0233 19       		.uleb128 0x19
 5193 0234 01       		.uleb128 0x1
 5194 0235 13       		.uleb128 0x13
 5195 0236 00       		.byte	0
 5196 0237 00       		.byte	0
 5197 0238 26       		.uleb128 0x26
 5198 0239 2E       		.uleb128 0x2e
 5199 023a 01       		.byte	0x1
 5200 023b 3F       		.uleb128 0x3f
 5201 023c 19       		.uleb128 0x19
 5202 023d 03       		.uleb128 0x3
 5203 023e 0E       		.uleb128 0xe
 5204 023f 3A       		.uleb128 0x3a
 5205 0240 0B       		.uleb128 0xb
 5206 0241 3B       		.uleb128 0x3b
 5207 0242 0B       		.uleb128 0xb
 5208 0243 3C       		.uleb128 0x3c
 5209 0244 19       		.uleb128 0x19
 5210 0245 00       		.byte	0
 5211 0246 00       		.byte	0
 5212 0247 00       		.byte	0
 5213              		.section	.debug_loc,"",%progbits
 5214              	.Ldebug_loc0:
 5215              	.LLST0:
 5216 0000 00000000 		.4byte	.LVL0
 5217 0004 0C000000 		.4byte	.LVL1
 5218 0008 0100     		.2byte	0x1
 5219 000a 50       		.byte	0x50
 5220 000b 0C000000 		.4byte	.LVL1
 5221 000f 0E000000 		.4byte	.LVL2
 5222 0013 0400     		.2byte	0x4
 5223 0015 70       		.byte	0x70
 5224 0016 9978     		.sleb128 -999
 5225 0018 9F       		.byte	0x9f
 5226 0019 0E000000 		.4byte	.LVL2
 5227 001d 14000000 		.4byte	.LVL4
 5228 0021 0400     		.2byte	0x4
 5229 0023 F3       		.byte	0xf3
 5230 0024 01       		.uleb128 0x1
 5231 0025 50       		.byte	0x50
 5232 0026 9F       		.byte	0x9f
 5233 0027 14000000 		.4byte	.LVL4
 5234 002b 16000000 		.4byte	.LFE63
 5235 002f 0100     		.2byte	0x1
 5236 0031 50       		.byte	0x50
 5237 0032 00000000 		.4byte	0
 5238 0036 00000000 		.4byte	0
 5239              	.LLST1:
ARM GAS  C:\Users\ADMINI~1\AppData\Local\Temp\cciWlNAe.s 			page 104


 5240 003a 00000000 		.4byte	.LVL5
 5241 003e 0C000000 		.4byte	.LVL6
 5242 0042 0100     		.2byte	0x1
 5243 0044 50       		.byte	0x50
 5244 0045 0C000000 		.4byte	.LVL6
 5245 0049 0E000000 		.4byte	.LVL7
 5246 004d 0400     		.2byte	0x4
 5247 004f 70       		.byte	0x70
 5248 0050 9978     		.sleb128 -999
 5249 0052 9F       		.byte	0x9f
 5250 0053 0E000000 		.4byte	.LVL7
 5251 0057 14000000 		.4byte	.LVL9
 5252 005b 0400     		.2byte	0x4
 5253 005d F3       		.byte	0xf3
 5254 005e 01       		.uleb128 0x1
 5255 005f 50       		.byte	0x50
 5256 0060 9F       		.byte	0x9f
 5257 0061 14000000 		.4byte	.LVL9
 5258 0065 16000000 		.4byte	.LFE64
 5259 0069 0100     		.2byte	0x1
 5260 006b 50       		.byte	0x50
 5261 006c 00000000 		.4byte	0
 5262 0070 00000000 		.4byte	0
 5263              	.LLST2:
 5264 0074 00000000 		.4byte	.LVL10
 5265 0078 0C000000 		.4byte	.LVL11
 5266 007c 0100     		.2byte	0x1
 5267 007e 50       		.byte	0x50
 5268 007f 0C000000 		.4byte	.LVL11
 5269 0083 0E000000 		.4byte	.LVL12
 5270 0087 0400     		.2byte	0x4
 5271 0089 70       		.byte	0x70
 5272 008a 9978     		.sleb128 -999
 5273 008c 9F       		.byte	0x9f
 5274 008d 0E000000 		.4byte	.LVL12
 5275 0091 14000000 		.4byte	.LVL14
 5276 0095 0400     		.2byte	0x4
 5277 0097 F3       		.byte	0xf3
 5278 0098 01       		.uleb128 0x1
 5279 0099 50       		.byte	0x50
 5280 009a 9F       		.byte	0x9f
 5281 009b 14000000 		.4byte	.LVL14
 5282 009f 16000000 		.4byte	.LFE65
 5283 00a3 0100     		.2byte	0x1
 5284 00a5 50       		.byte	0x50
 5285 00a6 00000000 		.4byte	0
 5286 00aa 00000000 		.4byte	0
 5287              	.LLST3:
 5288 00ae 00000000 		.4byte	.LVL15
 5289 00b2 0C000000 		.4byte	.LVL16
 5290 00b6 0100     		.2byte	0x1
 5291 00b8 50       		.byte	0x50
 5292 00b9 0C000000 		.4byte	.LVL16
 5293 00bd 0E000000 		.4byte	.LVL17
 5294 00c1 0400     		.2byte	0x4
 5295 00c3 70       		.byte	0x70
 5296 00c4 9978     		.sleb128 -999
ARM GAS  C:\Users\ADMINI~1\AppData\Local\Temp\cciWlNAe.s 			page 105


 5297 00c6 9F       		.byte	0x9f
 5298 00c7 0E000000 		.4byte	.LVL17
 5299 00cb 14000000 		.4byte	.LVL19
 5300 00cf 0400     		.2byte	0x4
 5301 00d1 F3       		.byte	0xf3
 5302 00d2 01       		.uleb128 0x1
 5303 00d3 50       		.byte	0x50
 5304 00d4 9F       		.byte	0x9f
 5305 00d5 14000000 		.4byte	.LVL19
 5306 00d9 16000000 		.4byte	.LFE66
 5307 00dd 0100     		.2byte	0x1
 5308 00df 50       		.byte	0x50
 5309 00e0 00000000 		.4byte	0
 5310 00e4 00000000 		.4byte	0
 5311              	.LLST4:
 5312 00e8 00000000 		.4byte	.LVL24
 5313 00ec 0B000000 		.4byte	.LVL25-1
 5314 00f0 0100     		.2byte	0x1
 5315 00f2 50       		.byte	0x50
 5316 00f3 0B000000 		.4byte	.LVL25-1
 5317 00f7 20000000 		.4byte	.LFE67
 5318 00fb 0400     		.2byte	0x4
 5319 00fd F3       		.byte	0xf3
 5320 00fe 01       		.uleb128 0x1
 5321 00ff 50       		.byte	0x50
 5322 0100 9F       		.byte	0x9f
 5323 0101 00000000 		.4byte	0
 5324 0105 00000000 		.4byte	0
 5325              	.LLST5:
 5326 0109 00000000 		.4byte	.LVL24
 5327 010d 0B000000 		.4byte	.LVL25-1
 5328 0111 0100     		.2byte	0x1
 5329 0113 51       		.byte	0x51
 5330 0114 0B000000 		.4byte	.LVL25-1
 5331 0118 20000000 		.4byte	.LFE67
 5332 011c 0100     		.2byte	0x1
 5333 011e 56       		.byte	0x56
 5334 011f 00000000 		.4byte	0
 5335 0123 00000000 		.4byte	0
 5336              	.LLST6:
 5337 0127 00000000 		.4byte	.LVL24
 5338 012b 0B000000 		.4byte	.LVL25-1
 5339 012f 0100     		.2byte	0x1
 5340 0131 52       		.byte	0x52
 5341 0132 0B000000 		.4byte	.LVL25-1
 5342 0136 20000000 		.4byte	.LFE67
 5343 013a 0100     		.2byte	0x1
 5344 013c 55       		.byte	0x55
 5345 013d 00000000 		.4byte	0
 5346 0141 00000000 		.4byte	0
 5347              	.LLST7:
 5348 0145 00000000 		.4byte	.LVL24
 5349 0149 0B000000 		.4byte	.LVL25-1
 5350 014d 0100     		.2byte	0x1
 5351 014f 53       		.byte	0x53
 5352 0150 0B000000 		.4byte	.LVL25-1
 5353 0154 20000000 		.4byte	.LFE67
ARM GAS  C:\Users\ADMINI~1\AppData\Local\Temp\cciWlNAe.s 			page 106


 5354 0158 0100     		.2byte	0x1
 5355 015a 54       		.byte	0x54
 5356 015b 00000000 		.4byte	0
 5357 015f 00000000 		.4byte	0
 5358              	.LLST8:
 5359 0163 00000000 		.4byte	.LVL45
 5360 0167 50000000 		.4byte	.LVL52
 5361 016b 0100     		.2byte	0x1
 5362 016d 50       		.byte	0x50
 5363 016e 50000000 		.4byte	.LVL52
 5364 0172 12010000 		.4byte	.LVL77
 5365 0176 0100     		.2byte	0x1
 5366 0178 54       		.byte	0x54
 5367 0179 12010000 		.4byte	.LVL77
 5368 017d 44010000 		.4byte	.LFE70
 5369 0181 0400     		.2byte	0x4
 5370 0183 F3       		.byte	0xf3
 5371 0184 01       		.uleb128 0x1
 5372 0185 50       		.byte	0x50
 5373 0186 9F       		.byte	0x9f
 5374 0187 00000000 		.4byte	0
 5375 018b 00000000 		.4byte	0
 5376              	.LLST9:
 5377 018f 00000000 		.4byte	.LVL45
 5378 0193 08000000 		.4byte	.LVL47
 5379 0197 0100     		.2byte	0x1
 5380 0199 51       		.byte	0x51
 5381 019a 08000000 		.4byte	.LVL47
 5382 019e 44010000 		.4byte	.LFE70
 5383 01a2 0400     		.2byte	0x4
 5384 01a4 F3       		.byte	0xf3
 5385 01a5 01       		.uleb128 0x1
 5386 01a6 51       		.byte	0x51
 5387 01a7 9F       		.byte	0x9f
 5388 01a8 00000000 		.4byte	0
 5389 01ac 00000000 		.4byte	0
 5390              	.LLST10:
 5391 01b0 02000000 		.4byte	.LVL46
 5392 01b4 08000000 		.4byte	.LVL47
 5393 01b8 0200     		.2byte	0x2
 5394 01ba 30       		.byte	0x30
 5395 01bb 9F       		.byte	0x9f
 5396 01bc 08000000 		.4byte	.LVL47
 5397 01c0 14000000 		.4byte	.LVL50
 5398 01c4 0100     		.2byte	0x1
 5399 01c6 52       		.byte	0x52
 5400 01c7 00000000 		.4byte	0
 5401 01cb 00000000 		.4byte	0
 5402              	.LLST11:
 5403 01cf 02000000 		.4byte	.LVL46
 5404 01d3 08000000 		.4byte	.LVL47
 5405 01d7 0200     		.2byte	0x2
 5406 01d9 30       		.byte	0x30
 5407 01da 9F       		.byte	0x9f
 5408 01db 08000000 		.4byte	.LVL47
 5409 01df 16000000 		.4byte	.LVL51
 5410 01e3 0100     		.2byte	0x1
ARM GAS  C:\Users\ADMINI~1\AppData\Local\Temp\cciWlNAe.s 			page 107


 5411 01e5 53       		.byte	0x53
 5412 01e6 00000000 		.4byte	0
 5413 01ea 00000000 		.4byte	0
 5414              	.LLST12:
 5415 01ee 00000000 		.4byte	.LVL78
 5416 01f2 5E000000 		.4byte	.LVL80
 5417 01f6 0100     		.2byte	0x1
 5418 01f8 50       		.byte	0x50
 5419 01f9 5E000000 		.4byte	.LVL80
 5420 01fd 00010000 		.4byte	.LVL99
 5421 0201 0100     		.2byte	0x1
 5422 0203 54       		.byte	0x54
 5423 0204 00010000 		.4byte	.LVL99
 5424 0208 02010000 		.4byte	.LVL100
 5425 020c 0100     		.2byte	0x1
 5426 020e 50       		.byte	0x50
 5427 020f 02010000 		.4byte	.LVL100
 5428 0213 A4010000 		.4byte	.LVL119
 5429 0217 0100     		.2byte	0x1
 5430 0219 54       		.byte	0x54
 5431 021a A4010000 		.4byte	.LVL119
 5432 021e A6010000 		.4byte	.LVL120
 5433 0222 0100     		.2byte	0x1
 5434 0224 50       		.byte	0x50
 5435 0225 A6010000 		.4byte	.LVL120
 5436 0229 48020000 		.4byte	.LVL139
 5437 022d 0100     		.2byte	0x1
 5438 022f 54       		.byte	0x54
 5439 0230 48020000 		.4byte	.LVL139
 5440 0234 6E020000 		.4byte	.LVL140
 5441 0238 0100     		.2byte	0x1
 5442 023a 50       		.byte	0x50
 5443 023b 6E020000 		.4byte	.LVL140
 5444 023f 8C020000 		.4byte	.LVL144
 5445 0243 0100     		.2byte	0x1
 5446 0245 54       		.byte	0x54
 5447 0246 8C020000 		.4byte	.LVL144
 5448 024a BE020000 		.4byte	.LVL145
 5449 024e 0100     		.2byte	0x1
 5450 0250 50       		.byte	0x50
 5451 0251 BE020000 		.4byte	.LVL145
 5452 0255 C0020000 		.4byte	.LVL146
 5453 0259 0100     		.2byte	0x1
 5454 025b 54       		.byte	0x54
 5455 025c C0020000 		.4byte	.LVL146
 5456 0260 C2020000 		.4byte	.LVL147
 5457 0264 0100     		.2byte	0x1
 5458 0266 50       		.byte	0x50
 5459 0267 C2020000 		.4byte	.LVL147
 5460 026b C4020000 		.4byte	.LVL148
 5461 026f 0400     		.2byte	0x4
 5462 0271 F3       		.byte	0xf3
 5463 0272 01       		.uleb128 0x1
 5464 0273 50       		.byte	0x50
 5465 0274 9F       		.byte	0x9f
 5466 0275 C4020000 		.4byte	.LVL148
 5467 0279 C6020000 		.4byte	.LVL149
ARM GAS  C:\Users\ADMINI~1\AppData\Local\Temp\cciWlNAe.s 			page 108


 5468 027d 0100     		.2byte	0x1
 5469 027f 50       		.byte	0x50
 5470 0280 C6020000 		.4byte	.LVL149
 5471 0284 C8020000 		.4byte	.LVL150
 5472 0288 0400     		.2byte	0x4
 5473 028a F3       		.byte	0xf3
 5474 028b 01       		.uleb128 0x1
 5475 028c 50       		.byte	0x50
 5476 028d 9F       		.byte	0x9f
 5477 028e C8020000 		.4byte	.LVL150
 5478 0292 CA020000 		.4byte	.LVL151
 5479 0296 0100     		.2byte	0x1
 5480 0298 50       		.byte	0x50
 5481 0299 CA020000 		.4byte	.LVL151
 5482 029d CC020000 		.4byte	.LVL152
 5483 02a1 0400     		.2byte	0x4
 5484 02a3 F3       		.byte	0xf3
 5485 02a4 01       		.uleb128 0x1
 5486 02a5 50       		.byte	0x50
 5487 02a6 9F       		.byte	0x9f
 5488 02a7 CC020000 		.4byte	.LVL152
 5489 02ab CE020000 		.4byte	.LVL153
 5490 02af 0100     		.2byte	0x1
 5491 02b1 50       		.byte	0x50
 5492 02b2 CE020000 		.4byte	.LVL153
 5493 02b6 D0020000 		.4byte	.LVL154
 5494 02ba 0100     		.2byte	0x1
 5495 02bc 54       		.byte	0x54
 5496 02bd D0020000 		.4byte	.LVL154
 5497 02c1 24030000 		.4byte	.LFE72
 5498 02c5 0400     		.2byte	0x4
 5499 02c7 F3       		.byte	0xf3
 5500 02c8 01       		.uleb128 0x1
 5501 02c9 50       		.byte	0x50
 5502 02ca 9F       		.byte	0x9f
 5503 02cb 00000000 		.4byte	0
 5504 02cf 00000000 		.4byte	0
 5505              	.LLST13:
 5506 02d3 00000000 		.4byte	.LVL78
 5507 02d7 1C000000 		.4byte	.LVL79
 5508 02db 0100     		.2byte	0x1
 5509 02dd 51       		.byte	0x51
 5510 02de 1C000000 		.4byte	.LVL79
 5511 02e2 C0020000 		.4byte	.LVL146
 5512 02e6 0400     		.2byte	0x4
 5513 02e8 F3       		.byte	0xf3
 5514 02e9 01       		.uleb128 0x1
 5515 02ea 51       		.byte	0x51
 5516 02eb 9F       		.byte	0x9f
 5517 02ec C0020000 		.4byte	.LVL146
 5518 02f0 C8020000 		.4byte	.LVL150
 5519 02f4 0100     		.2byte	0x1
 5520 02f6 51       		.byte	0x51
 5521 02f7 C8020000 		.4byte	.LVL150
 5522 02fb 24030000 		.4byte	.LFE72
 5523 02ff 0400     		.2byte	0x4
 5524 0301 F3       		.byte	0xf3
ARM GAS  C:\Users\ADMINI~1\AppData\Local\Temp\cciWlNAe.s 			page 109


 5525 0302 01       		.uleb128 0x1
 5526 0303 51       		.byte	0x51
 5527 0304 9F       		.byte	0x9f
 5528 0305 00000000 		.4byte	0
 5529 0309 00000000 		.4byte	0
 5530              	.LLST14:
 5531 030d 00000000 		.4byte	.LVL157
 5532 0311 06000000 		.4byte	.LVL158
 5533 0315 0100     		.2byte	0x1
 5534 0317 50       		.byte	0x50
 5535 0318 06000000 		.4byte	.LVL158
 5536 031c 14000000 		.4byte	.LFE73
 5537 0320 0100     		.2byte	0x1
 5538 0322 54       		.byte	0x54
 5539 0323 00000000 		.4byte	0
 5540 0327 00000000 		.4byte	0
 5541              	.LLST15:
 5542 032b 00000000 		.4byte	.LVL157
 5543 032f 08000000 		.4byte	.LVL159
 5544 0333 0100     		.2byte	0x1
 5545 0335 51       		.byte	0x51
 5546 0336 08000000 		.4byte	.LVL159
 5547 033a 14000000 		.4byte	.LFE73
 5548 033e 0400     		.2byte	0x4
 5549 0340 F3       		.byte	0xf3
 5550 0341 01       		.uleb128 0x1
 5551 0342 51       		.byte	0x51
 5552 0343 9F       		.byte	0x9f
 5553 0344 00000000 		.4byte	0
 5554 0348 00000000 		.4byte	0
 5555              	.LLST16:
 5556 034c 00000000 		.4byte	.LVL157
 5557 0350 0B000000 		.4byte	.LVL160-1
 5558 0354 0100     		.2byte	0x1
 5559 0356 52       		.byte	0x52
 5560 0357 0B000000 		.4byte	.LVL160-1
 5561 035b 14000000 		.4byte	.LFE73
 5562 035f 0400     		.2byte	0x4
 5563 0361 F3       		.byte	0xf3
 5564 0362 01       		.uleb128 0x1
 5565 0363 52       		.byte	0x52
 5566 0364 9F       		.byte	0x9f
 5567 0365 00000000 		.4byte	0
 5568 0369 00000000 		.4byte	0
 5569              	.LLST17:
 5570 036d 00000000 		.4byte	.LVL162
 5571 0371 0E000000 		.4byte	.LVL163
 5572 0375 0100     		.2byte	0x1
 5573 0377 50       		.byte	0x50
 5574 0378 0E000000 		.4byte	.LVL163
 5575 037c 98000000 		.4byte	.LVL184
 5576 0380 0100     		.2byte	0x1
 5577 0382 57       		.byte	0x57
 5578 0383 98000000 		.4byte	.LVL184
 5579 0387 A8000000 		.4byte	.LFE74
 5580 038b 0400     		.2byte	0x4
 5581 038d F3       		.byte	0xf3
ARM GAS  C:\Users\ADMINI~1\AppData\Local\Temp\cciWlNAe.s 			page 110


 5582 038e 01       		.uleb128 0x1
 5583 038f 50       		.byte	0x50
 5584 0390 9F       		.byte	0x9f
 5585 0391 00000000 		.4byte	0
 5586 0395 00000000 		.4byte	0
 5587              	.LLST18:
 5588 0399 00000000 		.4byte	.LVL162
 5589 039d 10000000 		.4byte	.LVL164
 5590 03a1 0100     		.2byte	0x1
 5591 03a3 51       		.byte	0x51
 5592 03a4 10000000 		.4byte	.LVL164
 5593 03a8 13000000 		.4byte	.LVL165-1
 5594 03ac 0100     		.2byte	0x1
 5595 03ae 50       		.byte	0x50
 5596 03af 13000000 		.4byte	.LVL165-1
 5597 03b3 2A000000 		.4byte	.LVL168
 5598 03b7 0100     		.2byte	0x1
 5599 03b9 54       		.byte	0x54
 5600 03ba 2A000000 		.4byte	.LVL168
 5601 03be A8000000 		.4byte	.LFE74
 5602 03c2 0600     		.2byte	0x6
 5603 03c4 F3       		.byte	0xf3
 5604 03c5 03       		.uleb128 0x3
 5605 03c6 F5       		.byte	0xf5
 5606 03c7 01       		.uleb128 0x1
 5607 03c8 25       		.uleb128 0x25
 5608 03c9 9F       		.byte	0x9f
 5609 03ca 00000000 		.4byte	0
 5610 03ce 00000000 		.4byte	0
 5611              	.LLST19:
 5612 03d2 1C000000 		.4byte	.LVL166
 5613 03d6 98000000 		.4byte	.LVL184
 5614 03da 0100     		.2byte	0x1
 5615 03dc 55       		.byte	0x55
 5616 03dd 00000000 		.4byte	0
 5617 03e1 00000000 		.4byte	0
 5618              	.LLST20:
 5619 03e5 2A000000 		.4byte	.LVL168
 5620 03e9 98000000 		.4byte	.LVL184
 5621 03ed 0100     		.2byte	0x1
 5622 03ef 54       		.byte	0x54
 5623 03f0 00000000 		.4byte	0
 5624 03f4 00000000 		.4byte	0
 5625              	.LLST21:
 5626 03f8 32000000 		.4byte	.LVL170
 5627 03fc 35000000 		.4byte	.LVL171-1
 5628 0400 0100     		.2byte	0x1
 5629 0402 50       		.byte	0x50
 5630 0403 35000000 		.4byte	.LVL171-1
 5631 0407 98000000 		.4byte	.LVL184
 5632 040b 0100     		.2byte	0x1
 5633 040d 56       		.byte	0x56
 5634 040e 00000000 		.4byte	0
 5635 0412 00000000 		.4byte	0
 5636              	.LLST22:
 5637 0416 4E000000 		.4byte	.LVL175
 5638 041a 5E000000 		.4byte	.LVL176
ARM GAS  C:\Users\ADMINI~1\AppData\Local\Temp\cciWlNAe.s 			page 111


 5639 041e 0100     		.2byte	0x1
 5640 0420 50       		.byte	0x50
 5641 0421 5E000000 		.4byte	.LVL176
 5642 0425 65000000 		.4byte	.LVL177-1
 5643 0429 0200     		.2byte	0x2
 5644 042b 7D       		.byte	0x7d
 5645 042c 00       		.sleb128 0
 5646 042d 68000000 		.4byte	.LVL178
 5647 0431 78000000 		.4byte	.LVL179
 5648 0435 0100     		.2byte	0x1
 5649 0437 50       		.byte	0x50
 5650 0438 78000000 		.4byte	.LVL179
 5651 043c 7F000000 		.4byte	.LVL180-1
 5652 0440 0200     		.2byte	0x2
 5653 0442 7D       		.byte	0x7d
 5654 0443 00       		.sleb128 0
 5655 0444 82000000 		.4byte	.LVL181
 5656 0448 8C000000 		.4byte	.LVL182
 5657 044c 0100     		.2byte	0x1
 5658 044e 50       		.byte	0x50
 5659 044f 00000000 		.4byte	0
 5660 0453 00000000 		.4byte	0
 5661              	.LLST23:
 5662 0457 00000000 		.4byte	.LVL188
 5663 045b 0B000000 		.4byte	.LVL189-1
 5664 045f 0100     		.2byte	0x1
 5665 0461 50       		.byte	0x50
 5666 0462 0B000000 		.4byte	.LVL189-1
 5667 0466 44000000 		.4byte	.LVL194
 5668 046a 0100     		.2byte	0x1
 5669 046c 54       		.byte	0x54
 5670 046d 44000000 		.4byte	.LVL194
 5671 0471 88000000 		.4byte	.LFE77
 5672 0475 0600     		.2byte	0x6
 5673 0477 F3       		.byte	0xf3
 5674 0478 03       		.uleb128 0x3
 5675 0479 F5       		.byte	0xf5
 5676 047a 00       		.uleb128 0
 5677 047b 25       		.uleb128 0x25
 5678 047c 9F       		.byte	0x9f
 5679 047d 00000000 		.4byte	0
 5680 0481 00000000 		.4byte	0
 5681              		.section	.debug_aranges,"",%progbits
 5682 0000 AC000000 		.4byte	0xac
 5683 0004 0200     		.2byte	0x2
 5684 0006 00000000 		.4byte	.Ldebug_info0
 5685 000a 04       		.byte	0x4
 5686 000b 00       		.byte	0
 5687 000c 0000     		.2byte	0
 5688 000e 0000     		.2byte	0
 5689 0010 00000000 		.4byte	.LFB63
 5690 0014 16000000 		.4byte	.LFE63-.LFB63
 5691 0018 00000000 		.4byte	.LFB64
 5692 001c 16000000 		.4byte	.LFE64-.LFB64
 5693 0020 00000000 		.4byte	.LFB65
 5694 0024 16000000 		.4byte	.LFE65-.LFB65
 5695 0028 00000000 		.4byte	.LFB66
ARM GAS  C:\Users\ADMINI~1\AppData\Local\Temp\cciWlNAe.s 			page 112


 5696 002c 16000000 		.4byte	.LFE66-.LFB66
 5697 0030 00000000 		.4byte	.LFB75
 5698 0034 AC000000 		.4byte	.LFE75-.LFB75
 5699 0038 00000000 		.4byte	.LFB67
 5700 003c 20000000 		.4byte	.LFE67-.LFB67
 5701 0040 00000000 		.4byte	.LFB68
 5702 0044 24000000 		.4byte	.LFE68-.LFB68
 5703 0048 00000000 		.4byte	.LFB69
 5704 004c 4C000000 		.4byte	.LFE69-.LFB69
 5705 0050 00000000 		.4byte	.LFB70
 5706 0054 44010000 		.4byte	.LFE70-.LFB70
 5707 0058 00000000 		.4byte	.LFB71
 5708 005c 70000000 		.4byte	.LFE71-.LFB71
 5709 0060 00000000 		.4byte	.LFB72
 5710 0064 24030000 		.4byte	.LFE72-.LFB72
 5711 0068 00000000 		.4byte	.LFB79
 5712 006c 9C000000 		.4byte	.LFE79-.LFB79
 5713 0070 00000000 		.4byte	.LFB73
 5714 0074 14000000 		.4byte	.LFE73-.LFB73
 5715 0078 00000000 		.4byte	.LFB74
 5716 007c A8000000 		.4byte	.LFE74-.LFB74
 5717 0080 00000000 		.4byte	.LFB76
 5718 0084 80000000 		.4byte	.LFE76-.LFB76
 5719 0088 00000000 		.4byte	.LFB77
 5720 008c 88000000 		.4byte	.LFE77-.LFB77
 5721 0090 00000000 		.4byte	.LFB78
 5722 0094 4C000000 		.4byte	.LFE78-.LFB78
 5723 0098 00000000 		.4byte	.LFB80
 5724 009c 94020000 		.4byte	.LFE80-.LFB80
 5725 00a0 00000000 		.4byte	.LFB81
 5726 00a4 C0000000 		.4byte	.LFE81-.LFB81
 5727 00a8 00000000 		.4byte	0
 5728 00ac 00000000 		.4byte	0
 5729              		.section	.debug_ranges,"",%progbits
 5730              	.Ldebug_ranges0:
 5731 0000 00000000 		.4byte	.LFB63
 5732 0004 16000000 		.4byte	.LFE63
 5733 0008 00000000 		.4byte	.LFB64
 5734 000c 16000000 		.4byte	.LFE64
 5735 0010 00000000 		.4byte	.LFB65
 5736 0014 16000000 		.4byte	.LFE65
 5737 0018 00000000 		.4byte	.LFB66
 5738 001c 16000000 		.4byte	.LFE66
 5739 0020 00000000 		.4byte	.LFB75
 5740 0024 AC000000 		.4byte	.LFE75
 5741 0028 00000000 		.4byte	.LFB67
 5742 002c 20000000 		.4byte	.LFE67
 5743 0030 00000000 		.4byte	.LFB68
 5744 0034 24000000 		.4byte	.LFE68
 5745 0038 00000000 		.4byte	.LFB69
 5746 003c 4C000000 		.4byte	.LFE69
 5747 0040 00000000 		.4byte	.LFB70
 5748 0044 44010000 		.4byte	.LFE70
 5749 0048 00000000 		.4byte	.LFB71
 5750 004c 70000000 		.4byte	.LFE71
 5751 0050 00000000 		.4byte	.LFB72
 5752 0054 24030000 		.4byte	.LFE72
ARM GAS  C:\Users\ADMINI~1\AppData\Local\Temp\cciWlNAe.s 			page 113


 5753 0058 00000000 		.4byte	.LFB79
 5754 005c 9C000000 		.4byte	.LFE79
 5755 0060 00000000 		.4byte	.LFB73
 5756 0064 14000000 		.4byte	.LFE73
 5757 0068 00000000 		.4byte	.LFB74
 5758 006c A8000000 		.4byte	.LFE74
 5759 0070 00000000 		.4byte	.LFB76
 5760 0074 80000000 		.4byte	.LFE76
 5761 0078 00000000 		.4byte	.LFB77
 5762 007c 88000000 		.4byte	.LFE77
 5763 0080 00000000 		.4byte	.LFB78
 5764 0084 4C000000 		.4byte	.LFE78
 5765 0088 00000000 		.4byte	.LFB80
 5766 008c 94020000 		.4byte	.LFE80
 5767 0090 00000000 		.4byte	.LFB81
 5768 0094 C0000000 		.4byte	.LFE81
 5769 0098 00000000 		.4byte	0
 5770 009c 00000000 		.4byte	0
 5771              		.section	.debug_line,"",%progbits
 5772              	.Ldebug_line0:
 5773 0000 D5050000 		.section	.debug_str,"MS",%progbits,1
 5773      02002B02 
 5773      00000201 
 5773      FB0E0D00 
 5773      01010101 
 5774              	.LASF96:
 5775 0000 43794465 		.ascii	"CyDelay\000"
 5775      6C617900 
 5776              	.LASF118:
 5777 0008 4465636F 		.ascii	"Decode_JY901_Data\000"
 5777      64655F4A 
 5777      59393031 
 5777      5F446174 
 5777      6100
 5778              	.LASF81:
 5779 001a 746D7032 		.ascii	"tmp2\000"
 5779      00
 5780              	.LASF34:
 5781 001f 4C43445F 		.ascii	"LCD_Disp\000"
 5781      44697370 
 5781      00
 5782              	.LASF89:
 5783 0028 746D7062 		.ascii	"tmpbuf\000"
 5783      756600
 5784              	.LASF65:
 5785 002f 4D61675A 		.ascii	"MagZ\000"
 5785      00
 5786              	.LASF50:
 5787 0034 70697463 		.ascii	"pitch_angle_offset\000"
 5787      685F616E 
 5787      676C655F 
 5787      6F666673 
 5787      657400
 5788              	.LASF116:
 5789 0047 443A5C73 		.ascii	"D:\\sjh\\10.11\\UAV_Control\\UAV_Control.cydsn\000"
 5789      6A685C31 
 5789      302E3131 
ARM GAS  C:\Users\ADMINI~1\AppData\Local\Temp\cciWlNAe.s 			page 114


 5789      5C554156 
 5789      5F436F6E 
 5790              	.LASF90:
 5791 0072 50574D5F 		.ascii	"PWM_1_WriteCompare1\000"
 5791      315F5772 
 5791      69746543 
 5791      6F6D7061 
 5791      72653100 
 5792              	.LASF91:
 5793 0086 50574D5F 		.ascii	"PWM_1_WriteCompare2\000"
 5793      315F5772 
 5793      69746543 
 5793      6F6D7061 
 5793      72653200 
 5794              	.LASF9:
 5795 009a 756E7369 		.ascii	"unsigned int\000"
 5795      676E6564 
 5795      20696E74 
 5795      00
 5796              	.LASF94:
 5797 00a7 50574D5F 		.ascii	"PWM_1_Start\000"
 5797      315F5374 
 5797      61727400 
 5798              	.LASF36:
 5799 00b3 73796D62 		.ascii	"symbol\000"
 5799      6F6C00
 5800              	.LASF10:
 5801 00ba 5F5F696E 		.ascii	"__int32_t\000"
 5801      7433325F 
 5801      7400
 5802              	.LASF61:
 5803 00c4 526F6C6C 		.ascii	"Roll\000"
 5803      00
 5804              	.LASF41:
 5805 00c9 4C43445F 		.ascii	"LCD_DisplayAngle\000"
 5805      44697370 
 5805      6C617941 
 5805      6E676C65 
 5805      00
 5806              	.LASF18:
 5807 00da 72656738 		.ascii	"reg8\000"
 5807      00
 5808              	.LASF79:
 5809 00df 4A593930 		.ascii	"JY901RxBuf\000"
 5809      31527842 
 5809      756600
 5810              	.LASF112:
 5811 00ea 55415254 		.ascii	"UART_JY901_Init\000"
 5811      5F4A5939 
 5811      30315F49 
 5811      6E697400 
 5812              	.LASF47:
 5813 00fa 42545F50 		.ascii	"BT_Pitch\000"
 5813      69746368 
 5813      00
 5814              	.LASF24:
 5815 0103 73706565 		.ascii	"speed\000"
ARM GAS  C:\Users\ADMINI~1\AppData\Local\Temp\cciWlNAe.s 			page 115


 5815      6400
 5816              	.LASF39:
 5817 0109 426C7565 		.ascii	"Bluetooth_RX_Interrupt_Handler\000"
 5817      746F6F74 
 5817      685F5258 
 5817      5F496E74 
 5817      65727275 
 5818              	.LASF67:
 5819 0128 48656967 		.ascii	"Height\000"
 5819      687400
 5820              	.LASF0:
 5821 012f 666C6F61 		.ascii	"float\000"
 5821      7400
 5822              	.LASF101:
 5823 0135 55534255 		.ascii	"USBUART_1_CDCIsReady\000"
 5823      4152545F 
 5823      315F4344 
 5823      43497352 
 5823      65616479 
 5824              	.LASF8:
 5825 014a 6C6F6E67 		.ascii	"long long unsigned int\000"
 5825      206C6F6E 
 5825      6720756E 
 5825      7369676E 
 5825      65642069 
 5826              	.LASF108:
 5827 0161 55534255 		.ascii	"USBUART_1_CDC_Init\000"
 5827      4152545F 
 5827      315F4344 
 5827      435F496E 
 5827      697400
 5828              	.LASF62:
 5829 0174 50697463 		.ascii	"Pitch\000"
 5829      6800
 5830              	.LASF85:
 5831 017a 4C434442 		.ascii	"LCDBuffer\000"
 5831      75666665 
 5831      7200
 5832              	.LASF121:
 5833 0184 436F6E74 		.ascii	"Control_Main\000"
 5833      726F6C5F 
 5833      4D61696E 
 5833      00
 5834              	.LASF83:
 5835 0191 666C6167 		.ascii	"flag_rec\000"
 5835      5F726563 
 5835      00
 5836              	.LASF49:
 5837 019a 726F6C6C 		.ascii	"roll_angle_offset\000"
 5837      5F616E67 
 5837      6C655F6F 
 5837      66667365 
 5837      7400
 5838              	.LASF63:
 5839 01ac 4D616758 		.ascii	"MagX\000"
 5839      00
 5840              	.LASF64:
ARM GAS  C:\Users\ADMINI~1\AppData\Local\Temp\cciWlNAe.s 			page 116


 5841 01b1 4D616759 		.ascii	"MagY\000"
 5841      00
 5842              	.LASF38:
 5843 01b6 666C6F61 		.ascii	"float_2part\000"
 5843      745F3270 
 5843      61727400 
 5844              	.LASF107:
 5845 01c2 55534255 		.ascii	"USBUART_1_GetConfiguration\000"
 5845      4152545F 
 5845      315F4765 
 5845      74436F6E 
 5845      66696775 
 5846              	.LASF51:
 5847 01dd 44657369 		.ascii	"Desire_angle_pitch\000"
 5847      72655F61 
 5847      6E676C65 
 5847      5F706974 
 5847      636800
 5848              	.LASF88:
 5849 01f0 44697370 		.ascii	"DisplayBuffer\000"
 5849      6C617942 
 5849      75666665 
 5849      7200
 5850              	.LASF117:
 5851 01fe 496E6974 		.ascii	"Init_JY901_Data\000"
 5851      5F4A5939 
 5851      30315F44 
 5851      61746100 
 5852              	.LASF23:
 5853 020e 5365745F 		.ascii	"Set_Motor_2_Speed\000"
 5853      4D6F746F 
 5853      725F325F 
 5853      53706565 
 5853      6400
 5854              	.LASF17:
 5855 0220 63686172 		.ascii	"char\000"
 5855      00
 5856              	.LASF80:
 5857 0225 4A593930 		.ascii	"JY901RxBufLen\000"
 5857      31527842 
 5857      75664C65 
 5857      6E00
 5858              	.LASF32:
 5859 0233 6275666C 		.ascii	"buflen\000"
 5859      656E00
 5860              	.LASF13:
 5861 023a 75696E74 		.ascii	"uint16\000"
 5861      313600
 5862              	.LASF68:
 5863 0241 4D6F746F 		.ascii	"Motor_v_1\000"
 5863      725F765F 
 5863      3100
 5864              	.LASF69:
 5865 024b 4D6F746F 		.ascii	"Motor_v_2\000"
 5865      725F765F 
 5865      3200
 5866              	.LASF70:
ARM GAS  C:\Users\ADMINI~1\AppData\Local\Temp\cciWlNAe.s 			page 117


 5867 0255 4D6F746F 		.ascii	"Motor_v_3\000"
 5867      725F765F 
 5867      3300
 5868              	.LASF71:
 5869 025f 4D6F746F 		.ascii	"Motor_v_4\000"
 5869      725F765F 
 5869      3400
 5870              	.LASF16:
 5871 0269 63686172 		.ascii	"char8\000"
 5871      3800
 5872              	.LASF66:
 5873 026f 50726573 		.ascii	"Pressure\000"
 5873      73757265 
 5873      00
 5874              	.LASF87:
 5875 0278 665F746D 		.ascii	"f_tmp\000"
 5875      7000
 5876              	.LASF102:
 5877 027e 55534255 		.ascii	"USBUART_1_PutString\000"
 5877      4152545F 
 5877      315F5075 
 5877      74537472 
 5877      696E6700 
 5878              	.LASF7:
 5879 0292 6C6F6E67 		.ascii	"long long int\000"
 5879      206C6F6E 
 5879      6720696E 
 5879      7400
 5880              	.LASF84:
 5881 02a0 6465636F 		.ascii	"decode_success\000"
 5881      64655F73 
 5881      75636365 
 5881      737300
 5882              	.LASF104:
 5883 02af 6973725F 		.ascii	"isr_Timer_1_StartEx\000"
 5883      54696D65 
 5883      725F315F 
 5883      53746172 
 5883      74457800 
 5884              	.LASF45:
 5885 02c3 42545F54 		.ascii	"BT_Throttle\000"
 5885      68726F74 
 5885      746C6500 
 5886              	.LASF26:
 5887 02cf 5365745F 		.ascii	"Set_Motor_4_Speed\000"
 5887      4D6F746F 
 5887      725F345F 
 5887      53706565 
 5887      6400
 5888              	.LASF19:
 5889 02e1 63796973 		.ascii	"cyisraddress\000"
 5889      72616464 
 5889      72657373 
 5889      00
 5890              	.LASF109:
 5891 02ee 55415254 		.ascii	"UART_Bluetooth_Start\000"
 5891      5F426C75 
ARM GAS  C:\Users\ADMINI~1\AppData\Local\Temp\cciWlNAe.s 			page 118


 5891      65746F6F 
 5891      74685F53 
 5891      74617274 
 5892              	.LASF14:
 5893 0303 75696E74 		.ascii	"uint32\000"
 5893      333200
 5894              	.LASF110:
 5895 030a 55415254 		.ascii	"UART_Bluetooth_Init\000"
 5895      5F426C75 
 5895      65746F6F 
 5895      74685F49 
 5895      6E697400 
 5896              	.LASF77:
 5897 031e 42545278 		.ascii	"BTRxBufLen\000"
 5897      4275664C 
 5897      656E00
 5898              	.LASF31:
 5899 0329 50726F63 		.ascii	"Process_Bluetooth_Message\000"
 5899      6573735F 
 5899      426C7565 
 5899      746F6F74 
 5899      685F4D65 
 5900              	.LASF82:
 5901 0343 666C6167 		.ascii	"flag_55\000"
 5901      5F353500 
 5902              	.LASF48:
 5903 034b 42545F52 		.ascii	"BT_Roll\000"
 5903      6F6C6C00 
 5904              	.LASF60:
 5905 0353 54656D70 		.ascii	"Temperature\000"
 5905      65726174 
 5905      75726500 
 5906              	.LASF72:
 5907 035f 6C617374 		.ascii	"last_Motor_v_1\000"
 5907      5F4D6F74 
 5907      6F725F76 
 5907      5F3100
 5908              	.LASF73:
 5909 036e 6C617374 		.ascii	"last_Motor_v_2\000"
 5909      5F4D6F74 
 5909      6F725F76 
 5909      5F3200
 5910              	.LASF74:
 5911 037d 6C617374 		.ascii	"last_Motor_v_3\000"
 5911      5F4D6F74 
 5911      6F725F76 
 5911      5F3300
 5912              	.LASF75:
 5913 038c 6C617374 		.ascii	"last_Motor_v_4\000"
 5913      5F4D6F74 
 5913      6F725F76 
 5913      5F3400
 5914              	.LASF21:
 5915 039b 6C6F6E67 		.ascii	"long double\000"
 5915      20646F75 
 5915      626C6500 
 5916              	.LASF119:
ARM GAS  C:\Users\ADMINI~1\AppData\Local\Temp\cciWlNAe.s 			page 119


 5917 03a7 73707269 		.ascii	"sprintf\000"
 5917      6E746600 
 5918              	.LASF106:
 5919 03af 55534255 		.ascii	"USBUART_1_Start\000"
 5919      4152545F 
 5919      315F5374 
 5919      61727400 
 5920              	.LASF97:
 5921 03bf 4C43445F 		.ascii	"LCD_Position\000"
 5921      506F7369 
 5921      74696F6E 
 5921      00
 5922              	.LASF42:
 5923 03cc 4A593930 		.ascii	"JY901_Debug_Display\000"
 5923      315F4465 
 5923      6275675F 
 5923      44697370 
 5923      6C617900 
 5924              	.LASF95:
 5925 03e0 50574D5F 		.ascii	"PWM_2_Start\000"
 5925      325F5374 
 5925      61727400 
 5926              	.LASF3:
 5927 03ec 73686F72 		.ascii	"short int\000"
 5927      7420696E 
 5927      7400
 5928              	.LASF52:
 5929 03f6 44657369 		.ascii	"Desire_angle_roll\000"
 5929      72655F61 
 5929      6E676C65 
 5929      5F726F6C 
 5929      6C00
 5930              	.LASF5:
 5931 0408 6C6F6E67 		.ascii	"long int\000"
 5931      20696E74 
 5931      00
 5932              	.LASF98:
 5933 0411 4C43445F 		.ascii	"LCD_PrintString\000"
 5933      5072696E 
 5933      74537472 
 5933      696E6700 
 5934              	.LASF111:
 5935 0421 55415254 		.ascii	"UART_JY901_Start\000"
 5935      5F4A5939 
 5935      30315F53 
 5935      74617274 
 5935      00
 5936              	.LASF44:
 5937 0432 49544D5F 		.ascii	"ITM_RxBuffer\000"
 5937      52784275 
 5937      66666572 
 5937      00
 5938              	.LASF35:
 5939 043f 436F6E76 		.ascii	"Convert_Float2String\000"
 5939      6572745F 
 5939      466C6F61 
 5939      74325374 
ARM GAS  C:\Users\ADMINI~1\AppData\Local\Temp\cciWlNAe.s 			page 120


 5939      72696E67 
 5940              	.LASF78:
 5941 0454 666C6167 		.ascii	"flag\000"
 5941      00
 5942              	.LASF28:
 5943 0459 5365745F 		.ascii	"Set_All_Motors_Speed\000"
 5943      416C6C5F 
 5943      4D6F746F 
 5943      72735F53 
 5943      70656564 
 5944              	.LASF54:
 5945 046e 41636365 		.ascii	"AccelX\000"
 5945      6C5800
 5946              	.LASF55:
 5947 0475 41636365 		.ascii	"AccelY\000"
 5947      6C5900
 5948              	.LASF56:
 5949 047c 41636365 		.ascii	"AccelZ\000"
 5949      6C5A00
 5950              	.LASF46:
 5951 0483 42545F59 		.ascii	"BT_Yaw\000"
 5951      617700
 5952              	.LASF86:
 5953 048a 666C6F61 		.ascii	"float2int_tmp\000"
 5953      7432696E 
 5953      745F746D 
 5953      7000
 5954              	.LASF103:
 5955 0498 4C43445F 		.ascii	"LCD_Start\000"
 5955      53746172 
 5955      7400
 5956              	.LASF37:
 5957 04a2 696E745F 		.ascii	"int_part\000"
 5957      70617274 
 5957      00
 5958              	.LASF30:
 5959 04ab 4D6F746F 		.ascii	"Motor_Calibration\000"
 5959      725F4361 
 5959      6C696272 
 5959      6174696F 
 5959      6E00
 5960              	.LASF113:
 5961 04bd 6973725F 		.ascii	"isr_jyRX_StartEx\000"
 5961      6A795258 
 5961      5F537461 
 5961      72744578 
 5961      00
 5962              	.LASF120:
 5963 04ce 436F6E74 		.ascii	"Control_Func_InitVariable\000"
 5963      726F6C5F 
 5963      46756E63 
 5963      5F496E69 
 5963      74566172 
 5964              	.LASF20:
 5965 04e8 73697A65 		.ascii	"sizetype\000"
 5965      74797065 
 5965      00
ARM GAS  C:\Users\ADMINI~1\AppData\Local\Temp\cciWlNAe.s 			page 121


 5966              	.LASF6:
 5967 04f1 6C6F6E67 		.ascii	"long unsigned int\000"
 5967      20756E73 
 5967      69676E65 
 5967      6420696E 
 5967      7400
 5968              	.LASF76:
 5969 0503 42545278 		.ascii	"BTRxBuf\000"
 5969      42756600 
 5970              	.LASF11:
 5971 050b 696E7433 		.ascii	"int32_t\000"
 5971      325F7400 
 5972              	.LASF33:
 5973 0513 4A593930 		.ascii	"JY901_RX_Interrupt_Handler\000"
 5973      315F5258 
 5973      5F496E74 
 5973      65727275 
 5973      70745F48 
 5974              	.LASF2:
 5975 052e 756E7369 		.ascii	"unsigned char\000"
 5975      676E6564 
 5975      20636861 
 5975      7200
 5976              	.LASF114:
 5977 053c 474E5520 		.ascii	"GNU C 4.9.3 20150303 (release) [ARM/embedded-4_9-br"
 5977      4320342E 
 5977      392E3320 
 5977      32303135 
 5977      30333033 
 5978 056f 616E6368 		.ascii	"anch revision 221220] -mcpu=cortex-m3 -mthumb -g -O"
 5978      20726576 
 5978      6973696F 
 5978      6E203232 
 5978      31323230 
 5979 05a2 67202D66 		.ascii	"g -ffunction-sections -ffat-lto-objects\000"
 5979      66756E63 
 5979      74696F6E 
 5979      2D736563 
 5979      74696F6E 
 5980              	.LASF27:
 5981 05ca 54696D65 		.ascii	"Timer_1_Interrupt_Handler\000"
 5981      725F315F 
 5981      496E7465 
 5981      72727570 
 5981      745F4861 
 5982              	.LASF22:
 5983 05e4 5365745F 		.ascii	"Set_Motor_1_Speed\000"
 5983      4D6F746F 
 5983      725F315F 
 5983      53706565 
 5983      6400
 5984              	.LASF100:
 5985 05f6 55415254 		.ascii	"UART_Bluetooth_ReadRxData\000"
 5985      5F426C75 
 5985      65746F6F 
 5985      74685F52 
 5985      65616452 
ARM GAS  C:\Users\ADMINI~1\AppData\Local\Temp\cciWlNAe.s 			page 122


 5986              	.LASF29:
 5987 0610 496E6974 		.ascii	"Initialize_All_PWM\000"
 5987      69616C69 
 5987      7A655F41 
 5987      6C6C5F50 
 5987      574D00
 5988              	.LASF57:
 5989 0623 4F6D6567 		.ascii	"OmegaX\000"
 5989      615800
 5990              	.LASF58:
 5991 062a 4F6D6567 		.ascii	"OmegaY\000"
 5991      615900
 5992              	.LASF59:
 5993 0631 4F6D6567 		.ascii	"OmegaZ\000"
 5993      615A00
 5994              	.LASF99:
 5995 0638 55415254 		.ascii	"UART_JY901_ReadRxData\000"
 5995      5F4A5939 
 5995      30315F52 
 5995      65616452 
 5995      78446174 
 5996              	.LASF105:
 5997 064e 54696D65 		.ascii	"Timer_1_Start\000"
 5997      725F315F 
 5997      53746172 
 5997      7400
 5998              	.LASF1:
 5999 065c 7369676E 		.ascii	"signed char\000"
 5999      65642063 
 5999      68617200 
 6000              	.LASF53:
 6001 0668 44657369 		.ascii	"Desire_w_yaw\000"
 6001      72655F77 
 6001      5F796177 
 6001      00
 6002              	.LASF4:
 6003 0675 73686F72 		.ascii	"short unsigned int\000"
 6003      7420756E 
 6003      7369676E 
 6003      65642069 
 6003      6E7400
 6004              	.LASF43:
 6005 0688 6D61696E 		.ascii	"main\000"
 6005      00
 6006              	.LASF12:
 6007 068d 75696E74 		.ascii	"uint8\000"
 6007      3800
 6008              	.LASF15:
 6009 0693 646F7562 		.ascii	"double\000"
 6009      6C6500
 6010              	.LASF92:
 6011 069a 50574D5F 		.ascii	"PWM_2_WriteCompare1\000"
 6011      325F5772 
 6011      69746543 
 6011      6F6D7061 
 6011      72653100 
 6012              	.LASF93:
ARM GAS  C:\Users\ADMINI~1\AppData\Local\Temp\cciWlNAe.s 			page 123


 6013 06ae 50574D5F 		.ascii	"PWM_2_WriteCompare2\000"
 6013      325F5772 
 6013      69746543 
 6013      6F6D7061 
 6013      72653200 
 6014              	.LASF25:
 6015 06c2 5365745F 		.ascii	"Set_Motor_3_Speed\000"
 6015      4D6F746F 
 6015      725F335F 
 6015      53706565 
 6015      6400
 6016              	.LASF115:
 6017 06d4 2E5C6D61 		.ascii	".\\main.c\000"
 6017      696E2E63 
 6017      00
 6018              	.LASF40:
 6019 06dd 466C6F61 		.ascii	"Float28Str\000"
 6019      74323853 
 6019      747200
 6020              		.ident	"GCC: (GNU Tools for ARM Embedded Processors) 4.9.3 20150303 (release) [ARM/embedded-4_9-br
