ARM GAS  C:\Users\ADMINI~1\AppData\Local\Temp\ccpQE0Fa.s 			page 1


   1              		.syntax unified
   2              		.cpu cortex-m3
   3              		.fpu softvfp
   4              		.eabi_attribute 20, 1
   5              		.eabi_attribute 21, 1
   6              		.eabi_attribute 23, 3
   7              		.eabi_attribute 24, 1
   8              		.eabi_attribute 25, 1
   9              		.eabi_attribute 26, 1
  10              		.eabi_attribute 30, 1
  11              		.eabi_attribute 34, 1
  12              		.eabi_attribute 18, 4
  13              		.thumb
  14              		.file	"main.c"
  15              		.text
  16              	.Ltext0:
  17              		.cfi_sections	.debug_frame
  18              		.section	.text.Set_Motor_1_Speed,"ax",%progbits
  19              		.align	2
  20              		.global	Set_Motor_1_Speed
  21              		.thumb
  22              		.thumb_func
  23              		.type	Set_Motor_1_Speed, %function
  24              	Set_Motor_1_Speed:
  25              	.LFB63:
  26              		.file 1 ".\\Motors.h"
   1:.\Motors.h    **** /*
   2:.\Motors.h    ****  *     4         3
   3:.\Motors.h    ****  *      \       /
   4:.\Motors.h    ****  *       \     /
   5:.\Motors.h    ****  *        \---/
   6:.\Motors.h    ****  *        |   |
   7:.\Motors.h    ****  *        /---\
   8:.\Motors.h    ****  *       /     \
   9:.\Motors.h    ****  *      / Front \
  10:.\Motors.h    ****  *     1         2
  11:.\Motors.h    ****  */
  12:.\Motors.h    **** 
  13:.\Motors.h    **** #ifndef MOTORS_H_
  14:.\Motors.h    **** #define MOTORS_H_
  15:.\Motors.h    **** 
  16:.\Motors.h    **** #include <project.h>
  17:.\Motors.h    **** 
  18:.\Motors.h    **** //Speed should be between 0 and 1000
  19:.\Motors.h    **** void Set_Motor_1_Speed(int speed) {
  27              		.loc 1 19 0
  28              		.cfi_startproc
  29              		@ args = 0, pretend = 0, frame = 0
  30              		@ frame_needed = 0, uses_anonymous_args = 0
  31              	.LVL0:
  20:.\Motors.h    ****     if(speed < 0 || speed > 1000)
  32              		.loc 1 20 0
  33 0000 B0F57A7F 		cmp	r0, #1000
  34 0004 06D8     		bhi	.L4
  19:.\Motors.h    ****     if(speed < 0 || speed > 1000)
  35              		.loc 1 19 0
  36 0006 08B5     		push	{r3, lr}
ARM GAS  C:\Users\ADMINI~1\AppData\Local\Temp\ccpQE0Fa.s 			page 2


  37              		.cfi_def_cfa_offset 8
  38              		.cfi_offset 3, -8
  39              		.cfi_offset 14, -4
  21:.\Motors.h    ****         return;
  22:.\Motors.h    ****     PWM_1_WriteCompare1(999 + speed);
  40              		.loc 1 22 0
  41 0008 00F2E730 		addw	r0, r0, #999
  42              	.LVL1:
  43 000c 80B2     		uxth	r0, r0
  44              	.LVL2:
  45 000e FFF7FEFF 		bl	PWM_1_WriteCompare1
  46              	.LVL3:
  47 0012 08BD     		pop	{r3, pc}
  48              	.LVL4:
  49              	.L4:
  50              		.cfi_def_cfa_offset 0
  51              		.cfi_restore 3
  52              		.cfi_restore 14
  53 0014 7047     		bx	lr
  54              		.cfi_endproc
  55              	.LFE63:
  56              		.size	Set_Motor_1_Speed, .-Set_Motor_1_Speed
  57 0016 00BF     		.section	.text.Set_Motor_2_Speed,"ax",%progbits
  58              		.align	2
  59              		.global	Set_Motor_2_Speed
  60              		.thumb
  61              		.thumb_func
  62              		.type	Set_Motor_2_Speed, %function
  63              	Set_Motor_2_Speed:
  64              	.LFB64:
  23:.\Motors.h    **** }
  24:.\Motors.h    **** 
  25:.\Motors.h    **** void Set_Motor_2_Speed(int speed) {
  65              		.loc 1 25 0
  66              		.cfi_startproc
  67              		@ args = 0, pretend = 0, frame = 0
  68              		@ frame_needed = 0, uses_anonymous_args = 0
  69              	.LVL5:
  26:.\Motors.h    ****     if(speed < 0 || speed > 1000)
  70              		.loc 1 26 0
  71 0000 B0F57A7F 		cmp	r0, #1000
  72 0004 06D8     		bhi	.L8
  25:.\Motors.h    ****     if(speed < 0 || speed > 1000)
  73              		.loc 1 25 0
  74 0006 08B5     		push	{r3, lr}
  75              		.cfi_def_cfa_offset 8
  76              		.cfi_offset 3, -8
  77              		.cfi_offset 14, -4
  27:.\Motors.h    ****         return;
  28:.\Motors.h    ****     PWM_1_WriteCompare2(999 + speed);
  78              		.loc 1 28 0
  79 0008 00F2E730 		addw	r0, r0, #999
  80              	.LVL6:
  81 000c 80B2     		uxth	r0, r0
  82              	.LVL7:
  83 000e FFF7FEFF 		bl	PWM_1_WriteCompare2
  84              	.LVL8:
ARM GAS  C:\Users\ADMINI~1\AppData\Local\Temp\ccpQE0Fa.s 			page 3


  85 0012 08BD     		pop	{r3, pc}
  86              	.LVL9:
  87              	.L8:
  88              		.cfi_def_cfa_offset 0
  89              		.cfi_restore 3
  90              		.cfi_restore 14
  91 0014 7047     		bx	lr
  92              		.cfi_endproc
  93              	.LFE64:
  94              		.size	Set_Motor_2_Speed, .-Set_Motor_2_Speed
  95 0016 00BF     		.section	.text.Set_Motor_3_Speed,"ax",%progbits
  96              		.align	2
  97              		.global	Set_Motor_3_Speed
  98              		.thumb
  99              		.thumb_func
 100              		.type	Set_Motor_3_Speed, %function
 101              	Set_Motor_3_Speed:
 102              	.LFB65:
  29:.\Motors.h    **** }
  30:.\Motors.h    **** 
  31:.\Motors.h    **** void Set_Motor_3_Speed(int speed) {
 103              		.loc 1 31 0
 104              		.cfi_startproc
 105              		@ args = 0, pretend = 0, frame = 0
 106              		@ frame_needed = 0, uses_anonymous_args = 0
 107              	.LVL10:
  32:.\Motors.h    ****     if(speed < 0 || speed > 1000)
 108              		.loc 1 32 0
 109 0000 B0F57A7F 		cmp	r0, #1000
 110 0004 06D8     		bhi	.L12
  31:.\Motors.h    ****     if(speed < 0 || speed > 1000)
 111              		.loc 1 31 0
 112 0006 08B5     		push	{r3, lr}
 113              		.cfi_def_cfa_offset 8
 114              		.cfi_offset 3, -8
 115              		.cfi_offset 14, -4
  33:.\Motors.h    ****         return;
  34:.\Motors.h    ****     PWM_2_WriteCompare1(999 + speed);
 116              		.loc 1 34 0
 117 0008 00F2E730 		addw	r0, r0, #999
 118              	.LVL11:
 119 000c 80B2     		uxth	r0, r0
 120              	.LVL12:
 121 000e FFF7FEFF 		bl	PWM_2_WriteCompare1
 122              	.LVL13:
 123 0012 08BD     		pop	{r3, pc}
 124              	.LVL14:
 125              	.L12:
 126              		.cfi_def_cfa_offset 0
 127              		.cfi_restore 3
 128              		.cfi_restore 14
 129 0014 7047     		bx	lr
 130              		.cfi_endproc
 131              	.LFE65:
 132              		.size	Set_Motor_3_Speed, .-Set_Motor_3_Speed
 133 0016 00BF     		.section	.text.Set_Motor_4_Speed,"ax",%progbits
 134              		.align	2
ARM GAS  C:\Users\ADMINI~1\AppData\Local\Temp\ccpQE0Fa.s 			page 4


 135              		.global	Set_Motor_4_Speed
 136              		.thumb
 137              		.thumb_func
 138              		.type	Set_Motor_4_Speed, %function
 139              	Set_Motor_4_Speed:
 140              	.LFB66:
  35:.\Motors.h    **** }
  36:.\Motors.h    **** 
  37:.\Motors.h    **** void Set_Motor_4_Speed(int speed) {
 141              		.loc 1 37 0
 142              		.cfi_startproc
 143              		@ args = 0, pretend = 0, frame = 0
 144              		@ frame_needed = 0, uses_anonymous_args = 0
 145              	.LVL15:
  38:.\Motors.h    ****     if(speed < 0 || speed > 1000)
 146              		.loc 1 38 0
 147 0000 B0F57A7F 		cmp	r0, #1000
 148 0004 06D8     		bhi	.L16
  37:.\Motors.h    ****     if(speed < 0 || speed > 1000)
 149              		.loc 1 37 0
 150 0006 08B5     		push	{r3, lr}
 151              		.cfi_def_cfa_offset 8
 152              		.cfi_offset 3, -8
 153              		.cfi_offset 14, -4
  39:.\Motors.h    ****         return;
  40:.\Motors.h    ****     PWM_2_WriteCompare2(999 + speed);
 154              		.loc 1 40 0
 155 0008 00F2E730 		addw	r0, r0, #999
 156              	.LVL16:
 157 000c 80B2     		uxth	r0, r0
 158              	.LVL17:
 159 000e FFF7FEFF 		bl	PWM_2_WriteCompare2
 160              	.LVL18:
 161 0012 08BD     		pop	{r3, pc}
 162              	.LVL19:
 163              	.L16:
 164              		.cfi_def_cfa_offset 0
 165              		.cfi_restore 3
 166              		.cfi_restore 14
 167 0014 7047     		bx	lr
 168              		.cfi_endproc
 169              	.LFE66:
 170              		.size	Set_Motor_4_Speed, .-Set_Motor_4_Speed
 171 0016 00BF     		.section	.text.Timer_1_Interrupt_Handler,"ax",%progbits
 172              		.align	2
 173              		.global	Timer_1_Interrupt_Handler
 174              		.thumb
 175              		.thumb_func
 176              		.type	Timer_1_Interrupt_Handler, %function
 177              	Timer_1_Interrupt_Handler:
 178              	.LFB75:
 179              		.file 2 ".\\main.c"
   1:.\main.c      **** /* ========================================
   2:.\main.c      ****  *
   3:.\main.c      ****  * Copyright YOUR COMPANY, THE YEAR
   4:.\main.c      ****  * All Rights Reserved
   5:.\main.c      ****  * UNPUBLISHED, LICENSED SOFTWARE.
ARM GAS  C:\Users\ADMINI~1\AppData\Local\Temp\ccpQE0Fa.s 			page 5


   6:.\main.c      ****  *
   7:.\main.c      ****  * CONFIDENTIAL AND PROPRIETARY INFORMATION
   8:.\main.c      ****  * WHICH IS THE PROPERTY OF your company.
   9:.\main.c      ****  *
  10:.\main.c      ****  * ========================================
  11:.\main.c      **** */
  12:.\main.c      **** #include <project.h>
  13:.\main.c      **** #include "Motors.h"
  14:.\main.c      **** #include "BlueTooth.h"
  15:.\main.c      **** #include "Control.h"
  16:.\main.c      **** #include <stdio.h>
  17:.\main.c      **** #include "math.h"
  18:.\main.c      **** #include "JY901.h"
  19:.\main.c      **** 
  20:.\main.c      **** //LCD显示
  21:.\main.c      **** void LCD_Disp(char *str, unsigned char row, unsigned char col) {
  22:.\main.c      ****     LCD_Position(row, col);
  23:.\main.c      ****     LCD_PrintString(str);
  24:.\main.c      **** }
  25:.\main.c      **** 
  26:.\main.c      **** #ifndef ABS
  27:.\main.c      ****     #define ABS(x) (((x)>0)?(x):(-(x)))
  28:.\main.c      **** #endif
  29:.\main.c      **** //小数显示（不知道为什么sprintf不能用%f）
  30:.\main.c      **** void Convert_Float2String(char *str, float x) {
  31:.\main.c      ****     uint8 symbol = (x > 0.0) ? 1 : 0;
  32:.\main.c      ****     float num = ABS(x);
  33:.\main.c      ****     int int_part = (int)num;
  34:.\main.c      ****     int float_2part = (int)((num - int_part)*100.0); //取两位小数
  35:.\main.c      ****     if(float_2part >= 10)
  36:.\main.c      ****         sprintf(str, "%c%d.%d", (symbol == 1)?'+':'-', int_part, float_2part);
  37:.\main.c      ****     else
  38:.\main.c      ****         if(float_2part > 0)
  39:.\main.c      ****             sprintf(str, "%c%d.0%d", (symbol == 1)?'+':'-', int_part, float_2part);
  40:.\main.c      ****         else
  41:.\main.c      ****             sprintf(str, "%c%d.00", (symbol == 1)?'+':'-', int_part);
  42:.\main.c      **** }
  43:.\main.c      **** 
  44:.\main.c      **** //电机速度控制
  45:.\main.c      **** volatile int Motor_v_1, Motor_v_2,  Motor_v_3,  Motor_v_4;
  46:.\main.c      **** int last_Motor_v_1, last_Motor_v_2, last_Motor_v_3, last_Motor_v_4;
  47:.\main.c      **** 
  48:.\main.c      **** CY_ISR(Timer_1_Interrupt_Handler) {
 180              		.loc 2 48 0
 181              		.cfi_startproc
 182              		@ args = 0, pretend = 0, frame = 0
 183              		@ frame_needed = 0, uses_anonymous_args = 0
 184 0000 10B5     		push	{r4, lr}
 185              		.cfi_def_cfa_offset 8
 186              		.cfi_offset 4, -8
 187              		.cfi_offset 14, -4
  49:.\main.c      ****     Timer_1_STATUS;
 188              		.loc 2 49 0
 189 0002 214B     		ldr	r3, .L27
 190 0004 1B78     		ldrb	r3, [r3]	@ zero_extendqisi2
  50:.\main.c      ****     if(Motor_v_1 != last_Motor_v_1 || Motor_v_1 == 0) {
 191              		.loc 2 50 0
ARM GAS  C:\Users\ADMINI~1\AppData\Local\Temp\ccpQE0Fa.s 			page 6


 192 0006 214B     		ldr	r3, .L27+4
 193 0008 1A68     		ldr	r2, [r3]
 194 000a 214B     		ldr	r3, .L27+8
 195 000c 1B68     		ldr	r3, [r3]
 196 000e 9A42     		cmp	r2, r3
 197 0010 02D1     		bne	.L18
 198              		.loc 2 50 0 is_stmt 0 discriminator 1
 199 0012 1E4B     		ldr	r3, .L27+4
 200 0014 1B68     		ldr	r3, [r3]
 201 0016 33B9     		cbnz	r3, .L19
 202              	.L18:
  51:.\main.c      ****         Set_Motor_1_Speed(Motor_v_1);
 203              		.loc 2 51 0 is_stmt 1
 204 0018 1C4C     		ldr	r4, .L27+4
 205 001a 2068     		ldr	r0, [r4]
 206 001c FFF7FEFF 		bl	Set_Motor_1_Speed
 207              	.LVL20:
  52:.\main.c      ****         last_Motor_v_1 = Motor_v_1;
 208              		.loc 2 52 0
 209 0020 2268     		ldr	r2, [r4]
 210 0022 1B4B     		ldr	r3, .L27+8
 211 0024 1A60     		str	r2, [r3]
 212              	.L19:
  53:.\main.c      ****     }
  54:.\main.c      ****     if(Motor_v_2 != last_Motor_v_2 || Motor_v_2 == 0) {
 213              		.loc 2 54 0
 214 0026 1B4B     		ldr	r3, .L27+12
 215 0028 1A68     		ldr	r2, [r3]
 216 002a 1B4B     		ldr	r3, .L27+16
 217 002c 1B68     		ldr	r3, [r3]
 218 002e 9A42     		cmp	r2, r3
 219 0030 02D1     		bne	.L20
 220              		.loc 2 54 0 is_stmt 0 discriminator 1
 221 0032 184B     		ldr	r3, .L27+12
 222 0034 1B68     		ldr	r3, [r3]
 223 0036 33B9     		cbnz	r3, .L21
 224              	.L20:
  55:.\main.c      ****         Set_Motor_2_Speed(Motor_v_2);
 225              		.loc 2 55 0 is_stmt 1
 226 0038 164C     		ldr	r4, .L27+12
 227 003a 2068     		ldr	r0, [r4]
 228 003c FFF7FEFF 		bl	Set_Motor_2_Speed
 229              	.LVL21:
  56:.\main.c      ****         last_Motor_v_2 = Motor_v_2;
 230              		.loc 2 56 0
 231 0040 2268     		ldr	r2, [r4]
 232 0042 154B     		ldr	r3, .L27+16
 233 0044 1A60     		str	r2, [r3]
 234              	.L21:
  57:.\main.c      ****     }
  58:.\main.c      ****     if(Motor_v_3 != last_Motor_v_3 || Motor_v_3 == 0) {
 235              		.loc 2 58 0
 236 0046 154B     		ldr	r3, .L27+20
 237 0048 1A68     		ldr	r2, [r3]
 238 004a 154B     		ldr	r3, .L27+24
 239 004c 1B68     		ldr	r3, [r3]
 240 004e 9A42     		cmp	r2, r3
ARM GAS  C:\Users\ADMINI~1\AppData\Local\Temp\ccpQE0Fa.s 			page 7


 241 0050 02D1     		bne	.L22
 242              		.loc 2 58 0 is_stmt 0 discriminator 1
 243 0052 124B     		ldr	r3, .L27+20
 244 0054 1B68     		ldr	r3, [r3]
 245 0056 33B9     		cbnz	r3, .L23
 246              	.L22:
  59:.\main.c      ****         Set_Motor_3_Speed(Motor_v_3);
 247              		.loc 2 59 0 is_stmt 1
 248 0058 104C     		ldr	r4, .L27+20
 249 005a 2068     		ldr	r0, [r4]
 250 005c FFF7FEFF 		bl	Set_Motor_3_Speed
 251              	.LVL22:
  60:.\main.c      ****         last_Motor_v_3 = Motor_v_3;
 252              		.loc 2 60 0
 253 0060 2268     		ldr	r2, [r4]
 254 0062 0F4B     		ldr	r3, .L27+24
 255 0064 1A60     		str	r2, [r3]
 256              	.L23:
  61:.\main.c      ****     }
  62:.\main.c      ****     if(Motor_v_4 != last_Motor_v_4 || Motor_v_4 == 0) {
 257              		.loc 2 62 0
 258 0066 0F4B     		ldr	r3, .L27+28
 259 0068 1A68     		ldr	r2, [r3]
 260 006a 0F4B     		ldr	r3, .L27+32
 261 006c 1B68     		ldr	r3, [r3]
 262 006e 9A42     		cmp	r2, r3
 263 0070 02D1     		bne	.L24
 264              		.loc 2 62 0 is_stmt 0 discriminator 1
 265 0072 0C4B     		ldr	r3, .L27+28
 266 0074 1B68     		ldr	r3, [r3]
 267 0076 33B9     		cbnz	r3, .L17
 268              	.L24:
  63:.\main.c      ****         Set_Motor_4_Speed(Motor_v_4);
 269              		.loc 2 63 0 is_stmt 1
 270 0078 0A4C     		ldr	r4, .L27+28
 271 007a 2068     		ldr	r0, [r4]
 272 007c FFF7FEFF 		bl	Set_Motor_4_Speed
 273              	.LVL23:
  64:.\main.c      ****         last_Motor_v_4 = Motor_v_4;
 274              		.loc 2 64 0
 275 0080 2268     		ldr	r2, [r4]
 276 0082 094B     		ldr	r3, .L27+32
 277 0084 1A60     		str	r2, [r3]
 278              	.L17:
 279 0086 10BD     		pop	{r4, pc}
 280              	.L28:
 281              		.align	2
 282              	.L27:
 283 0088 65650040 		.word	1073767781
 284 008c 00000000 		.word	Motor_v_1
 285 0090 00000000 		.word	last_Motor_v_1
 286 0094 00000000 		.word	Motor_v_2
 287 0098 00000000 		.word	last_Motor_v_2
 288 009c 00000000 		.word	Motor_v_3
 289 00a0 00000000 		.word	last_Motor_v_3
 290 00a4 00000000 		.word	Motor_v_4
 291 00a8 00000000 		.word	last_Motor_v_4
ARM GAS  C:\Users\ADMINI~1\AppData\Local\Temp\ccpQE0Fa.s 			page 8


 292              		.cfi_endproc
 293              	.LFE75:
 294              		.size	Timer_1_Interrupt_Handler, .-Timer_1_Interrupt_Handler
 295              		.section	.text.Set_All_Motors_Speed,"ax",%progbits
 296              		.align	2
 297              		.global	Set_All_Motors_Speed
 298              		.thumb
 299              		.thumb_func
 300              		.type	Set_All_Motors_Speed, %function
 301              	Set_All_Motors_Speed:
 302              	.LFB67:
  41:.\Motors.h    **** }
  42:.\Motors.h    **** 
  43:.\Motors.h    **** void Set_All_Motors_Speed(int p1, int p2, int p3, int p4) {
 303              		.loc 1 43 0
 304              		.cfi_startproc
 305              		@ args = 0, pretend = 0, frame = 0
 306              		@ frame_needed = 0, uses_anonymous_args = 0
 307              	.LVL24:
 308 0000 70B5     		push	{r4, r5, r6, lr}
 309              		.cfi_def_cfa_offset 16
 310              		.cfi_offset 4, -16
 311              		.cfi_offset 5, -12
 312              		.cfi_offset 6, -8
 313              		.cfi_offset 14, -4
 314 0002 0E46     		mov	r6, r1
 315 0004 1546     		mov	r5, r2
 316 0006 1C46     		mov	r4, r3
  44:.\Motors.h    ****     Set_Motor_1_Speed(p1);
 317              		.loc 1 44 0
 318 0008 FFF7FEFF 		bl	Set_Motor_1_Speed
 319              	.LVL25:
  45:.\Motors.h    ****     Set_Motor_2_Speed(p2);
 320              		.loc 1 45 0
 321 000c 3046     		mov	r0, r6
 322 000e FFF7FEFF 		bl	Set_Motor_2_Speed
 323              	.LVL26:
  46:.\Motors.h    ****     Set_Motor_3_Speed(p3);
 324              		.loc 1 46 0
 325 0012 2846     		mov	r0, r5
 326 0014 FFF7FEFF 		bl	Set_Motor_3_Speed
 327              	.LVL27:
  47:.\Motors.h    ****     Set_Motor_4_Speed(p4);
 328              		.loc 1 47 0
 329 0018 2046     		mov	r0, r4
 330 001a FFF7FEFF 		bl	Set_Motor_4_Speed
 331              	.LVL28:
 332 001e 70BD     		pop	{r4, r5, r6, pc}
 333              		.cfi_endproc
 334              	.LFE67:
 335              		.size	Set_All_Motors_Speed, .-Set_All_Motors_Speed
 336              		.section	.text.Initialize_All_PWM,"ax",%progbits
 337              		.align	2
 338              		.global	Initialize_All_PWM
 339              		.thumb
 340              		.thumb_func
 341              		.type	Initialize_All_PWM, %function
ARM GAS  C:\Users\ADMINI~1\AppData\Local\Temp\ccpQE0Fa.s 			page 9


 342              	Initialize_All_PWM:
 343              	.LFB68:
  48:.\Motors.h    **** }
  49:.\Motors.h    **** 
  50:.\Motors.h    **** void Initialize_All_PWM() {
 344              		.loc 1 50 0
 345              		.cfi_startproc
 346              		@ args = 0, pretend = 0, frame = 0
 347              		@ frame_needed = 0, uses_anonymous_args = 0
 348 0000 08B5     		push	{r3, lr}
 349              		.cfi_def_cfa_offset 8
 350              		.cfi_offset 3, -8
 351              		.cfi_offset 14, -4
  51:.\Motors.h    ****     PWM_1_Start();
 352              		.loc 1 51 0
 353 0002 FFF7FEFF 		bl	PWM_1_Start
 354              	.LVL29:
  52:.\Motors.h    ****     PWM_2_Start();
 355              		.loc 1 52 0
 356 0006 FFF7FEFF 		bl	PWM_2_Start
 357              	.LVL30:
  53:.\Motors.h    ****     PWM_1_WriteCompare1(0);
 358              		.loc 1 53 0
 359 000a 0020     		movs	r0, #0
 360 000c FFF7FEFF 		bl	PWM_1_WriteCompare1
 361              	.LVL31:
  54:.\Motors.h    ****     PWM_1_WriteCompare2(0);
 362              		.loc 1 54 0
 363 0010 0020     		movs	r0, #0
 364 0012 FFF7FEFF 		bl	PWM_1_WriteCompare2
 365              	.LVL32:
  55:.\Motors.h    ****     PWM_2_WriteCompare1(0);
 366              		.loc 1 55 0
 367 0016 0020     		movs	r0, #0
 368 0018 FFF7FEFF 		bl	PWM_2_WriteCompare1
 369              	.LVL33:
  56:.\Motors.h    ****     PWM_2_WriteCompare2(0);
 370              		.loc 1 56 0
 371 001c 0020     		movs	r0, #0
 372 001e FFF7FEFF 		bl	PWM_2_WriteCompare2
 373              	.LVL34:
 374 0022 08BD     		pop	{r3, pc}
 375              		.cfi_endproc
 376              	.LFE68:
 377              		.size	Initialize_All_PWM, .-Initialize_All_PWM
 378              		.section	.text.Motor_Calibration,"ax",%progbits
 379              		.align	2
 380              		.global	Motor_Calibration
 381              		.thumb
 382              		.thumb_func
 383              		.type	Motor_Calibration, %function
 384              	Motor_Calibration:
 385              	.LFB69:
  57:.\Motors.h    **** }
  58:.\Motors.h    **** 
  59:.\Motors.h    **** void Motor_Calibration() {
 386              		.loc 1 59 0
ARM GAS  C:\Users\ADMINI~1\AppData\Local\Temp\ccpQE0Fa.s 			page 10


 387              		.cfi_startproc
 388              		@ args = 0, pretend = 0, frame = 0
 389              		@ frame_needed = 0, uses_anonymous_args = 0
 390 0000 08B5     		push	{r3, lr}
 391              		.cfi_def_cfa_offset 8
 392              		.cfi_offset 3, -8
 393              		.cfi_offset 14, -4
  60:.\Motors.h    ****     Set_Motor_1_Speed(1000);
 394              		.loc 1 60 0
 395 0002 4FF47A70 		mov	r0, #1000
 396 0006 FFF7FEFF 		bl	Set_Motor_1_Speed
 397              	.LVL35:
  61:.\Motors.h    ****     Set_Motor_2_Speed(1000);
 398              		.loc 1 61 0
 399 000a 4FF47A70 		mov	r0, #1000
 400 000e FFF7FEFF 		bl	Set_Motor_2_Speed
 401              	.LVL36:
  62:.\Motors.h    ****     Set_Motor_3_Speed(1000);
 402              		.loc 1 62 0
 403 0012 4FF47A70 		mov	r0, #1000
 404 0016 FFF7FEFF 		bl	Set_Motor_3_Speed
 405              	.LVL37:
  63:.\Motors.h    ****     Set_Motor_4_Speed(1000);
 406              		.loc 1 63 0
 407 001a 4FF47A70 		mov	r0, #1000
 408 001e FFF7FEFF 		bl	Set_Motor_4_Speed
 409              	.LVL38:
  64:.\Motors.h    ****     CyDelay(2000);
 410              		.loc 1 64 0
 411 0022 4FF4FA60 		mov	r0, #2000
 412 0026 FFF7FEFF 		bl	CyDelay
 413              	.LVL39:
  65:.\Motors.h    ****     Set_Motor_1_Speed(0);
 414              		.loc 1 65 0
 415 002a 0020     		movs	r0, #0
 416 002c FFF7FEFF 		bl	Set_Motor_1_Speed
 417              	.LVL40:
  66:.\Motors.h    ****     Set_Motor_2_Speed(0);
 418              		.loc 1 66 0
 419 0030 0020     		movs	r0, #0
 420 0032 FFF7FEFF 		bl	Set_Motor_2_Speed
 421              	.LVL41:
  67:.\Motors.h    ****     Set_Motor_3_Speed(0);
 422              		.loc 1 67 0
 423 0036 0020     		movs	r0, #0
 424 0038 FFF7FEFF 		bl	Set_Motor_3_Speed
 425              	.LVL42:
  68:.\Motors.h    ****     Set_Motor_4_Speed(0);
 426              		.loc 1 68 0
 427 003c 0020     		movs	r0, #0
 428 003e FFF7FEFF 		bl	Set_Motor_4_Speed
 429              	.LVL43:
  69:.\Motors.h    ****     CyDelay(1000);
 430              		.loc 1 69 0
 431 0042 4FF47A70 		mov	r0, #1000
 432 0046 FFF7FEFF 		bl	CyDelay
 433              	.LVL44:
ARM GAS  C:\Users\ADMINI~1\AppData\Local\Temp\ccpQE0Fa.s 			page 11


 434 004a 08BD     		pop	{r3, pc}
 435              		.cfi_endproc
 436              	.LFE69:
 437              		.size	Motor_Calibration, .-Motor_Calibration
 438              		.global	__aeabi_i2d
 439              		.global	__aeabi_ddiv
 440              		.global	__aeabi_d2f
 441              		.global	__aeabi_i2f
 442              		.global	__aeabi_f2d
 443              		.global	__aeabi_dsub
 444              		.global	__aeabi_dmul
 445              		.section	.text.Process_Bluetooth_Message,"ax",%progbits
 446              		.align	2
 447              		.global	Process_Bluetooth_Message
 448              		.thumb
 449              		.thumb_func
 450              		.type	Process_Bluetooth_Message, %function
 451              	Process_Bluetooth_Message:
 452              	.LFB70:
 453              		.file 3 ".\\BlueTooth.h"
   1:.\BlueTooth.h **** #ifndef BLUETOOTH_H_
   2:.\BlueTooth.h **** #define BLUETOOTh_H_
   3:.\BlueTooth.h ****     
   4:.\BlueTooth.h **** #include <project.h>
   5:.\BlueTooth.h **** #include "Motors.h"
   6:.\BlueTooth.h **** #include <stdio.h>
   7:.\BlueTooth.h **** #include <string.h>
   8:.\BlueTooth.h ****     
   9:.\BlueTooth.h **** volatile int BT_Throttle = 0, BT_Yaw = 0, BT_Pitch = 0, BT_Roll = 0;
  10:.\BlueTooth.h **** volatile float roll_angle_offset, pitch_angle_offset;
  11:.\BlueTooth.h **** volatile float Desire_angle_pitch, Desire_angle_roll, Desire_w_yaw;
  12:.\BlueTooth.h ****     
  13:.\BlueTooth.h **** void Process_Bluetooth_Message(uint8 buf[], uint8 buflen) {
 454              		.loc 3 13 0
 455              		.cfi_startproc
 456              		@ args = 0, pretend = 0, frame = 0
 457              		@ frame_needed = 0, uses_anonymous_args = 0
 458              	.LVL45:
 459 0000 38B5     		push	{r3, r4, r5, lr}
 460              		.cfi_def_cfa_offset 16
 461              		.cfi_offset 3, -16
 462              		.cfi_offset 4, -12
 463              		.cfi_offset 5, -8
 464              		.cfi_offset 14, -4
 465              	.LVL46:
  14:.\BlueTooth.h ****     int sum = 0;
  15:.\BlueTooth.h ****     int j;
  16:.\BlueTooth.h ****     for(j = 0; j < 13; j++) //利用校验位进行校验
 466              		.loc 3 16 0
 467 0002 0023     		movs	r3, #0
  14:.\BlueTooth.h ****     int sum = 0;
 468              		.loc 3 14 0
 469 0004 1A46     		mov	r2, r3
 470              		.loc 3 16 0
 471 0006 02E0     		b	.L36
 472              	.LVL47:
 473              	.L37:
ARM GAS  C:\Users\ADMINI~1\AppData\Local\Temp\ccpQE0Fa.s 			page 12


  17:.\BlueTooth.h ****         sum += buf[j];
 474              		.loc 3 17 0 discriminator 3
 475 0008 C15C     		ldrb	r1, [r0, r3]	@ zero_extendqisi2
 476 000a 0A44     		add	r2, r2, r1
 477              	.LVL48:
  16:.\BlueTooth.h ****         sum += buf[j];
 478              		.loc 3 16 0 discriminator 3
 479 000c 0133     		adds	r3, r3, #1
 480              	.LVL49:
 481              	.L36:
  16:.\BlueTooth.h ****         sum += buf[j];
 482              		.loc 3 16 0 is_stmt 0 discriminator 1
 483 000e 0C2B     		cmp	r3, #12
 484 0010 FADD     		ble	.L37
  18:.\BlueTooth.h ****     if((sum & 0x00ff) != buf[14]) //如果校验失败则直接退出
 485              		.loc 3 18 0 is_stmt 1
 486 0012 D2B2     		uxtb	r2, r2
 487              	.LVL50:
 488 0014 837B     		ldrb	r3, [r0, #14]	@ zero_extendqisi2
 489              	.LVL51:
 490 0016 9A42     		cmp	r2, r3
 491 0018 7BD1     		bne	.L35
 492 001a 0446     		mov	r4, r0
  19:.\BlueTooth.h ****         return;
  20:.\BlueTooth.h ****     
  21:.\BlueTooth.h ****     //通过蓝牙获得的遥控器控制量
  22:.\BlueTooth.h ****     BT_Throttle = (int)buf[2] + ((int)buf[3] << 8);       //油门大小，0-1024
 493              		.loc 3 22 0
 494 001c 8378     		ldrb	r3, [r0, #2]	@ zero_extendqisi2
 495 001e C278     		ldrb	r2, [r0, #3]	@ zero_extendqisi2
 496 0020 03EB0223 		add	r3, r3, r2, lsl #8
 497 0024 3E4D     		ldr	r5, .L40+8
 498 0026 2B60     		str	r3, [r5]
  23:.\BlueTooth.h ****     BT_Yaw = (int)buf[4] + ((int)buf[5] << 8);            //目标偏航角，0-1024
 499              		.loc 3 23 0
 500 0028 0379     		ldrb	r3, [r0, #4]	@ zero_extendqisi2
 501 002a 4279     		ldrb	r2, [r0, #5]	@ zero_extendqisi2
 502 002c 03EB0223 		add	r3, r3, r2, lsl #8
 503 0030 6B60     		str	r3, [r5, #4]
  24:.\BlueTooth.h ****     BT_Roll = 1024 - ((int)buf[6] + ((int)buf[7] << 8));  //目标滚转角，0-1024
 504              		.loc 3 24 0
 505 0032 8379     		ldrb	r3, [r0, #6]	@ zero_extendqisi2
 506 0034 C279     		ldrb	r2, [r0, #7]	@ zero_extendqisi2
 507 0036 03EB0223 		add	r3, r3, r2, lsl #8
 508 003a C3F58063 		rsb	r3, r3, #1024
 509 003e AB60     		str	r3, [r5, #8]
  25:.\BlueTooth.h ****     BT_Pitch = 1024 - ((int)buf[8] + ((int)buf[9] << 8)); //目标俯仰角，0-1024
 510              		.loc 3 25 0
 511 0040 037A     		ldrb	r3, [r0, #8]	@ zero_extendqisi2
 512 0042 427A     		ldrb	r2, [r0, #9]	@ zero_extendqisi2
 513 0044 03EB0223 		add	r3, r3, r2, lsl #8
 514 0048 C3F58063 		rsb	r3, r3, #1024
 515 004c EB60     		str	r3, [r5, #12]
  26:.\BlueTooth.h ****     roll_angle_offset = (buf[12] - 120) / 15.01;          //滚转角偏置
 516              		.loc 3 26 0
 517 004e 007B     		ldrb	r0, [r0, #12]	@ zero_extendqisi2
 518              	.LVL52:
ARM GAS  C:\Users\ADMINI~1\AppData\Local\Temp\ccpQE0Fa.s 			page 13


 519 0050 7838     		subs	r0, r0, #120
 520 0052 FFF7FEFF 		bl	__aeabi_i2d
 521              	.LVL53:
 522 0056 30A3     		adr	r3, .L40
 523 0058 D3E90023 		ldrd	r2, [r3]
 524 005c FFF7FEFF 		bl	__aeabi_ddiv
 525              	.LVL54:
 526 0060 FFF7FEFF 		bl	__aeabi_d2f
 527              	.LVL55:
 528 0064 2F4B     		ldr	r3, .L40+12
 529 0066 1860     		str	r0, [r3]	@ float
  27:.\BlueTooth.h ****     pitch_angle_offset = -(buf[11] - 120) / 15.01;        //俯仰角偏置
 530              		.loc 3 27 0
 531 0068 E07A     		ldrb	r0, [r4, #11]	@ zero_extendqisi2
 532 006a C0F17800 		rsb	r0, r0, #120
 533 006e FFF7FEFF 		bl	__aeabi_i2d
 534              	.LVL56:
 535 0072 29A3     		adr	r3, .L40
 536 0074 D3E90023 		ldrd	r2, [r3]
 537 0078 FFF7FEFF 		bl	__aeabi_ddiv
 538              	.LVL57:
 539 007c FFF7FEFF 		bl	__aeabi_d2f
 540              	.LVL58:
 541 0080 294B     		ldr	r3, .L40+16
 542 0082 1860     		str	r0, [r3]	@ float
  28:.\BlueTooth.h ****     
  29:.\BlueTooth.h ****     /*LCD_Position(1, 8);
  30:.\BlueTooth.h ****     LCD_PrintDecUint16(BT_Throttle);*/
  31:.\BlueTooth.h ****     
  32:.\BlueTooth.h ****     /*
  33:.\BlueTooth.h ****     //设定油门大小
  34:.\BlueTooth.h ****     set_speed_1 = BT_Throttle * 900 / 1024;
  35:.\BlueTooth.h ****     set_speed_2 = BT_Throttle * 900 / 1024;
  36:.\BlueTooth.h ****     set_speed_3 = BT_Throttle * 900 / 1024;
  37:.\BlueTooth.h ****     set_speed_4 = BT_Throttle * 900 / 1024;
  38:.\BlueTooth.h ****     */
  39:.\BlueTooth.h ****     
  40:.\BlueTooth.h ****     //遥控器控制的偏转（设定期望角度数据），上限角度30度，角速度40rad/s
  41:.\BlueTooth.h ****     Desire_angle_pitch = -((float)BT_Pitch - 512.0) * 30.0 / 512.0;
 543              		.loc 3 41 0
 544 0084 E868     		ldr	r0, [r5, #12]
 545 0086 FFF7FEFF 		bl	__aeabi_i2f
 546              	.LVL59:
 547 008a FFF7FEFF 		bl	__aeabi_f2d
 548              	.LVL60:
 549 008e 0022     		movs	r2, #0
 550 0090 4FF08143 		mov	r3, #1082130432
 551 0094 FFF7FEFF 		bl	__aeabi_dsub
 552              	.LVL61:
 553 0098 0246     		mov	r2, r0
 554 009a 0B46     		mov	r3, r1
 555 009c 1046     		mov	r0, r2
 556 009e 03F10041 		add	r1, r3, #-2147483648
 557 00a2 0022     		movs	r2, #0
 558 00a4 214B     		ldr	r3, .L40+20
 559 00a6 FFF7FEFF 		bl	__aeabi_dmul
 560              	.LVL62:
ARM GAS  C:\Users\ADMINI~1\AppData\Local\Temp\ccpQE0Fa.s 			page 14


 561 00aa 0022     		movs	r2, #0
 562 00ac 204B     		ldr	r3, .L40+24
 563 00ae FFF7FEFF 		bl	__aeabi_dmul
 564              	.LVL63:
 565 00b2 FFF7FEFF 		bl	__aeabi_d2f
 566              	.LVL64:
 567 00b6 1F4B     		ldr	r3, .L40+28
 568 00b8 1860     		str	r0, [r3]	@ float
  42:.\BlueTooth.h ****     Desire_angle_roll = ((float)BT_Roll - 512.0) * 30.0 / 512.0;
 569              		.loc 3 42 0
 570 00ba A868     		ldr	r0, [r5, #8]
 571 00bc FFF7FEFF 		bl	__aeabi_i2f
 572              	.LVL65:
 573 00c0 FFF7FEFF 		bl	__aeabi_f2d
 574              	.LVL66:
 575 00c4 0022     		movs	r2, #0
 576 00c6 4FF08143 		mov	r3, #1082130432
 577 00ca FFF7FEFF 		bl	__aeabi_dsub
 578              	.LVL67:
 579 00ce 0022     		movs	r2, #0
 580 00d0 164B     		ldr	r3, .L40+20
 581 00d2 FFF7FEFF 		bl	__aeabi_dmul
 582              	.LVL68:
 583 00d6 0022     		movs	r2, #0
 584 00d8 154B     		ldr	r3, .L40+24
 585 00da FFF7FEFF 		bl	__aeabi_dmul
 586              	.LVL69:
 587 00de FFF7FEFF 		bl	__aeabi_d2f
 588              	.LVL70:
 589 00e2 154B     		ldr	r3, .L40+32
 590 00e4 1860     		str	r0, [r3]	@ float
  43:.\BlueTooth.h ****     Desire_w_yaw = ((float)BT_Yaw - 512.0) * 40.0 / 512.0;
 591              		.loc 3 43 0
 592 00e6 6868     		ldr	r0, [r5, #4]
 593 00e8 FFF7FEFF 		bl	__aeabi_i2f
 594              	.LVL71:
 595 00ec FFF7FEFF 		bl	__aeabi_f2d
 596              	.LVL72:
 597 00f0 0022     		movs	r2, #0
 598 00f2 4FF08143 		mov	r3, #1082130432
 599 00f6 FFF7FEFF 		bl	__aeabi_dsub
 600              	.LVL73:
 601 00fa 0022     		movs	r2, #0
 602 00fc 0F4B     		ldr	r3, .L40+36
 603 00fe FFF7FEFF 		bl	__aeabi_dmul
 604              	.LVL74:
 605 0102 0022     		movs	r2, #0
 606 0104 0A4B     		ldr	r3, .L40+24
 607 0106 FFF7FEFF 		bl	__aeabi_dmul
 608              	.LVL75:
 609 010a FFF7FEFF 		bl	__aeabi_d2f
 610              	.LVL76:
 611 010e 0C4B     		ldr	r3, .L40+40
 612 0110 1860     		str	r0, [r3]	@ float
 613              	.LVL77:
 614              	.L35:
 615 0112 38BD     		pop	{r3, r4, r5, pc}
ARM GAS  C:\Users\ADMINI~1\AppData\Local\Temp\ccpQE0Fa.s 			page 15


 616              	.L41:
 617 0114 AFF30080 		.align	3
 618              	.L40:
 619 0118 85EB51B8 		.word	-1202590843
 620 011c 1E052E40 		.word	1076757790
 621 0120 00000000 		.word	.LANCHOR0
 622 0124 00000000 		.word	roll_angle_offset
 623 0128 00000000 		.word	pitch_angle_offset
 624 012c 00003E40 		.word	1077805056
 625 0130 0000603F 		.word	1063256064
 626 0134 00000000 		.word	Desire_angle_pitch
 627 0138 00000000 		.word	Desire_angle_roll
 628 013c 00004440 		.word	1078198272
 629 0140 00000000 		.word	Desire_w_yaw
 630              		.cfi_endproc
 631              	.LFE70:
 632              		.size	Process_Bluetooth_Message, .-Process_Bluetooth_Message
 633 0144 AFF30080 		.section	.text.Bluetooth_RX_Interrupt_Handler,"ax",%progbits
 634              		.align	2
 635              		.global	Bluetooth_RX_Interrupt_Handler
 636              		.thumb
 637              		.thumb_func
 638              		.type	Bluetooth_RX_Interrupt_Handler, %function
 639              	Bluetooth_RX_Interrupt_Handler:
 640              	.LFB76:
  65:.\main.c      ****     }
  66:.\main.c      **** }
  67:.\main.c      **** 
  68:.\main.c      **** //蓝牙接收与解码
  69:.\main.c      **** uint8 BTRxBuf[64];
  70:.\main.c      **** uint8 BTRxBufLen;
  71:.\main.c      **** uint8 tmp;
  72:.\main.c      **** int flag = 0;
  73:.\main.c      **** 
  74:.\main.c      **** CY_ISR(Bluetooth_RX_Interrupt_Handler) {
 641              		.loc 2 74 0
 642              		.cfi_startproc
 643              		@ args = 0, pretend = 0, frame = 0
 644              		@ frame_needed = 0, uses_anonymous_args = 0
 645 0000 08B5     		push	{r3, lr}
 646              		.cfi_def_cfa_offset 8
 647              		.cfi_offset 3, -8
 648              		.cfi_offset 14, -4
  75:.\main.c      ****     tmp = UART_Bluetooth_ReadRxData();
 649              		.loc 2 75 0
 650 0002 FFF7FEFF 		bl	UART_Bluetooth_ReadRxData
 651              	.LVL78:
 652 0006 164B     		ldr	r3, .L47
 653 0008 1870     		strb	r0, [r3]
  76:.\main.c      ****     //LCD_Disp("Ha", 1, 14);
  77:.\main.c      ****     if(tmp == 0xa5 && flag == 0) { //遇到起始位，开始接收
 654              		.loc 2 77 0
 655 000a A528     		cmp	r0, #165
 656 000c 0BD1     		bne	.L43
 657              		.loc 2 77 0 is_stmt 0 discriminator 1
 658 000e 154B     		ldr	r3, .L47+4
 659 0010 1B69     		ldr	r3, [r3, #16]
ARM GAS  C:\Users\ADMINI~1\AppData\Local\Temp\ccpQE0Fa.s 			page 16


 660 0012 43B9     		cbnz	r3, .L43
  78:.\main.c      ****         BTRxBuf[0] = 0xa5;
 661              		.loc 2 78 0 is_stmt 1
 662 0014 A522     		movs	r2, #165
 663 0016 144B     		ldr	r3, .L47+8
 664 0018 1A70     		strb	r2, [r3]
  79:.\main.c      ****         BTRxBufLen = 1;
 665              		.loc 2 79 0
 666 001a 0123     		movs	r3, #1
 667 001c 134A     		ldr	r2, .L47+12
 668 001e 1370     		strb	r3, [r2]
  80:.\main.c      ****         flag = 1;
 669              		.loc 2 80 0
 670 0020 104A     		ldr	r2, .L47+4
 671 0022 1361     		str	r3, [r2, #16]
 672 0024 08BD     		pop	{r3, pc}
 673              	.L43:
  81:.\main.c      ****     }
  82:.\main.c      ****     else 
  83:.\main.c      ****         if(flag == 1 && BTRxBufLen < 15) { //固定接收起始位之后的15个字节
 674              		.loc 2 83 0
 675 0026 0F4B     		ldr	r3, .L47+4
 676 0028 1B69     		ldr	r3, [r3, #16]
 677 002a 012B     		cmp	r3, #1
 678 002c 09D1     		bne	.L45
 679              		.loc 2 83 0 is_stmt 0 discriminator 1
 680 002e 0F4A     		ldr	r2, .L47+12
 681 0030 1278     		ldrb	r2, [r2]	@ zero_extendqisi2
 682 0032 0E2A     		cmp	r2, #14
 683 0034 05D8     		bhi	.L45
  84:.\main.c      ****             BTRxBuf[BTRxBufLen] = tmp;
 684              		.loc 2 84 0 is_stmt 1
 685 0036 0C4B     		ldr	r3, .L47+8
 686 0038 9854     		strb	r0, [r3, r2]
  85:.\main.c      ****             BTRxBufLen++;
 687              		.loc 2 85 0
 688 003a 0132     		adds	r2, r2, #1
 689 003c 0B4B     		ldr	r3, .L47+12
 690 003e 1A70     		strb	r2, [r3]
 691 0040 08BD     		pop	{r3, pc}
 692              	.L45:
  86:.\main.c      ****         }
  87:.\main.c      ****         else
  88:.\main.c      ****             if(flag == 1 && BTRxBufLen == 15) {
 693              		.loc 2 88 0
 694 0042 012B     		cmp	r3, #1
 695 0044 0BD1     		bne	.L42
 696              		.loc 2 88 0 is_stmt 0 discriminator 1
 697 0046 094B     		ldr	r3, .L47+12
 698 0048 1978     		ldrb	r1, [r3]	@ zero_extendqisi2
 699 004a 0F29     		cmp	r1, #15
 700 004c 07D1     		bne	.L42
  89:.\main.c      ****                 //LCD_Disp("GetData!", 1, 8); //输出提示信息
  90:.\main.c      ****                 Process_Bluetooth_Message(BTRxBuf, BTRxBufLen); //转入解码函数
 701              		.loc 2 90 0 is_stmt 1
 702 004e 0648     		ldr	r0, .L47+8
 703 0050 FFF7FEFF 		bl	Process_Bluetooth_Message
ARM GAS  C:\Users\ADMINI~1\AppData\Local\Temp\ccpQE0Fa.s 			page 17


 704              	.LVL79:
  91:.\main.c      ****                 BTRxBufLen = 0; //清空缓冲区
 705              		.loc 2 91 0
 706 0054 0023     		movs	r3, #0
 707 0056 054A     		ldr	r2, .L47+12
 708 0058 1370     		strb	r3, [r2]
  92:.\main.c      ****                 flag = 0;
 709              		.loc 2 92 0
 710 005a 024A     		ldr	r2, .L47+4
 711 005c 1361     		str	r3, [r2, #16]
 712              	.L42:
 713 005e 08BD     		pop	{r3, pc}
 714              	.L48:
 715              		.align	2
 716              	.L47:
 717 0060 00000000 		.word	tmp
 718 0064 00000000 		.word	.LANCHOR0
 719 0068 00000000 		.word	BTRxBuf
 720 006c 00000000 		.word	BTRxBufLen
 721              		.cfi_endproc
 722              	.LFE76:
 723              		.size	Bluetooth_RX_Interrupt_Handler, .-Bluetooth_RX_Interrupt_Handler
 724              		.section	.text.Init_JY901_Data,"ax",%progbits
 725              		.align	2
 726              		.global	Init_JY901_Data
 727              		.thumb
 728              		.thumb_func
 729              		.type	Init_JY901_Data, %function
 730              	Init_JY901_Data:
 731              	.LFB71:
 732              		.file 4 ".\\JY901.h"
   1:.\JY901.h     **** #ifndef JY901_H_
   2:.\JY901.h     **** #define JY901_H_
   3:.\JY901.h     ****     
   4:.\JY901.h     **** #include <project.h>
   5:.\JY901.h     ****     
   6:.\JY901.h     **** #ifndef ABS
   7:.\JY901.h     ****     #define ABS(x) (((x)>0)?(x):(-(x)))
   8:.\JY901.h     **** #endif
   9:.\JY901.h     **** 
  10:.\JY901.h     **** volatile float AccelX, AccelY, AccelZ;     //三轴加速度，单位为g
  11:.\JY901.h     **** volatile float OmegaX, OmegaY, OmegaZ;     //三轴角速度，单位为°/s
  12:.\JY901.h     **** volatile float Temperature;                //测量温度
  13:.\JY901.h     **** volatile float Roll, Pitch, Yaw;           //三轴角度，单位为°
  14:.\JY901.h     **** /* 
  15:.\JY901.h     ****  *  角度正方向定义：
  16:.\JY901.h     ****  *  抬机头Pitch正
  17:.\JY901.h     ****  *  左滚转Roll正
  18:.\JY901.h     ****  *  俯视逆时针转Yaw增大
  19:.\JY901.h     ****  */
  20:.\JY901.h     **** volatile int MagX, MagY, MagZ;             //三轴磁场
  21:.\JY901.h     **** volatile int Pressure, Height;             //气压和高度，单位为Pa和cm
  22:.\JY901.h     **** int i, sum;
  23:.\JY901.h     ****     
  24:.\JY901.h     **** void Init_JY901_Data() {
 733              		.loc 4 24 0
 734              		.cfi_startproc
ARM GAS  C:\Users\ADMINI~1\AppData\Local\Temp\ccpQE0Fa.s 			page 18


 735              		@ args = 0, pretend = 0, frame = 0
 736              		@ frame_needed = 0, uses_anonymous_args = 0
 737              		@ link register save eliminated.
  25:.\JY901.h     ****     AccelX = AccelY = AccelZ = 0.0;
 738              		.loc 4 25 0
 739 0000 0023     		movs	r3, #0
 740 0002 0E4A     		ldr	r2, .L50
 741 0004 1360     		str	r3, [r2]	@ float
 742 0006 0E4A     		ldr	r2, .L50+4
 743 0008 1360     		str	r3, [r2]	@ float
 744 000a 0E4A     		ldr	r2, .L50+8
 745 000c 1360     		str	r3, [r2]	@ float
  26:.\JY901.h     ****     OmegaX = OmegaY = OmegaZ = 0.0;
 746              		.loc 4 26 0
 747 000e 0E4A     		ldr	r2, .L50+12
 748 0010 1360     		str	r3, [r2]	@ float
 749 0012 0E4A     		ldr	r2, .L50+16
 750 0014 1360     		str	r3, [r2]	@ float
 751 0016 0E4A     		ldr	r2, .L50+20
 752 0018 1360     		str	r3, [r2]	@ float
  27:.\JY901.h     ****     Temperature = 0.0;
 753              		.loc 4 27 0
 754 001a 0E4A     		ldr	r2, .L50+24
 755 001c 1360     		str	r3, [r2]	@ float
  28:.\JY901.h     ****     Roll = Pitch = Yaw = 0.0;
 756              		.loc 4 28 0
 757 001e 0E4A     		ldr	r2, .L50+28
 758 0020 1360     		str	r3, [r2]	@ float
 759 0022 0E4A     		ldr	r2, .L50+32
 760 0024 1360     		str	r3, [r2]	@ float
 761 0026 0E4A     		ldr	r2, .L50+36
 762 0028 1360     		str	r3, [r2]	@ float
  29:.\JY901.h     ****     MagX = MagY = MagZ = 0.0;
 763              		.loc 4 29 0
 764 002a 0023     		movs	r3, #0
 765 002c 0D4A     		ldr	r2, .L50+40
 766 002e 1360     		str	r3, [r2]
 767 0030 0D4A     		ldr	r2, .L50+44
 768 0032 1360     		str	r3, [r2]
 769 0034 0D4A     		ldr	r2, .L50+48
 770 0036 1360     		str	r3, [r2]
 771 0038 7047     		bx	lr
 772              	.L51:
 773 003a 00BF     		.align	2
 774              	.L50:
 775 003c 00000000 		.word	AccelZ
 776 0040 00000000 		.word	AccelY
 777 0044 00000000 		.word	AccelX
 778 0048 00000000 		.word	OmegaZ
 779 004c 00000000 		.word	OmegaY
 780 0050 00000000 		.word	OmegaX
 781 0054 00000000 		.word	Temperature
 782 0058 00000000 		.word	Yaw
 783 005c 00000000 		.word	Pitch
 784 0060 00000000 		.word	Roll
 785 0064 00000000 		.word	MagZ
 786 0068 00000000 		.word	MagY
ARM GAS  C:\Users\ADMINI~1\AppData\Local\Temp\ccpQE0Fa.s 			page 19


 787 006c 00000000 		.word	MagX
 788              		.cfi_endproc
 789              	.LFE71:
 790              		.size	Init_JY901_Data, .-Init_JY901_Data
 791              		.section	.text.Decode_JY901_Data,"ax",%progbits
 792              		.align	2
 793              		.global	Decode_JY901_Data
 794              		.thumb
 795              		.thumb_func
 796              		.type	Decode_JY901_Data, %function
 797              	Decode_JY901_Data:
 798              	.LFB72:
  30:.\JY901.h     **** }
  31:.\JY901.h     ****     
  32:.\JY901.h     **** int Decode_JY901_Data(uint8 *buf, int len) {
 799              		.loc 4 32 0
 800              		.cfi_startproc
 801              		@ args = 0, pretend = 0, frame = 0
 802              		@ frame_needed = 0, uses_anonymous_args = 0
 803              	.LVL80:
  33:.\JY901.h     ****     if(len != 11 || buf[0] != 0x55)
 804              		.loc 4 33 0
 805 0000 0B29     		cmp	r1, #11
 806 0002 40F05D81 		bne	.L62
 807              		.loc 4 33 0 is_stmt 0 discriminator 1
 808 0006 0378     		ldrb	r3, [r0]	@ zero_extendqisi2
 809 0008 552B     		cmp	r3, #85
 810 000a 40F05B81 		bne	.L63
  32:.\JY901.h     ****     if(len != 11 || buf[0] != 0x55)
 811              		.loc 4 32 0 is_stmt 1
 812 000e 10B5     		push	{r4, lr}
 813              		.cfi_def_cfa_offset 8
 814              		.cfi_offset 4, -8
 815              		.cfi_offset 14, -4
  34:.\JY901.h     ****         return 0; //无效数据错误
  35:.\JY901.h     ****     /*if(buf[1] == 0x51) {
  36:.\JY901.h     ****     for(i = 0; i < 8; i++) {
  37:.\JY901.h     ****         LCD_Position(0, i*2);
  38:.\JY901.h     ****         LCD_PrintHexUint8(buf[i]);
  39:.\JY901.h     ****     }
  40:.\JY901.h     ****     for(i = 0; i < 3; i++) {
  41:.\JY901.h     ****         LCD_Position(1, i*2);
  42:.\JY901.h     ****         LCD_PrintHexUint8(buf[i + 8]);
  43:.\JY901.h     ****     }
  44:.\JY901.h     ****     }*/
  45:.\JY901.h     ****     sum = 0;
 816              		.loc 4 45 0
 817 0010 0023     		movs	r3, #0
 818 0012 AF4A     		ldr	r2, .L68
 819 0014 1360     		str	r3, [r2]
  46:.\JY901.h     ****     for(i = 0; i < 10; i++)
 820              		.loc 4 46 0
 821 0016 AF4A     		ldr	r2, .L68+4
 822 0018 1360     		str	r3, [r2]
 823 001a 07E0     		b	.L54
 824              	.LVL81:
 825              	.L55:
ARM GAS  C:\Users\ADMINI~1\AppData\Local\Temp\ccpQE0Fa.s 			page 20


  47:.\JY901.h     ****         sum += buf[i];
 826              		.loc 4 47 0 discriminator 3
 827 001c C45C     		ldrb	r4, [r0, r3]	@ zero_extendqisi2
 828 001e AC49     		ldr	r1, .L68
 829 0020 0A68     		ldr	r2, [r1]
 830 0022 2244     		add	r2, r2, r4
 831 0024 0A60     		str	r2, [r1]
  46:.\JY901.h     ****     for(i = 0; i < 10; i++)
 832              		.loc 4 46 0 discriminator 3
 833 0026 0133     		adds	r3, r3, #1
 834 0028 AA4A     		ldr	r2, .L68+4
 835 002a 1360     		str	r3, [r2]
 836              	.L54:
  46:.\JY901.h     ****     for(i = 0; i < 10; i++)
 837              		.loc 4 46 0 is_stmt 0 discriminator 1
 838 002c A94B     		ldr	r3, .L68+4
 839 002e 1B68     		ldr	r3, [r3]
 840 0030 092B     		cmp	r3, #9
 841 0032 F3DD     		ble	.L55
  48:.\JY901.h     ****     if(buf[10] != (sum & 0xff))
 842              		.loc 4 48 0 is_stmt 1
 843 0034 827A     		ldrb	r2, [r0, #10]	@ zero_extendqisi2
 844 0036 A64B     		ldr	r3, .L68
 845 0038 1B78     		ldrb	r3, [r3]	@ zero_extendqisi2
 846 003a 9A42     		cmp	r2, r3
 847 003c 40F04481 		bne	.L64
 848 0040 0446     		mov	r4, r0
  49:.\JY901.h     ****         return 1; //校验无效错误
  50:.\JY901.h     ****     
  51:.\JY901.h     ****     /*if(buf[1] == 0x52) {
  52:.\JY901.h     ****         LCD_Position(0, 0);
  53:.\JY901.h     ****         LCD_PrintHexUint8(buf[2]);
  54:.\JY901.h     ****         LCD_Position(0, 2);
  55:.\JY901.h     ****         LCD_PrintHexUint8(buf[3]);
  56:.\JY901.h     ****         LCD_Position(0, 5);
  57:.\JY901.h     ****         LCD_PrintHexUint8(buf[4]);
  58:.\JY901.h     ****         LCD_Position(0, 7);
  59:.\JY901.h     ****         LCD_PrintHexUint8(buf[5]);
  60:.\JY901.h     ****         LCD_Position(0, 10);
  61:.\JY901.h     ****         LCD_PrintHexUint8(buf[6]);
  62:.\JY901.h     ****         LCD_Position(0, 12);
  63:.\JY901.h     ****         LCD_PrintHexUint8(buf[7]);
  64:.\JY901.h     ****     }*/
  65:.\JY901.h     ****     
  66:.\JY901.h     ****     switch(buf[1]) {
 849              		.loc 4 66 0
 850 0042 4378     		ldrb	r3, [r0, #1]	@ zero_extendqisi2
 851 0044 513B     		subs	r3, r3, #81
 852 0046 052B     		cmp	r3, #5
 853 0048 00F24081 		bhi	.L65
 854 004c DFE813F0 		tbh	[pc, r3, lsl #1]
 855              	.L57:
 856 0050 0600     		.2byte	(.L56-.L57)/2
 857 0052 5800     		.2byte	(.L58-.L57)/2
 858 0054 AA00     		.2byte	(.L59-.L57)/2
 859 0056 FC00     		.2byte	(.L60-.L57)/2
 860 0058 3E01     		.2byte	(.L65-.L57)/2
ARM GAS  C:\Users\ADMINI~1\AppData\Local\Temp\ccpQE0Fa.s 			page 21


 861 005a 1E01     		.2byte	(.L61-.L57)/2
 862              		.p2align 1
 863              	.L56:
  67:.\JY901.h     ****         case 0x51: {
  68:.\JY901.h     ****             AccelX = (float)((short)((buf[3] << 8) | buf[2]))/32768.0*16.0;
 864              		.loc 4 68 0
 865 005c C078     		ldrb	r0, [r0, #3]	@ zero_extendqisi2
 866              	.LVL82:
 867 005e A378     		ldrb	r3, [r4, #2]	@ zero_extendqisi2
 868 0060 43EA0020 		orr	r0, r3, r0, lsl #8
 869 0064 00B2     		sxth	r0, r0
 870 0066 FFF7FEFF 		bl	__aeabi_i2f
 871              	.LVL83:
 872 006a FFF7FEFF 		bl	__aeabi_f2d
 873              	.LVL84:
 874 006e 0022     		movs	r2, #0
 875 0070 4FF07C53 		mov	r3, #1056964608
 876 0074 FFF7FEFF 		bl	__aeabi_dmul
 877              	.LVL85:
 878 0078 0022     		movs	r2, #0
 879 007a 974B     		ldr	r3, .L68+8
 880 007c FFF7FEFF 		bl	__aeabi_dmul
 881              	.LVL86:
 882 0080 FFF7FEFF 		bl	__aeabi_d2f
 883              	.LVL87:
 884 0084 954B     		ldr	r3, .L68+12
 885 0086 1860     		str	r0, [r3]	@ float
  69:.\JY901.h     ****             AccelY = (float)((short)((buf[5] << 8) | buf[4]))/32768.0*16.0;
 886              		.loc 4 69 0
 887 0088 6079     		ldrb	r0, [r4, #5]	@ zero_extendqisi2
 888 008a 2379     		ldrb	r3, [r4, #4]	@ zero_extendqisi2
 889 008c 43EA0020 		orr	r0, r3, r0, lsl #8
 890 0090 00B2     		sxth	r0, r0
 891 0092 FFF7FEFF 		bl	__aeabi_i2f
 892              	.LVL88:
 893 0096 FFF7FEFF 		bl	__aeabi_f2d
 894              	.LVL89:
 895 009a 0022     		movs	r2, #0
 896 009c 4FF07C53 		mov	r3, #1056964608
 897 00a0 FFF7FEFF 		bl	__aeabi_dmul
 898              	.LVL90:
 899 00a4 0022     		movs	r2, #0
 900 00a6 8C4B     		ldr	r3, .L68+8
 901 00a8 FFF7FEFF 		bl	__aeabi_dmul
 902              	.LVL91:
 903 00ac FFF7FEFF 		bl	__aeabi_d2f
 904              	.LVL92:
 905 00b0 8B4B     		ldr	r3, .L68+16
 906 00b2 1860     		str	r0, [r3]	@ float
  70:.\JY901.h     ****             AccelZ = (float)((short)((buf[7] << 8) | buf[6]))/32768.0*16.0;
 907              		.loc 4 70 0
 908 00b4 E079     		ldrb	r0, [r4, #7]	@ zero_extendqisi2
 909 00b6 A379     		ldrb	r3, [r4, #6]	@ zero_extendqisi2
 910 00b8 43EA0020 		orr	r0, r3, r0, lsl #8
 911 00bc 00B2     		sxth	r0, r0
 912 00be FFF7FEFF 		bl	__aeabi_i2f
 913              	.LVL93:
ARM GAS  C:\Users\ADMINI~1\AppData\Local\Temp\ccpQE0Fa.s 			page 22


 914 00c2 FFF7FEFF 		bl	__aeabi_f2d
 915              	.LVL94:
 916 00c6 0022     		movs	r2, #0
 917 00c8 4FF07C53 		mov	r3, #1056964608
 918 00cc FFF7FEFF 		bl	__aeabi_dmul
 919              	.LVL95:
 920 00d0 0022     		movs	r2, #0
 921 00d2 814B     		ldr	r3, .L68+8
 922 00d4 FFF7FEFF 		bl	__aeabi_dmul
 923              	.LVL96:
 924 00d8 FFF7FEFF 		bl	__aeabi_d2f
 925              	.LVL97:
 926 00dc 814B     		ldr	r3, .L68+20
 927 00de 1860     		str	r0, [r3]	@ float
  71:.\JY901.h     ****             Temperature = ((buf[9] << 8) | buf[8])/100.0;
 928              		.loc 4 71 0
 929 00e0 607A     		ldrb	r0, [r4, #9]	@ zero_extendqisi2
 930 00e2 237A     		ldrb	r3, [r4, #8]	@ zero_extendqisi2
 931 00e4 43EA0020 		orr	r0, r3, r0, lsl #8
 932 00e8 FFF7FEFF 		bl	__aeabi_i2d
 933              	.LVL98:
 934 00ec 0022     		movs	r2, #0
 935 00ee 7E4B     		ldr	r3, .L68+24
 936 00f0 FFF7FEFF 		bl	__aeabi_ddiv
 937              	.LVL99:
 938 00f4 FFF7FEFF 		bl	__aeabi_d2f
 939              	.LVL100:
 940 00f8 7C4B     		ldr	r3, .L68+28
 941 00fa 1860     		str	r0, [r3]	@ float
  72:.\JY901.h     ****             /*LCD_Position(1, 0);
  73:.\JY901.h     ****             LCD_PrintString("          ");
  74:.\JY901.h     ****             LCD_Position(1, 0);
  75:.\JY901.h     ****             LCD_PrintDecUint16((int)(AccelZ*1000.0));*/     
  76:.\JY901.h     ****             return 0x51;
 942              		.loc 4 76 0
 943 00fc 5120     		movs	r0, #81
 944 00fe 10BD     		pop	{r4, pc}
 945              	.LVL101:
 946              	.L58:
  77:.\JY901.h     ****             break;
  78:.\JY901.h     ****         }
  79:.\JY901.h     ****         case 0x52: {
  80:.\JY901.h     ****             OmegaX = (float)((short)((buf[3] << 8) | buf[2]))/32768.0*2000.0;
 947              		.loc 4 80 0
 948 0100 C078     		ldrb	r0, [r0, #3]	@ zero_extendqisi2
 949              	.LVL102:
 950 0102 A378     		ldrb	r3, [r4, #2]	@ zero_extendqisi2
 951 0104 43EA0020 		orr	r0, r3, r0, lsl #8
 952 0108 00B2     		sxth	r0, r0
 953 010a FFF7FEFF 		bl	__aeabi_i2f
 954              	.LVL103:
 955 010e FFF7FEFF 		bl	__aeabi_f2d
 956              	.LVL104:
 957 0112 0022     		movs	r2, #0
 958 0114 4FF07C53 		mov	r3, #1056964608
 959 0118 FFF7FEFF 		bl	__aeabi_dmul
 960              	.LVL105:
ARM GAS  C:\Users\ADMINI~1\AppData\Local\Temp\ccpQE0Fa.s 			page 23


 961 011c 0022     		movs	r2, #0
 962 011e 744B     		ldr	r3, .L68+32
 963 0120 FFF7FEFF 		bl	__aeabi_dmul
 964              	.LVL106:
 965 0124 FFF7FEFF 		bl	__aeabi_d2f
 966              	.LVL107:
 967 0128 724B     		ldr	r3, .L68+36
 968 012a 1860     		str	r0, [r3]	@ float
  81:.\JY901.h     ****             OmegaY = (float)((short)((buf[5] << 8) | buf[4]))/32768.0*2000.0;
 969              		.loc 4 81 0
 970 012c 6079     		ldrb	r0, [r4, #5]	@ zero_extendqisi2
 971 012e 2379     		ldrb	r3, [r4, #4]	@ zero_extendqisi2
 972 0130 43EA0020 		orr	r0, r3, r0, lsl #8
 973 0134 00B2     		sxth	r0, r0
 974 0136 FFF7FEFF 		bl	__aeabi_i2f
 975              	.LVL108:
 976 013a FFF7FEFF 		bl	__aeabi_f2d
 977              	.LVL109:
 978 013e 0022     		movs	r2, #0
 979 0140 4FF07C53 		mov	r3, #1056964608
 980 0144 FFF7FEFF 		bl	__aeabi_dmul
 981              	.LVL110:
 982 0148 0022     		movs	r2, #0
 983 014a 694B     		ldr	r3, .L68+32
 984 014c FFF7FEFF 		bl	__aeabi_dmul
 985              	.LVL111:
 986 0150 FFF7FEFF 		bl	__aeabi_d2f
 987              	.LVL112:
 988 0154 684B     		ldr	r3, .L68+40
 989 0156 1860     		str	r0, [r3]	@ float
  82:.\JY901.h     ****             OmegaZ = (float)((short)((buf[7] << 8) | buf[6]))/32768.0*2000.0;
 990              		.loc 4 82 0
 991 0158 E079     		ldrb	r0, [r4, #7]	@ zero_extendqisi2
 992 015a A379     		ldrb	r3, [r4, #6]	@ zero_extendqisi2
 993 015c 43EA0020 		orr	r0, r3, r0, lsl #8
 994 0160 00B2     		sxth	r0, r0
 995 0162 FFF7FEFF 		bl	__aeabi_i2f
 996              	.LVL113:
 997 0166 FFF7FEFF 		bl	__aeabi_f2d
 998              	.LVL114:
 999 016a 0022     		movs	r2, #0
 1000 016c 4FF07C53 		mov	r3, #1056964608
 1001 0170 FFF7FEFF 		bl	__aeabi_dmul
 1002              	.LVL115:
 1003 0174 0022     		movs	r2, #0
 1004 0176 5E4B     		ldr	r3, .L68+32
 1005 0178 FFF7FEFF 		bl	__aeabi_dmul
 1006              	.LVL116:
 1007 017c FFF7FEFF 		bl	__aeabi_d2f
 1008              	.LVL117:
 1009 0180 5E4B     		ldr	r3, .L68+44
 1010 0182 1860     		str	r0, [r3]	@ float
  83:.\JY901.h     ****             Temperature = ((buf[9] << 8) | buf[8])/100.0;
 1011              		.loc 4 83 0
 1012 0184 607A     		ldrb	r0, [r4, #9]	@ zero_extendqisi2
 1013 0186 237A     		ldrb	r3, [r4, #8]	@ zero_extendqisi2
 1014 0188 43EA0020 		orr	r0, r3, r0, lsl #8
ARM GAS  C:\Users\ADMINI~1\AppData\Local\Temp\ccpQE0Fa.s 			page 24


 1015 018c FFF7FEFF 		bl	__aeabi_i2d
 1016              	.LVL118:
 1017 0190 0022     		movs	r2, #0
 1018 0192 554B     		ldr	r3, .L68+24
 1019 0194 FFF7FEFF 		bl	__aeabi_ddiv
 1020              	.LVL119:
 1021 0198 FFF7FEFF 		bl	__aeabi_d2f
 1022              	.LVL120:
 1023 019c 534B     		ldr	r3, .L68+28
 1024 019e 1860     		str	r0, [r3]	@ float
  84:.\JY901.h     ****             
  85:.\JY901.h     ****             /*LCD_Position(1, 0);
  86:.\JY901.h     ****                     LCD_PrintDecUint16((int)(ABS(OmegaX)*10.0));
  87:.\JY901.h     ****                     LCD_Position(1, 5);
  88:.\JY901.h     ****                     LCD_PrintDecUint16((int)(ABS(OmegaY)*10.0));
  89:.\JY901.h     ****                     LCD_Position(1, 10);
  90:.\JY901.h     ****                     LCD_PrintDecUint16((int)(ABS(OmegaZ)*10.0));*/
  91:.\JY901.h     ****             
  92:.\JY901.h     ****             return 0x52;
 1025              		.loc 4 92 0
 1026 01a0 5220     		movs	r0, #82
 1027 01a2 10BD     		pop	{r4, pc}
 1028              	.LVL121:
 1029              	.L59:
  93:.\JY901.h     ****             break;
  94:.\JY901.h     ****         }
  95:.\JY901.h     ****         case 0x53: {
  96:.\JY901.h     ****             Roll  = (float)((short)((buf[3] << 8) | buf[2]))/32768.0*180.0;
 1030              		.loc 4 96 0
 1031 01a4 C078     		ldrb	r0, [r0, #3]	@ zero_extendqisi2
 1032              	.LVL122:
 1033 01a6 A378     		ldrb	r3, [r4, #2]	@ zero_extendqisi2
 1034 01a8 43EA0020 		orr	r0, r3, r0, lsl #8
 1035 01ac 00B2     		sxth	r0, r0
 1036 01ae FFF7FEFF 		bl	__aeabi_i2f
 1037              	.LVL123:
 1038 01b2 FFF7FEFF 		bl	__aeabi_f2d
 1039              	.LVL124:
 1040 01b6 0022     		movs	r2, #0
 1041 01b8 4FF07C53 		mov	r3, #1056964608
 1042 01bc FFF7FEFF 		bl	__aeabi_dmul
 1043              	.LVL125:
 1044 01c0 0022     		movs	r2, #0
 1045 01c2 4F4B     		ldr	r3, .L68+48
 1046 01c4 FFF7FEFF 		bl	__aeabi_dmul
 1047              	.LVL126:
 1048 01c8 FFF7FEFF 		bl	__aeabi_d2f
 1049              	.LVL127:
 1050 01cc 4D4B     		ldr	r3, .L68+52
 1051 01ce 1860     		str	r0, [r3]	@ float
  97:.\JY901.h     ****             Pitch = (float)((short)((buf[5] << 8) | buf[4]))/32768.0*180.0;
 1052              		.loc 4 97 0
 1053 01d0 6079     		ldrb	r0, [r4, #5]	@ zero_extendqisi2
 1054 01d2 2379     		ldrb	r3, [r4, #4]	@ zero_extendqisi2
 1055 01d4 43EA0020 		orr	r0, r3, r0, lsl #8
 1056 01d8 00B2     		sxth	r0, r0
 1057 01da FFF7FEFF 		bl	__aeabi_i2f
ARM GAS  C:\Users\ADMINI~1\AppData\Local\Temp\ccpQE0Fa.s 			page 25


 1058              	.LVL128:
 1059 01de FFF7FEFF 		bl	__aeabi_f2d
 1060              	.LVL129:
 1061 01e2 0022     		movs	r2, #0
 1062 01e4 4FF07C53 		mov	r3, #1056964608
 1063 01e8 FFF7FEFF 		bl	__aeabi_dmul
 1064              	.LVL130:
 1065 01ec 0022     		movs	r2, #0
 1066 01ee 444B     		ldr	r3, .L68+48
 1067 01f0 FFF7FEFF 		bl	__aeabi_dmul
 1068              	.LVL131:
 1069 01f4 FFF7FEFF 		bl	__aeabi_d2f
 1070              	.LVL132:
 1071 01f8 434B     		ldr	r3, .L68+56
 1072 01fa 1860     		str	r0, [r3]	@ float
  98:.\JY901.h     ****             Yaw   = (float)((short)((buf[7] << 8) | buf[6]))/32768.0*180.0;
 1073              		.loc 4 98 0
 1074 01fc E079     		ldrb	r0, [r4, #7]	@ zero_extendqisi2
 1075 01fe A379     		ldrb	r3, [r4, #6]	@ zero_extendqisi2
 1076 0200 43EA0020 		orr	r0, r3, r0, lsl #8
 1077 0204 00B2     		sxth	r0, r0
 1078 0206 FFF7FEFF 		bl	__aeabi_i2f
 1079              	.LVL133:
 1080 020a FFF7FEFF 		bl	__aeabi_f2d
 1081              	.LVL134:
 1082 020e 0022     		movs	r2, #0
 1083 0210 4FF07C53 		mov	r3, #1056964608
 1084 0214 FFF7FEFF 		bl	__aeabi_dmul
 1085              	.LVL135:
 1086 0218 0022     		movs	r2, #0
 1087 021a 394B     		ldr	r3, .L68+48
 1088 021c FFF7FEFF 		bl	__aeabi_dmul
 1089              	.LVL136:
 1090 0220 FFF7FEFF 		bl	__aeabi_d2f
 1091              	.LVL137:
 1092 0224 394B     		ldr	r3, .L68+60
 1093 0226 1860     		str	r0, [r3]	@ float
  99:.\JY901.h     ****             Temperature = ((buf[9] << 8) | buf[8])/100.0;
 1094              		.loc 4 99 0
 1095 0228 607A     		ldrb	r0, [r4, #9]	@ zero_extendqisi2
 1096 022a 237A     		ldrb	r3, [r4, #8]	@ zero_extendqisi2
 1097 022c 43EA0020 		orr	r0, r3, r0, lsl #8
 1098 0230 FFF7FEFF 		bl	__aeabi_i2d
 1099              	.LVL138:
 1100 0234 0022     		movs	r2, #0
 1101 0236 2C4B     		ldr	r3, .L68+24
 1102 0238 FFF7FEFF 		bl	__aeabi_ddiv
 1103              	.LVL139:
 1104 023c FFF7FEFF 		bl	__aeabi_d2f
 1105              	.LVL140:
 1106 0240 2A4B     		ldr	r3, .L68+28
 1107 0242 1860     		str	r0, [r3]	@ float
 100:.\JY901.h     ****             
 101:.\JY901.h     ****             /*LCD_Position(0, 0);
 102:.\JY901.h     ****             LCD_PrintDecUint16((int)Roll);
 103:.\JY901.h     ****             LCD_PrintString("     ");
 104:.\JY901.h     ****             LCD_Position(0, 5);
ARM GAS  C:\Users\ADMINI~1\AppData\Local\Temp\ccpQE0Fa.s 			page 26


 105:.\JY901.h     ****             LCD_PrintDecUint16((int)Pitch);
 106:.\JY901.h     ****             LCD_PrintString("     ");
 107:.\JY901.h     ****             LCD_Position(0, 10);
 108:.\JY901.h     ****             LCD_PrintDecUint16((int)Yaw);
 109:.\JY901.h     ****             LCD_PrintString("     ");*/
 110:.\JY901.h     ****                     
 111:.\JY901.h     ****             return 0x53;
 1108              		.loc 4 111 0
 1109 0244 5320     		movs	r0, #83
 1110 0246 10BD     		pop	{r4, pc}
 1111              	.LVL141:
 1112              	.L60:
 112:.\JY901.h     ****             break;
 113:.\JY901.h     ****         }
 114:.\JY901.h     ****         case 0x54: {
 115:.\JY901.h     ****             MagX = ((buf[3] << 8) | buf[2]);
 1113              		.loc 4 115 0
 1114 0248 C278     		ldrb	r2, [r0, #3]	@ zero_extendqisi2
 1115 024a 8378     		ldrb	r3, [r0, #2]	@ zero_extendqisi2
 1116 024c 43EA0223 		orr	r3, r3, r2, lsl #8
 1117 0250 2F4A     		ldr	r2, .L68+64
 1118 0252 1360     		str	r3, [r2]
 116:.\JY901.h     ****             MagY = ((buf[5] << 8) | buf[4]);
 1119              		.loc 4 116 0
 1120 0254 4279     		ldrb	r2, [r0, #5]	@ zero_extendqisi2
 1121 0256 0379     		ldrb	r3, [r0, #4]	@ zero_extendqisi2
 1122 0258 43EA0223 		orr	r3, r3, r2, lsl #8
 1123 025c 2D4A     		ldr	r2, .L68+68
 1124 025e 1360     		str	r3, [r2]
 117:.\JY901.h     ****             MagZ = ((buf[7] << 8) | buf[6]);
 1125              		.loc 4 117 0
 1126 0260 C279     		ldrb	r2, [r0, #7]	@ zero_extendqisi2
 1127 0262 8379     		ldrb	r3, [r0, #6]	@ zero_extendqisi2
 1128 0264 43EA0223 		orr	r3, r3, r2, lsl #8
 1129 0268 2B4A     		ldr	r2, .L68+72
 1130 026a 1360     		str	r3, [r2]
 118:.\JY901.h     ****             Temperature = ((buf[9] << 8) | buf[8])/100.0;
 1131              		.loc 4 118 0
 1132 026c 407A     		ldrb	r0, [r0, #9]	@ zero_extendqisi2
 1133              	.LVL142:
 1134 026e 237A     		ldrb	r3, [r4, #8]	@ zero_extendqisi2
 1135 0270 43EA0020 		orr	r0, r3, r0, lsl #8
 1136 0274 FFF7FEFF 		bl	__aeabi_i2d
 1137              	.LVL143:
 1138 0278 0022     		movs	r2, #0
 1139 027a 1B4B     		ldr	r3, .L68+24
 1140 027c FFF7FEFF 		bl	__aeabi_ddiv
 1141              	.LVL144:
 1142 0280 FFF7FEFF 		bl	__aeabi_d2f
 1143              	.LVL145:
 1144 0284 194B     		ldr	r3, .L68+28
 1145 0286 1860     		str	r0, [r3]	@ float
 119:.\JY901.h     ****             return 0x54;
 1146              		.loc 4 119 0
 1147 0288 5420     		movs	r0, #84
 1148 028a 10BD     		pop	{r4, pc}
 1149              	.LVL146:
ARM GAS  C:\Users\ADMINI~1\AppData\Local\Temp\ccpQE0Fa.s 			page 27


 1150              	.L61:
 120:.\JY901.h     ****             break;
 121:.\JY901.h     ****         }
 122:.\JY901.h     ****         case 0x56: {
 123:.\JY901.h     ****             Pressure = (buf[5] << 24) | (buf[4] << 16) | (buf[3] << 8) | buf[2];
 1151              		.loc 4 123 0
 1152 028c 4279     		ldrb	r2, [r0, #5]	@ zero_extendqisi2
 1153 028e 0379     		ldrb	r3, [r0, #4]	@ zero_extendqisi2
 1154 0290 1B04     		lsls	r3, r3, #16
 1155 0292 43EA0263 		orr	r3, r3, r2, lsl #24
 1156 0296 C278     		ldrb	r2, [r0, #3]	@ zero_extendqisi2
 1157 0298 43EA0223 		orr	r3, r3, r2, lsl #8
 1158 029c 8278     		ldrb	r2, [r0, #2]	@ zero_extendqisi2
 1159 029e 1343     		orrs	r3, r3, r2
 1160 02a0 1E4A     		ldr	r2, .L68+76
 1161 02a2 1360     		str	r3, [r2]
 124:.\JY901.h     ****             Height = (buf[9] << 24) | (buf[8] << 16) | (buf[7] << 8) | buf[6];
 1162              		.loc 4 124 0
 1163 02a4 427A     		ldrb	r2, [r0, #9]	@ zero_extendqisi2
 1164 02a6 037A     		ldrb	r3, [r0, #8]	@ zero_extendqisi2
 1165 02a8 1B04     		lsls	r3, r3, #16
 1166 02aa 43EA0263 		orr	r3, r3, r2, lsl #24
 1167 02ae C279     		ldrb	r2, [r0, #7]	@ zero_extendqisi2
 1168 02b0 43EA0223 		orr	r3, r3, r2, lsl #8
 1169 02b4 8279     		ldrb	r2, [r0, #6]	@ zero_extendqisi2
 1170 02b6 1343     		orrs	r3, r3, r2
 1171 02b8 194A     		ldr	r2, .L68+80
 1172 02ba 1360     		str	r3, [r2]
 125:.\JY901.h     ****             return 0x56;
 1173              		.loc 4 125 0
 1174 02bc 5620     		movs	r0, #86
 1175              	.LVL147:
 1176 02be 10BD     		pop	{r4, pc}
 1177              	.LVL148:
 1178              	.L62:
 1179              		.cfi_def_cfa_offset 0
 1180              		.cfi_restore 4
 1181              		.cfi_restore 14
  34:.\JY901.h     ****     /*if(buf[1] == 0x51) {
 1182              		.loc 4 34 0
 1183 02c0 0020     		movs	r0, #0
 1184              	.LVL149:
 126:.\JY901.h     ****             break;
 127:.\JY901.h     ****         }
 128:.\JY901.h     ****         default: {
 129:.\JY901.h     ****             return 0;
 130:.\JY901.h     ****             break;
 131:.\JY901.h     ****         }
 132:.\JY901.h     ****     }
 133:.\JY901.h     ****     return 0;
 134:.\JY901.h     **** }
 1185              		.loc 4 134 0
 1186 02c2 7047     		bx	lr
 1187              	.LVL150:
 1188              	.L63:
  34:.\JY901.h     ****     /*if(buf[1] == 0x51) {
 1189              		.loc 4 34 0
ARM GAS  C:\Users\ADMINI~1\AppData\Local\Temp\ccpQE0Fa.s 			page 28


 1190 02c4 0020     		movs	r0, #0
 1191              	.LVL151:
 1192 02c6 7047     		bx	lr
 1193              	.LVL152:
 1194              	.L64:
 1195              		.cfi_def_cfa_offset 8
 1196              		.cfi_offset 4, -8
 1197              		.cfi_offset 14, -4
  49:.\JY901.h     ****     
 1198              		.loc 4 49 0
 1199 02c8 0120     		movs	r0, #1
 1200              	.LVL153:
 1201 02ca 10BD     		pop	{r4, pc}
 1202              	.LVL154:
 1203              	.L65:
 129:.\JY901.h     ****             break;
 1204              		.loc 4 129 0
 1205 02cc 0020     		movs	r0, #0
 1206              	.LVL155:
 1207              		.loc 4 134 0
 1208 02ce 10BD     		pop	{r4, pc}
 1209              	.LVL156:
 1210              	.L69:
 1211              		.align	2
 1212              	.L68:
 1213 02d0 00000000 		.word	sum
 1214 02d4 00000000 		.word	i
 1215 02d8 00003040 		.word	1076887552
 1216 02dc 00000000 		.word	AccelX
 1217 02e0 00000000 		.word	AccelY
 1218 02e4 00000000 		.word	AccelZ
 1219 02e8 00005940 		.word	1079574528
 1220 02ec 00000000 		.word	Temperature
 1221 02f0 00409F40 		.word	1084178432
 1222 02f4 00000000 		.word	OmegaX
 1223 02f8 00000000 		.word	OmegaY
 1224 02fc 00000000 		.word	OmegaZ
 1225 0300 00806640 		.word	1080459264
 1226 0304 00000000 		.word	Roll
 1227 0308 00000000 		.word	Pitch
 1228 030c 00000000 		.word	Yaw
 1229 0310 00000000 		.word	MagX
 1230 0314 00000000 		.word	MagY
 1231 0318 00000000 		.word	MagZ
 1232 031c 00000000 		.word	Pressure
 1233 0320 00000000 		.word	Height
 1234              		.cfi_endproc
 1235              	.LFE72:
 1236              		.size	Decode_JY901_Data, .-Decode_JY901_Data
 1237              		.section	.text.JY901_RX_Interrupt_Handler,"ax",%progbits
 1238              		.align	2
 1239              		.global	JY901_RX_Interrupt_Handler
 1240              		.thumb
 1241              		.thumb_func
 1242              		.type	JY901_RX_Interrupt_Handler, %function
 1243              	JY901_RX_Interrupt_Handler:
 1244              	.LFB79:
ARM GAS  C:\Users\ADMINI~1\AppData\Local\Temp\ccpQE0Fa.s 			page 29


  93:.\main.c      ****             }
  94:.\main.c      **** }
  95:.\main.c      **** 
  96:.\main.c      **** //JY901串口接收与解码
  97:.\main.c      **** uint8 JY901RxBuf[64];
  98:.\main.c      **** uint8 JY901RxBufLen;
  99:.\main.c      **** uint8 tmp2;
 100:.\main.c      **** int flag_55 = 0;
 101:.\main.c      **** int flag_rec = 0;
 102:.\main.c      **** int decode_success;
 103:.\main.c      **** 
 104:.\main.c      **** //在LCD屏上显示角度
 105:.\main.c      **** char LCDBuffer[16];
 106:.\main.c      **** int float2int_tmp;
 107:.\main.c      **** char symbol;
 108:.\main.c      **** float f_tmp;
 109:.\main.c      **** void Float28Str(float f) {
 110:.\main.c      ****     f_tmp = f;
 111:.\main.c      ****     symbol = (f_tmp < 0) ? '-' : ' ';
 112:.\main.c      ****     f_tmp = (f_tmp < 0) ? (-f_tmp) : f_tmp;
 113:.\main.c      ****     float2int_tmp = (int)(f_tmp*1000.0);
 114:.\main.c      ****     sprintf(LCDBuffer, "%c%3d.%d", symbol, float2int_tmp/1000, float2int_tmp%1000);
 115:.\main.c      ****     LCDBuffer[8] = '\0';
 116:.\main.c      **** }
 117:.\main.c      **** 
 118:.\main.c      **** void LCD_DisplayAngle() {
 119:.\main.c      ****     Float28Str(Roll);
 120:.\main.c      ****     LCD_Disp(LCDBuffer, 0, 0);
 121:.\main.c      ****     Float28Str(Pitch);
 122:.\main.c      ****     LCD_Disp(LCDBuffer, 0, 8);
 123:.\main.c      ****     Float28Str(Yaw);
 124:.\main.c      ****     LCD_Disp(LCDBuffer, 1, 0);
 125:.\main.c      **** }
 126:.\main.c      **** 
 127:.\main.c      **** CY_ISR(JY901_RX_Interrupt_Handler) {
 1245              		.loc 2 127 0
 1246              		.cfi_startproc
 1247              		@ args = 0, pretend = 0, frame = 0
 1248              		@ frame_needed = 0, uses_anonymous_args = 0
 1249 0000 08B5     		push	{r3, lr}
 1250              		.cfi_def_cfa_offset 8
 1251              		.cfi_offset 3, -8
 1252              		.cfi_offset 14, -4
 128:.\main.c      ****     tmp2 = UART_JY901_ReadRxData();
 1253              		.loc 2 128 0
 1254 0002 FFF7FEFF 		bl	UART_JY901_ReadRxData
 1255              	.LVL157:
 1256 0006 204B     		ldr	r3, .L76
 1257 0008 1870     		strb	r0, [r3]
 129:.\main.c      ****     
 130:.\main.c      ****     if(tmp2 == 0x55 && flag_55 == 0) //接收到数据起始位
 1258              		.loc 2 130 0
 1259 000a 5528     		cmp	r0, #85
 1260 000c 06D1     		bne	.L71
 1261              		.loc 2 130 0 is_stmt 0 discriminator 1
 1262 000e 1F4B     		ldr	r3, .L76+4
 1263 0010 5B69     		ldr	r3, [r3, #20]
ARM GAS  C:\Users\ADMINI~1\AppData\Local\Temp\ccpQE0Fa.s 			page 30


 1264 0012 1BB9     		cbnz	r3, .L71
 131:.\main.c      ****         flag_55 = 1;
 1265              		.loc 2 131 0 is_stmt 1
 1266 0014 0122     		movs	r2, #1
 1267 0016 1D4B     		ldr	r3, .L76+4
 1268 0018 5A61     		str	r2, [r3, #20]
 1269 001a 08BD     		pop	{r3, pc}
 1270              	.L71:
 132:.\main.c      ****     else
 133:.\main.c      ****         if(tmp2 >= 0x51 && tmp2 <= 0x54 && flag_55 == 1 && flag_rec == 0) { //接收到数据类型
 1271              		.loc 2 133 0
 1272 001c A0F15103 		sub	r3, r0, #81
 1273 0020 DBB2     		uxtb	r3, r3
 1274 0022 032B     		cmp	r3, #3
 1275 0024 12D8     		bhi	.L73
 1276              		.loc 2 133 0 is_stmt 0 discriminator 1
 1277 0026 194B     		ldr	r3, .L76+4
 1278 0028 5B69     		ldr	r3, [r3, #20]
 1279 002a 012B     		cmp	r3, #1
 1280 002c 0ED1     		bne	.L73
 1281              		.loc 2 133 0 discriminator 2
 1282 002e 174B     		ldr	r3, .L76+4
 1283 0030 9B69     		ldr	r3, [r3, #24]
 1284 0032 5BB9     		cbnz	r3, .L73
 134:.\main.c      ****             JY901RxBuf[0] = 0x55;
 1285              		.loc 2 134 0 is_stmt 1
 1286 0034 164B     		ldr	r3, .L76+8
 1287 0036 5522     		movs	r2, #85
 1288 0038 1A70     		strb	r2, [r3]
 135:.\main.c      ****             JY901RxBuf[1] = tmp2;
 1289              		.loc 2 135 0
 1290 003a 5870     		strb	r0, [r3, #1]
 136:.\main.c      ****             JY901RxBufLen = 2;
 1291              		.loc 2 136 0
 1292 003c 0222     		movs	r2, #2
 1293 003e 154B     		ldr	r3, .L76+12
 1294 0040 1A70     		strb	r2, [r3]
 137:.\main.c      ****             flag_rec = 1;
 1295              		.loc 2 137 0
 1296 0042 124B     		ldr	r3, .L76+4
 1297 0044 0122     		movs	r2, #1
 1298 0046 9A61     		str	r2, [r3, #24]
 138:.\main.c      ****             flag_55 = 1;
 1299              		.loc 2 138 0
 1300 0048 5A61     		str	r2, [r3, #20]
 1301 004a 08BD     		pop	{r3, pc}
 1302              	.L73:
 139:.\main.c      ****         }
 140:.\main.c      ****         else
 141:.\main.c      ****             if(flag_rec == 1) { //储存特定长度的数据
 1303              		.loc 2 141 0
 1304 004c 0F4B     		ldr	r3, .L76+4
 1305 004e 9B69     		ldr	r3, [r3, #24]
 1306 0050 012B     		cmp	r3, #1
 1307 0052 14D1     		bne	.L74
 142:.\main.c      ****                 JY901RxBuf[JY901RxBufLen++] = tmp2;
 1308              		.loc 2 142 0
ARM GAS  C:\Users\ADMINI~1\AppData\Local\Temp\ccpQE0Fa.s 			page 31


 1309 0054 0F4A     		ldr	r2, .L76+12
 1310 0056 1378     		ldrb	r3, [r2]	@ zero_extendqisi2
 1311 0058 591C     		adds	r1, r3, #1
 1312 005a C9B2     		uxtb	r1, r1
 1313 005c 1170     		strb	r1, [r2]
 1314 005e 0C4A     		ldr	r2, .L76+8
 1315 0060 D054     		strb	r0, [r2, r3]
 143:.\main.c      ****                 if(JY901RxBufLen == 11) { //接收完一段完整数据
 1316              		.loc 2 143 0
 1317 0062 0B29     		cmp	r1, #11
 1318 0064 0FD1     		bne	.L70
 144:.\main.c      ****                     decode_success = Decode_JY901_Data(JY901RxBuf, JY901RxBufLen);
 1319              		.loc 2 144 0
 1320 0066 1046     		mov	r0, r2
 1321 0068 FFF7FEFF 		bl	Decode_JY901_Data
 1322              	.LVL158:
 1323 006c 0A4B     		ldr	r3, .L76+16
 1324 006e 1860     		str	r0, [r3]
 145:.\main.c      ****                     JY901RxBufLen = 0;
 1325              		.loc 2 145 0
 1326 0070 0023     		movs	r3, #0
 1327 0072 084A     		ldr	r2, .L76+12
 1328 0074 1370     		strb	r3, [r2]
 146:.\main.c      ****                     flag_rec = 0;
 1329              		.loc 2 146 0
 1330 0076 054A     		ldr	r2, .L76+4
 1331 0078 9361     		str	r3, [r2, #24]
 147:.\main.c      ****                     flag_55 = 0;
 1332              		.loc 2 147 0
 1333 007a 5361     		str	r3, [r2, #20]
 1334 007c 08BD     		pop	{r3, pc}
 1335              	.L74:
 148:.\main.c      ****                 }
 149:.\main.c      ****             }
 150:.\main.c      ****             else
 151:.\main.c      ****                 flag_55 = flag_rec = 0; //其他情况清空标志位
 1336              		.loc 2 151 0
 1337 007e 034B     		ldr	r3, .L76+4
 1338 0080 0022     		movs	r2, #0
 1339 0082 9A61     		str	r2, [r3, #24]
 1340 0084 5A61     		str	r2, [r3, #20]
 1341              	.L70:
 1342 0086 08BD     		pop	{r3, pc}
 1343              	.L77:
 1344              		.align	2
 1345              	.L76:
 1346 0088 00000000 		.word	tmp2
 1347 008c 00000000 		.word	.LANCHOR0
 1348 0090 00000000 		.word	JY901RxBuf
 1349 0094 00000000 		.word	JY901RxBufLen
 1350 0098 00000000 		.word	decode_success
 1351              		.cfi_endproc
 1352              	.LFE79:
 1353              		.size	JY901_RX_Interrupt_Handler, .-JY901_RX_Interrupt_Handler
 1354              		.section	.text.LCD_Disp,"ax",%progbits
 1355              		.align	2
 1356              		.global	LCD_Disp
ARM GAS  C:\Users\ADMINI~1\AppData\Local\Temp\ccpQE0Fa.s 			page 32


 1357              		.thumb
 1358              		.thumb_func
 1359              		.type	LCD_Disp, %function
 1360              	LCD_Disp:
 1361              	.LFB73:
  21:.\main.c      ****     LCD_Position(row, col);
 1362              		.loc 2 21 0
 1363              		.cfi_startproc
 1364              		@ args = 0, pretend = 0, frame = 0
 1365              		@ frame_needed = 0, uses_anonymous_args = 0
 1366              	.LVL159:
 1367 0000 10B5     		push	{r4, lr}
 1368              		.cfi_def_cfa_offset 8
 1369              		.cfi_offset 4, -8
 1370              		.cfi_offset 14, -4
 1371 0002 0446     		mov	r4, r0
  22:.\main.c      ****     LCD_PrintString(str);
 1372              		.loc 2 22 0
 1373 0004 0846     		mov	r0, r1
 1374              	.LVL160:
 1375 0006 1146     		mov	r1, r2
 1376              	.LVL161:
 1377 0008 FFF7FEFF 		bl	LCD_Position
 1378              	.LVL162:
  23:.\main.c      **** }
 1379              		.loc 2 23 0
 1380 000c 2046     		mov	r0, r4
 1381 000e FFF7FEFF 		bl	LCD_PrintString
 1382              	.LVL163:
 1383 0012 10BD     		pop	{r4, pc}
 1384              		.cfi_endproc
 1385              	.LFE73:
 1386              		.size	LCD_Disp, .-LCD_Disp
 1387              		.global	__aeabi_fcmpgt
 1388              		.global	__aeabi_f2iz
 1389              		.global	__aeabi_fsub
 1390              		.global	__aeabi_d2iz
 1391              		.section	.text.Convert_Float2String,"ax",%progbits
 1392              		.align	2
 1393              		.global	Convert_Float2String
 1394              		.thumb
 1395              		.thumb_func
 1396              		.type	Convert_Float2String, %function
 1397              	Convert_Float2String:
 1398              	.LFB74:
  30:.\main.c      ****     uint8 symbol = (x > 0.0) ? 1 : 0;
 1399              		.loc 2 30 0
 1400              		.cfi_startproc
 1401              		@ args = 0, pretend = 0, frame = 0
 1402              		@ frame_needed = 0, uses_anonymous_args = 0
 1403              	.LVL164:
 1404 0000 F0B5     		push	{r4, r5, r6, r7, lr}
 1405              		.cfi_def_cfa_offset 20
 1406              		.cfi_offset 4, -20
 1407              		.cfi_offset 5, -16
 1408              		.cfi_offset 6, -12
 1409              		.cfi_offset 7, -8
ARM GAS  C:\Users\ADMINI~1\AppData\Local\Temp\ccpQE0Fa.s 			page 33


 1410              		.cfi_offset 14, -4
 1411 0002 83B0     		sub	sp, sp, #12
 1412              		.cfi_def_cfa_offset 32
 1413 0004 0746     		mov	r7, r0
 1414 0006 0C46     		mov	r4, r1
  31:.\main.c      ****     float num = ABS(x);
 1415              		.loc 2 31 0
 1416 0008 4FF00105 		mov	r5, #1
 1417 000c 0846     		mov	r0, r1
 1418              	.LVL165:
 1419 000e 0021     		movs	r1, #0
 1420              	.LVL166:
 1421 0010 FFF7FEFF 		bl	__aeabi_fcmpgt
 1422              	.LVL167:
 1423 0014 08B9     		cbnz	r0, .L81
 1424 0016 4FF00005 		mov	r5, #0
 1425              	.L81:
 1426 001a EDB2     		uxtb	r5, r5
 1427              	.LVL168:
  32:.\main.c      ****     int int_part = (int)num;
 1428              		.loc 2 32 0
 1429 001c 2046     		mov	r0, r4
 1430 001e 0021     		movs	r1, #0
 1431 0020 FFF7FEFF 		bl	__aeabi_fcmpgt
 1432              	.LVL169:
 1433 0024 08B9     		cbnz	r0, .L82
  32:.\main.c      ****     int int_part = (int)num;
 1434              		.loc 2 32 0 is_stmt 0 discriminator 2
 1435 0026 04F10044 		add	r4, r4, #-2147483648
 1436              	.LVL170:
 1437              	.L82:
  33:.\main.c      ****     int float_2part = (int)((num - int_part)*100.0); //取两位小数
 1438              		.loc 2 33 0 is_stmt 1 discriminator 4
 1439 002a 2046     		mov	r0, r4
 1440 002c FFF7FEFF 		bl	__aeabi_f2iz
 1441              	.LVL171:
 1442 0030 0646     		mov	r6, r0
 1443              	.LVL172:
  34:.\main.c      ****     if(float_2part >= 10)
 1444              		.loc 2 34 0 discriminator 4
 1445 0032 FFF7FEFF 		bl	__aeabi_i2f
 1446              	.LVL173:
 1447 0036 0146     		mov	r1, r0
 1448 0038 2046     		mov	r0, r4
 1449 003a FFF7FEFF 		bl	__aeabi_fsub
 1450              	.LVL174:
 1451 003e FFF7FEFF 		bl	__aeabi_f2d
 1452              	.LVL175:
 1453 0042 0022     		movs	r2, #0
 1454 0044 144B     		ldr	r3, .L93
 1455 0046 FFF7FEFF 		bl	__aeabi_dmul
 1456              	.LVL176:
 1457 004a FFF7FEFF 		bl	__aeabi_d2iz
 1458              	.LVL177:
  35:.\main.c      ****         sprintf(str, "%c%d.%d", (symbol == 1)?'+':'-', int_part, float_2part);
 1459              		.loc 2 35 0 discriminator 4
 1460 004e 0928     		cmp	r0, #9
ARM GAS  C:\Users\ADMINI~1\AppData\Local\Temp\ccpQE0Fa.s 			page 34


 1461 0050 0ADD     		ble	.L83
  36:.\main.c      ****     else
 1462              		.loc 2 36 0
 1463 0052 0DB1     		cbz	r5, .L89
 1464 0054 2B22     		movs	r2, #43
 1465 0056 00E0     		b	.L84
 1466              	.L89:
 1467 0058 2D22     		movs	r2, #45
 1468              	.L84:
  36:.\main.c      ****     else
 1469              		.loc 2 36 0 is_stmt 0 discriminator 4
 1470 005a 0090     		str	r0, [sp]
 1471 005c 3846     		mov	r0, r7
 1472              	.LVL178:
 1473 005e 0F49     		ldr	r1, .L93+4
 1474 0060 3346     		mov	r3, r6
 1475 0062 FFF7FEFF 		bl	sprintf
 1476              	.LVL179:
 1477 0066 15E0     		b	.L80
 1478              	.LVL180:
 1479              	.L83:
  38:.\main.c      ****             sprintf(str, "%c%d.0%d", (symbol == 1)?'+':'-', int_part, float_2part);
 1480              		.loc 2 38 0 is_stmt 1
 1481 0068 0028     		cmp	r0, #0
 1482 006a 0ADD     		ble	.L86
  39:.\main.c      ****         else
 1483              		.loc 2 39 0
 1484 006c 0DB1     		cbz	r5, .L90
 1485 006e 2B22     		movs	r2, #43
 1486 0070 00E0     		b	.L87
 1487              	.L90:
 1488 0072 2D22     		movs	r2, #45
 1489              	.L87:
  39:.\main.c      ****         else
 1490              		.loc 2 39 0 is_stmt 0 discriminator 4
 1491 0074 0090     		str	r0, [sp]
 1492 0076 3846     		mov	r0, r7
 1493              	.LVL181:
 1494 0078 0949     		ldr	r1, .L93+8
 1495 007a 3346     		mov	r3, r6
 1496 007c FFF7FEFF 		bl	sprintf
 1497              	.LVL182:
 1498 0080 08E0     		b	.L80
 1499              	.LVL183:
 1500              	.L86:
  41:.\main.c      **** }
 1501              		.loc 2 41 0 is_stmt 1
 1502 0082 0DB1     		cbz	r5, .L91
 1503 0084 2B22     		movs	r2, #43
 1504 0086 00E0     		b	.L88
 1505              	.L91:
 1506 0088 2D22     		movs	r2, #45
 1507              	.L88:
  41:.\main.c      **** }
 1508              		.loc 2 41 0 is_stmt 0 discriminator 4
 1509 008a 3846     		mov	r0, r7
 1510              	.LVL184:
ARM GAS  C:\Users\ADMINI~1\AppData\Local\Temp\ccpQE0Fa.s 			page 35


 1511 008c 0549     		ldr	r1, .L93+12
 1512 008e 3346     		mov	r3, r6
 1513 0090 FFF7FEFF 		bl	sprintf
 1514              	.LVL185:
 1515              	.L80:
  42:.\main.c      **** 
 1516              		.loc 2 42 0 is_stmt 1
 1517 0094 03B0     		add	sp, sp, #12
 1518              		.cfi_def_cfa_offset 20
 1519              		@ sp needed
 1520 0096 F0BD     		pop	{r4, r5, r6, r7, pc}
 1521              	.LVL186:
 1522              	.L94:
 1523              		.align	2
 1524              	.L93:
 1525 0098 00005940 		.word	1079574528
 1526 009c 00000000 		.word	.LC0
 1527 00a0 08000000 		.word	.LC1
 1528 00a4 14000000 		.word	.LC2
 1529              		.cfi_endproc
 1530              	.LFE74:
 1531              		.size	Convert_Float2String, .-Convert_Float2String
 1532              		.global	__aeabi_fcmplt
 1533              		.section	.text.Float28Str,"ax",%progbits
 1534              		.align	2
 1535              		.global	Float28Str
 1536              		.thumb
 1537              		.thumb_func
 1538              		.type	Float28Str, %function
 1539              	Float28Str:
 1540              	.LFB77:
 109:.\main.c      ****     f_tmp = f;
 1541              		.loc 2 109 0
 1542              		.cfi_startproc
 1543              		@ args = 0, pretend = 0, frame = 0
 1544              		@ frame_needed = 0, uses_anonymous_args = 0
 1545              	.LVL187:
 1546 0000 30B5     		push	{r4, r5, lr}
 1547              		.cfi_def_cfa_offset 12
 1548              		.cfi_offset 4, -12
 1549              		.cfi_offset 5, -8
 1550              		.cfi_offset 14, -4
 1551 0002 83B0     		sub	sp, sp, #12
 1552              		.cfi_def_cfa_offset 24
 1553 0004 0446     		mov	r4, r0
 111:.\main.c      ****     f_tmp = (f_tmp < 0) ? (-f_tmp) : f_tmp;
 1554              		.loc 2 111 0
 1555 0006 0021     		movs	r1, #0
 1556 0008 FFF7FEFF 		bl	__aeabi_fcmplt
 1557              	.LVL188:
 1558 000c 08B1     		cbz	r0, .L104
 1559 000e 2D25     		movs	r5, #45
 1560 0010 00E0     		b	.L96
 1561              	.L104:
 1562 0012 2025     		movs	r5, #32
 1563              	.L96:
 111:.\main.c      ****     f_tmp = (f_tmp < 0) ? (-f_tmp) : f_tmp;
ARM GAS  C:\Users\ADMINI~1\AppData\Local\Temp\ccpQE0Fa.s 			page 36


 1564              		.loc 2 111 0 is_stmt 0 discriminator 4
 1565 0014 154B     		ldr	r3, .L107
 1566 0016 1D70     		strb	r5, [r3]
 112:.\main.c      ****     float2int_tmp = (int)(f_tmp*1000.0);
 1567              		.loc 2 112 0 is_stmt 1 discriminator 4
 1568 0018 2046     		mov	r0, r4
 1569 001a 0021     		movs	r1, #0
 1570 001c FFF7FEFF 		bl	__aeabi_fcmplt
 1571              	.LVL189:
 1572 0020 10B1     		cbz	r0, .L105
 112:.\main.c      ****     float2int_tmp = (int)(f_tmp*1000.0);
 1573              		.loc 2 112 0 is_stmt 0 discriminator 1
 1574 0022 04F10040 		add	r0, r4, #-2147483648
 1575 0026 00E0     		b	.L98
 1576              	.L105:
 112:.\main.c      ****     float2int_tmp = (int)(f_tmp*1000.0);
 1577              		.loc 2 112 0
 1578 0028 2046     		mov	r0, r4
 1579              	.L98:
 112:.\main.c      ****     float2int_tmp = (int)(f_tmp*1000.0);
 1580              		.loc 2 112 0 discriminator 4
 1581 002a 114B     		ldr	r3, .L107+4
 1582 002c 1860     		str	r0, [r3]	@ float
 113:.\main.c      ****     sprintf(LCDBuffer, "%c%3d.%d", symbol, float2int_tmp/1000, float2int_tmp%1000);
 1583              		.loc 2 113 0 is_stmt 1 discriminator 4
 1584 002e FFF7FEFF 		bl	__aeabi_f2d
 1585              	.LVL190:
 1586 0032 0022     		movs	r2, #0
 1587 0034 0F4B     		ldr	r3, .L107+8
 1588 0036 FFF7FEFF 		bl	__aeabi_dmul
 1589              	.LVL191:
 1590 003a FFF7FEFF 		bl	__aeabi_d2iz
 1591              	.LVL192:
 1592 003e 0E4B     		ldr	r3, .L107+12
 1593 0040 1860     		str	r0, [r3]
 114:.\main.c      ****     LCDBuffer[8] = '\0';
 1594              		.loc 2 114 0 discriminator 4
 1595 0042 0E4C     		ldr	r4, .L107+16
 1596              	.LVL193:
 1597 0044 0E4B     		ldr	r3, .L107+20
 1598 0046 83FB0023 		smull	r2, r3, r3, r0
 1599 004a C217     		asrs	r2, r0, #31
 1600 004c C2EBA313 		rsb	r3, r2, r3, asr #6
 1601 0050 4FF47A72 		mov	r2, #1000
 1602 0054 02FB1300 		mls	r0, r2, r3, r0
 1603 0058 0090     		str	r0, [sp]
 1604 005a 2046     		mov	r0, r4
 1605 005c 0949     		ldr	r1, .L107+24
 1606 005e 2A46     		mov	r2, r5
 1607 0060 FFF7FEFF 		bl	sprintf
 1608              	.LVL194:
 115:.\main.c      **** }
 1609              		.loc 2 115 0 discriminator 4
 1610 0064 0023     		movs	r3, #0
 1611 0066 2372     		strb	r3, [r4, #8]
 116:.\main.c      **** 
 1612              		.loc 2 116 0 discriminator 4
ARM GAS  C:\Users\ADMINI~1\AppData\Local\Temp\ccpQE0Fa.s 			page 37


 1613 0068 03B0     		add	sp, sp, #12
 1614              		.cfi_def_cfa_offset 12
 1615              		@ sp needed
 1616 006a 30BD     		pop	{r4, r5, pc}
 1617              	.L108:
 1618              		.align	2
 1619              	.L107:
 1620 006c 00000000 		.word	symbol
 1621 0070 00000000 		.word	f_tmp
 1622 0074 00408F40 		.word	1083129856
 1623 0078 00000000 		.word	float2int_tmp
 1624 007c 00000000 		.word	LCDBuffer
 1625 0080 D34D6210 		.word	274877907
 1626 0084 1C000000 		.word	.LC3
 1627              		.cfi_endproc
 1628              	.LFE77:
 1629              		.size	Float28Str, .-Float28Str
 1630              		.section	.text.LCD_DisplayAngle,"ax",%progbits
 1631              		.align	2
 1632              		.global	LCD_DisplayAngle
 1633              		.thumb
 1634              		.thumb_func
 1635              		.type	LCD_DisplayAngle, %function
 1636              	LCD_DisplayAngle:
 1637              	.LFB78:
 118:.\main.c      ****     Float28Str(Roll);
 1638              		.loc 2 118 0
 1639              		.cfi_startproc
 1640              		@ args = 0, pretend = 0, frame = 0
 1641              		@ frame_needed = 0, uses_anonymous_args = 0
 1642 0000 10B5     		push	{r4, lr}
 1643              		.cfi_def_cfa_offset 8
 1644              		.cfi_offset 4, -8
 1645              		.cfi_offset 14, -4
 119:.\main.c      ****     LCD_Disp(LCDBuffer, 0, 0);
 1646              		.loc 2 119 0
 1647 0002 0E4B     		ldr	r3, .L111
 1648 0004 1868     		ldr	r0, [r3]	@ float
 1649 0006 FFF7FEFF 		bl	Float28Str
 1650              	.LVL195:
 120:.\main.c      ****     Float28Str(Pitch);
 1651              		.loc 2 120 0
 1652 000a 0D4C     		ldr	r4, .L111+4
 1653 000c 2046     		mov	r0, r4
 1654 000e 0021     		movs	r1, #0
 1655 0010 0A46     		mov	r2, r1
 1656 0012 FFF7FEFF 		bl	LCD_Disp
 1657              	.LVL196:
 121:.\main.c      ****     LCD_Disp(LCDBuffer, 0, 8);
 1658              		.loc 2 121 0
 1659 0016 0B4B     		ldr	r3, .L111+8
 1660 0018 1868     		ldr	r0, [r3]	@ float
 1661 001a FFF7FEFF 		bl	Float28Str
 1662              	.LVL197:
 122:.\main.c      ****     Float28Str(Yaw);
 1663              		.loc 2 122 0
 1664 001e 2046     		mov	r0, r4
ARM GAS  C:\Users\ADMINI~1\AppData\Local\Temp\ccpQE0Fa.s 			page 38


 1665 0020 0021     		movs	r1, #0
 1666 0022 0822     		movs	r2, #8
 1667 0024 FFF7FEFF 		bl	LCD_Disp
 1668              	.LVL198:
 123:.\main.c      ****     LCD_Disp(LCDBuffer, 1, 0);
 1669              		.loc 2 123 0
 1670 0028 074B     		ldr	r3, .L111+12
 1671 002a 1868     		ldr	r0, [r3]	@ float
 1672 002c FFF7FEFF 		bl	Float28Str
 1673              	.LVL199:
 124:.\main.c      **** }
 1674              		.loc 2 124 0
 1675 0030 2046     		mov	r0, r4
 1676 0032 0121     		movs	r1, #1
 1677 0034 0022     		movs	r2, #0
 1678 0036 FFF7FEFF 		bl	LCD_Disp
 1679              	.LVL200:
 1680 003a 10BD     		pop	{r4, pc}
 1681              	.L112:
 1682              		.align	2
 1683              	.L111:
 1684 003c 00000000 		.word	Roll
 1685 0040 00000000 		.word	LCDBuffer
 1686 0044 00000000 		.word	Pitch
 1687 0048 00000000 		.word	Yaw
 1688              		.cfi_endproc
 1689              	.LFE78:
 1690              		.size	LCD_DisplayAngle, .-LCD_DisplayAngle
 1691              		.section	.text.JY901_Debug_Display,"ax",%progbits
 1692              		.align	2
 1693              		.global	JY901_Debug_Display
 1694              		.thumb
 1695              		.thumb_func
 1696              		.type	JY901_Debug_Display, %function
 1697              	JY901_Debug_Display:
 1698              	.LFB80:
 152:.\main.c      **** }
 153:.\main.c      **** 
 154:.\main.c      **** char DisplayBuffer[128];
 155:.\main.c      **** CY_ISR(JY901_Debug_Display) {
 1699              		.loc 2 155 0
 1700              		.cfi_startproc
 1701              		@ args = 0, pretend = 0, frame = 0
 1702              		@ frame_needed = 0, uses_anonymous_args = 0
 1703 0000 08B5     		push	{r3, lr}
 1704              		.cfi_def_cfa_offset 8
 1705              		.cfi_offset 3, -8
 1706              		.cfi_offset 14, -4
 1707              	.L114:
 156:.\main.c      ****     while(USBUART_1_CDCIsReady() == 0u);
 1708              		.loc 2 156 0 discriminator 1
 1709 0002 FFF7FEFF 		bl	USBUART_1_CDCIsReady
 1710              	.LVL201:
 1711 0006 0028     		cmp	r0, #0
 1712 0008 FBD0     		beq	.L114
 157:.\main.c      ****     USBUART_1_PutString("===== Debug Data =====\n");
 1713              		.loc 2 157 0
ARM GAS  C:\Users\ADMINI~1\AppData\Local\Temp\ccpQE0Fa.s 			page 39


 1714 000a 8548     		ldr	r0, .L143
 1715 000c FFF7FEFF 		bl	USBUART_1_PutString
 1716              	.LVL202:
 1717              	.L115:
 158:.\main.c      ****     while(USBUART_1_CDCIsReady() == 0u);
 1718              		.loc 2 158 0 discriminator 1
 1719 0010 FFF7FEFF 		bl	USBUART_1_CDCIsReady
 1720              	.LVL203:
 1721 0014 0028     		cmp	r0, #0
 1722 0016 FBD0     		beq	.L115
 159:.\main.c      ****     USBUART_1_PutString("AccelX=");
 1723              		.loc 2 159 0
 1724 0018 8248     		ldr	r0, .L143+4
 1725 001a FFF7FEFF 		bl	USBUART_1_PutString
 1726              	.LVL204:
 160:.\main.c      ****     Convert_Float2String(DisplayBuffer, AccelX);
 1727              		.loc 2 160 0
 1728 001e 824B     		ldr	r3, .L143+8
 1729 0020 1968     		ldr	r1, [r3]	@ float
 1730 0022 8248     		ldr	r0, .L143+12
 1731 0024 FFF7FEFF 		bl	Convert_Float2String
 1732              	.LVL205:
 1733              	.L116:
 161:.\main.c      ****     while(USBUART_1_CDCIsReady() == 0u);
 1734              		.loc 2 161 0 discriminator 1
 1735 0028 FFF7FEFF 		bl	USBUART_1_CDCIsReady
 1736              	.LVL206:
 1737 002c 0028     		cmp	r0, #0
 1738 002e FBD0     		beq	.L116
 162:.\main.c      ****     USBUART_1_PutString(DisplayBuffer);
 1739              		.loc 2 162 0
 1740 0030 7E48     		ldr	r0, .L143+12
 1741 0032 FFF7FEFF 		bl	USBUART_1_PutString
 1742              	.LVL207:
 1743              	.L117:
 163:.\main.c      ****     while(USBUART_1_CDCIsReady() == 0u);
 1744              		.loc 2 163 0 discriminator 1
 1745 0036 FFF7FEFF 		bl	USBUART_1_CDCIsReady
 1746              	.LVL208:
 1747 003a 0028     		cmp	r0, #0
 1748 003c FBD0     		beq	.L117
 164:.\main.c      ****     USBUART_1_PutString(", AccelY=");
 1749              		.loc 2 164 0
 1750 003e 7C48     		ldr	r0, .L143+16
 1751 0040 FFF7FEFF 		bl	USBUART_1_PutString
 1752              	.LVL209:
 165:.\main.c      ****     Convert_Float2String(DisplayBuffer, AccelY);
 1753              		.loc 2 165 0
 1754 0044 7B4B     		ldr	r3, .L143+20
 1755 0046 1968     		ldr	r1, [r3]	@ float
 1756 0048 7848     		ldr	r0, .L143+12
 1757 004a FFF7FEFF 		bl	Convert_Float2String
 1758              	.LVL210:
 1759              	.L118:
 166:.\main.c      ****     while(USBUART_1_CDCIsReady() == 0u);
 1760              		.loc 2 166 0 discriminator 1
 1761 004e FFF7FEFF 		bl	USBUART_1_CDCIsReady
ARM GAS  C:\Users\ADMINI~1\AppData\Local\Temp\ccpQE0Fa.s 			page 40


 1762              	.LVL211:
 1763 0052 0028     		cmp	r0, #0
 1764 0054 FBD0     		beq	.L118
 167:.\main.c      ****     USBUART_1_PutString(DisplayBuffer);
 1765              		.loc 2 167 0
 1766 0056 7548     		ldr	r0, .L143+12
 1767 0058 FFF7FEFF 		bl	USBUART_1_PutString
 1768              	.LVL212:
 1769              	.L119:
 168:.\main.c      ****     while(USBUART_1_CDCIsReady() == 0u);
 1770              		.loc 2 168 0 discriminator 1
 1771 005c FFF7FEFF 		bl	USBUART_1_CDCIsReady
 1772              	.LVL213:
 1773 0060 0028     		cmp	r0, #0
 1774 0062 FBD0     		beq	.L119
 169:.\main.c      ****     USBUART_1_PutString(", AccelZ=");
 1775              		.loc 2 169 0
 1776 0064 7448     		ldr	r0, .L143+24
 1777 0066 FFF7FEFF 		bl	USBUART_1_PutString
 1778              	.LVL214:
 170:.\main.c      ****     Convert_Float2String(DisplayBuffer, AccelZ);
 1779              		.loc 2 170 0
 1780 006a 744B     		ldr	r3, .L143+28
 1781 006c 1968     		ldr	r1, [r3]	@ float
 1782 006e 6F48     		ldr	r0, .L143+12
 1783 0070 FFF7FEFF 		bl	Convert_Float2String
 1784              	.LVL215:
 1785              	.L120:
 171:.\main.c      ****     while(USBUART_1_CDCIsReady() == 0u);
 1786              		.loc 2 171 0 discriminator 1
 1787 0074 FFF7FEFF 		bl	USBUART_1_CDCIsReady
 1788              	.LVL216:
 1789 0078 0028     		cmp	r0, #0
 1790 007a FBD0     		beq	.L120
 172:.\main.c      ****     USBUART_1_PutString(DisplayBuffer);
 1791              		.loc 2 172 0
 1792 007c 6B48     		ldr	r0, .L143+12
 1793 007e FFF7FEFF 		bl	USBUART_1_PutString
 1794              	.LVL217:
 1795              	.L121:
 173:.\main.c      ****     
 174:.\main.c      ****     while(USBUART_1_CDCIsReady() == 0u);
 1796              		.loc 2 174 0 discriminator 1
 1797 0082 FFF7FEFF 		bl	USBUART_1_CDCIsReady
 1798              	.LVL218:
 1799 0086 0028     		cmp	r0, #0
 1800 0088 FBD0     		beq	.L121
 175:.\main.c      ****     USBUART_1_PutString("\nOmegaX=");
 1801              		.loc 2 175 0
 1802 008a 6D48     		ldr	r0, .L143+32
 1803 008c FFF7FEFF 		bl	USBUART_1_PutString
 1804              	.LVL219:
 176:.\main.c      ****     Convert_Float2String(DisplayBuffer, OmegaX);
 1805              		.loc 2 176 0
 1806 0090 6C4B     		ldr	r3, .L143+36
 1807 0092 1968     		ldr	r1, [r3]	@ float
 1808 0094 6548     		ldr	r0, .L143+12
ARM GAS  C:\Users\ADMINI~1\AppData\Local\Temp\ccpQE0Fa.s 			page 41


 1809 0096 FFF7FEFF 		bl	Convert_Float2String
 1810              	.LVL220:
 1811              	.L122:
 177:.\main.c      ****     while(USBUART_1_CDCIsReady() == 0u);
 1812              		.loc 2 177 0 discriminator 1
 1813 009a FFF7FEFF 		bl	USBUART_1_CDCIsReady
 1814              	.LVL221:
 1815 009e 0028     		cmp	r0, #0
 1816 00a0 FBD0     		beq	.L122
 178:.\main.c      ****     USBUART_1_PutString(DisplayBuffer);
 1817              		.loc 2 178 0
 1818 00a2 6248     		ldr	r0, .L143+12
 1819 00a4 FFF7FEFF 		bl	USBUART_1_PutString
 1820              	.LVL222:
 1821              	.L123:
 179:.\main.c      ****     while(USBUART_1_CDCIsReady() == 0u);
 1822              		.loc 2 179 0 discriminator 1
 1823 00a8 FFF7FEFF 		bl	USBUART_1_CDCIsReady
 1824              	.LVL223:
 1825 00ac 0028     		cmp	r0, #0
 1826 00ae FBD0     		beq	.L123
 180:.\main.c      ****     USBUART_1_PutString(", OmegaY=");
 1827              		.loc 2 180 0
 1828 00b0 6548     		ldr	r0, .L143+40
 1829 00b2 FFF7FEFF 		bl	USBUART_1_PutString
 1830              	.LVL224:
 181:.\main.c      ****     Convert_Float2String(DisplayBuffer, OmegaY);
 1831              		.loc 2 181 0
 1832 00b6 654B     		ldr	r3, .L143+44
 1833 00b8 1968     		ldr	r1, [r3]	@ float
 1834 00ba 5C48     		ldr	r0, .L143+12
 1835 00bc FFF7FEFF 		bl	Convert_Float2String
 1836              	.LVL225:
 1837              	.L124:
 182:.\main.c      ****     while(USBUART_1_CDCIsReady() == 0u);
 1838              		.loc 2 182 0 discriminator 1
 1839 00c0 FFF7FEFF 		bl	USBUART_1_CDCIsReady
 1840              	.LVL226:
 1841 00c4 0028     		cmp	r0, #0
 1842 00c6 FBD0     		beq	.L124
 183:.\main.c      ****     USBUART_1_PutString(DisplayBuffer);
 1843              		.loc 2 183 0
 1844 00c8 5848     		ldr	r0, .L143+12
 1845 00ca FFF7FEFF 		bl	USBUART_1_PutString
 1846              	.LVL227:
 1847              	.L125:
 184:.\main.c      ****     while(USBUART_1_CDCIsReady() == 0u);
 1848              		.loc 2 184 0 discriminator 1
 1849 00ce FFF7FEFF 		bl	USBUART_1_CDCIsReady
 1850              	.LVL228:
 1851 00d2 0028     		cmp	r0, #0
 1852 00d4 FBD0     		beq	.L125
 185:.\main.c      ****     USBUART_1_PutString(", OmegaZ=");
 1853              		.loc 2 185 0
 1854 00d6 5E48     		ldr	r0, .L143+48
 1855 00d8 FFF7FEFF 		bl	USBUART_1_PutString
 1856              	.LVL229:
ARM GAS  C:\Users\ADMINI~1\AppData\Local\Temp\ccpQE0Fa.s 			page 42


 186:.\main.c      ****     Convert_Float2String(DisplayBuffer, OmegaZ);
 1857              		.loc 2 186 0
 1858 00dc 5D4B     		ldr	r3, .L143+52
 1859 00de 1968     		ldr	r1, [r3]	@ float
 1860 00e0 5248     		ldr	r0, .L143+12
 1861 00e2 FFF7FEFF 		bl	Convert_Float2String
 1862              	.LVL230:
 1863              	.L126:
 187:.\main.c      ****     while(USBUART_1_CDCIsReady() == 0u);
 1864              		.loc 2 187 0 discriminator 1
 1865 00e6 FFF7FEFF 		bl	USBUART_1_CDCIsReady
 1866              	.LVL231:
 1867 00ea 0028     		cmp	r0, #0
 1868 00ec FBD0     		beq	.L126
 188:.\main.c      ****     USBUART_1_PutString(DisplayBuffer);
 1869              		.loc 2 188 0
 1870 00ee 4F48     		ldr	r0, .L143+12
 1871 00f0 FFF7FEFF 		bl	USBUART_1_PutString
 1872              	.LVL232:
 1873              	.L127:
 189:.\main.c      ****     
 190:.\main.c      ****     while(USBUART_1_CDCIsReady() == 0u);
 1874              		.loc 2 190 0 discriminator 1
 1875 00f4 FFF7FEFF 		bl	USBUART_1_CDCIsReady
 1876              	.LVL233:
 1877 00f8 0028     		cmp	r0, #0
 1878 00fa FBD0     		beq	.L127
 191:.\main.c      ****     USBUART_1_PutString("\nRoll=");
 1879              		.loc 2 191 0
 1880 00fc 5648     		ldr	r0, .L143+56
 1881 00fe FFF7FEFF 		bl	USBUART_1_PutString
 1882              	.LVL234:
 192:.\main.c      ****     Convert_Float2String(DisplayBuffer, Roll);
 1883              		.loc 2 192 0
 1884 0102 564B     		ldr	r3, .L143+60
 1885 0104 1968     		ldr	r1, [r3]	@ float
 1886 0106 4948     		ldr	r0, .L143+12
 1887 0108 FFF7FEFF 		bl	Convert_Float2String
 1888              	.LVL235:
 1889              	.L128:
 193:.\main.c      ****     while(USBUART_1_CDCIsReady() == 0u);
 1890              		.loc 2 193 0 discriminator 1
 1891 010c FFF7FEFF 		bl	USBUART_1_CDCIsReady
 1892              	.LVL236:
 1893 0110 0028     		cmp	r0, #0
 1894 0112 FBD0     		beq	.L128
 194:.\main.c      ****     USBUART_1_PutString(DisplayBuffer);
 1895              		.loc 2 194 0
 1896 0114 4548     		ldr	r0, .L143+12
 1897 0116 FFF7FEFF 		bl	USBUART_1_PutString
 1898              	.LVL237:
 1899              	.L129:
 195:.\main.c      ****     while(USBUART_1_CDCIsReady() == 0u);
 1900              		.loc 2 195 0 discriminator 1
 1901 011a FFF7FEFF 		bl	USBUART_1_CDCIsReady
 1902              	.LVL238:
 1903 011e 0028     		cmp	r0, #0
ARM GAS  C:\Users\ADMINI~1\AppData\Local\Temp\ccpQE0Fa.s 			page 43


 1904 0120 FBD0     		beq	.L129
 196:.\main.c      ****     USBUART_1_PutString(", Pitch=");
 1905              		.loc 2 196 0
 1906 0122 4F48     		ldr	r0, .L143+64
 1907 0124 FFF7FEFF 		bl	USBUART_1_PutString
 1908              	.LVL239:
 197:.\main.c      ****     Convert_Float2String(DisplayBuffer, Pitch);
 1909              		.loc 2 197 0
 1910 0128 4E4B     		ldr	r3, .L143+68
 1911 012a 1968     		ldr	r1, [r3]	@ float
 1912 012c 3F48     		ldr	r0, .L143+12
 1913 012e FFF7FEFF 		bl	Convert_Float2String
 1914              	.LVL240:
 1915              	.L130:
 198:.\main.c      ****     while(USBUART_1_CDCIsReady() == 0u);
 1916              		.loc 2 198 0 discriminator 1
 1917 0132 FFF7FEFF 		bl	USBUART_1_CDCIsReady
 1918              	.LVL241:
 1919 0136 0028     		cmp	r0, #0
 1920 0138 FBD0     		beq	.L130
 199:.\main.c      ****     USBUART_1_PutString(DisplayBuffer);
 1921              		.loc 2 199 0
 1922 013a 3C48     		ldr	r0, .L143+12
 1923 013c FFF7FEFF 		bl	USBUART_1_PutString
 1924              	.LVL242:
 1925              	.L131:
 200:.\main.c      ****     while(USBUART_1_CDCIsReady() == 0u);
 1926              		.loc 2 200 0 discriminator 1
 1927 0140 FFF7FEFF 		bl	USBUART_1_CDCIsReady
 1928              	.LVL243:
 1929 0144 0028     		cmp	r0, #0
 1930 0146 FBD0     		beq	.L131
 201:.\main.c      ****     USBUART_1_PutString(", Yaw=");
 1931              		.loc 2 201 0
 1932 0148 4748     		ldr	r0, .L143+72
 1933 014a FFF7FEFF 		bl	USBUART_1_PutString
 1934              	.LVL244:
 202:.\main.c      ****     Convert_Float2String(DisplayBuffer, Yaw);
 1935              		.loc 2 202 0
 1936 014e 474B     		ldr	r3, .L143+76
 1937 0150 1968     		ldr	r1, [r3]	@ float
 1938 0152 3648     		ldr	r0, .L143+12
 1939 0154 FFF7FEFF 		bl	Convert_Float2String
 1940              	.LVL245:
 1941              	.L132:
 203:.\main.c      ****     while(USBUART_1_CDCIsReady() == 0u);
 1942              		.loc 2 203 0 discriminator 1
 1943 0158 FFF7FEFF 		bl	USBUART_1_CDCIsReady
 1944              	.LVL246:
 1945 015c 0028     		cmp	r0, #0
 1946 015e FBD0     		beq	.L132
 204:.\main.c      ****     USBUART_1_PutString(DisplayBuffer);
 1947              		.loc 2 204 0
 1948 0160 3248     		ldr	r0, .L143+12
 1949 0162 FFF7FEFF 		bl	USBUART_1_PutString
 1950              	.LVL247:
 1951              	.L133:
ARM GAS  C:\Users\ADMINI~1\AppData\Local\Temp\ccpQE0Fa.s 			page 44


 205:.\main.c      ****     
 206:.\main.c      ****     while(USBUART_1_CDCIsReady() == 0u);
 1952              		.loc 2 206 0 discriminator 1
 1953 0166 FFF7FEFF 		bl	USBUART_1_CDCIsReady
 1954              	.LVL248:
 1955 016a 0028     		cmp	r0, #0
 1956 016c FBD0     		beq	.L133
 207:.\main.c      ****     USBUART_1_PutString("\nHx=");
 1957              		.loc 2 207 0
 1958 016e 4048     		ldr	r0, .L143+80
 1959 0170 FFF7FEFF 		bl	USBUART_1_PutString
 1960              	.LVL249:
 208:.\main.c      ****     Convert_Float2String(DisplayBuffer, MagX);
 1961              		.loc 2 208 0
 1962 0174 3F4B     		ldr	r3, .L143+84
 1963 0176 1868     		ldr	r0, [r3]
 1964 0178 FFF7FEFF 		bl	__aeabi_i2f
 1965              	.LVL250:
 1966 017c 0146     		mov	r1, r0
 1967 017e 2B48     		ldr	r0, .L143+12
 1968 0180 FFF7FEFF 		bl	Convert_Float2String
 1969              	.LVL251:
 1970              	.L134:
 209:.\main.c      ****     while(USBUART_1_CDCIsReady() == 0u);
 1971              		.loc 2 209 0 discriminator 1
 1972 0184 FFF7FEFF 		bl	USBUART_1_CDCIsReady
 1973              	.LVL252:
 1974 0188 0028     		cmp	r0, #0
 1975 018a FBD0     		beq	.L134
 210:.\main.c      ****     USBUART_1_PutString(DisplayBuffer);
 1976              		.loc 2 210 0
 1977 018c 2748     		ldr	r0, .L143+12
 1978 018e FFF7FEFF 		bl	USBUART_1_PutString
 1979              	.LVL253:
 1980              	.L135:
 211:.\main.c      ****     while(USBUART_1_CDCIsReady() == 0u);
 1981              		.loc 2 211 0 discriminator 1
 1982 0192 FFF7FEFF 		bl	USBUART_1_CDCIsReady
 1983              	.LVL254:
 1984 0196 0028     		cmp	r0, #0
 1985 0198 FBD0     		beq	.L135
 212:.\main.c      ****     USBUART_1_PutString(", Hy=");
 1986              		.loc 2 212 0
 1987 019a 3748     		ldr	r0, .L143+88
 1988 019c FFF7FEFF 		bl	USBUART_1_PutString
 1989              	.LVL255:
 213:.\main.c      ****     Convert_Float2String(DisplayBuffer, MagY);
 1990              		.loc 2 213 0
 1991 01a0 364B     		ldr	r3, .L143+92
 1992 01a2 1868     		ldr	r0, [r3]
 1993 01a4 FFF7FEFF 		bl	__aeabi_i2f
 1994              	.LVL256:
 1995 01a8 0146     		mov	r1, r0
 1996 01aa 2048     		ldr	r0, .L143+12
 1997 01ac FFF7FEFF 		bl	Convert_Float2String
 1998              	.LVL257:
 1999              	.L136:
ARM GAS  C:\Users\ADMINI~1\AppData\Local\Temp\ccpQE0Fa.s 			page 45


 214:.\main.c      ****     while(USBUART_1_CDCIsReady() == 0u);
 2000              		.loc 2 214 0 discriminator 1
 2001 01b0 FFF7FEFF 		bl	USBUART_1_CDCIsReady
 2002              	.LVL258:
 2003 01b4 0028     		cmp	r0, #0
 2004 01b6 FBD0     		beq	.L136
 215:.\main.c      ****     USBUART_1_PutString(DisplayBuffer);
 2005              		.loc 2 215 0
 2006 01b8 1C48     		ldr	r0, .L143+12
 2007 01ba FFF7FEFF 		bl	USBUART_1_PutString
 2008              	.LVL259:
 2009              	.L137:
 216:.\main.c      ****     while(USBUART_1_CDCIsReady() == 0u);
 2010              		.loc 2 216 0 discriminator 1
 2011 01be FFF7FEFF 		bl	USBUART_1_CDCIsReady
 2012              	.LVL260:
 2013 01c2 0028     		cmp	r0, #0
 2014 01c4 FBD0     		beq	.L137
 217:.\main.c      ****     USBUART_1_PutString(", Hz=");
 2015              		.loc 2 217 0
 2016 01c6 2E48     		ldr	r0, .L143+96
 2017 01c8 FFF7FEFF 		bl	USBUART_1_PutString
 2018              	.LVL261:
 218:.\main.c      ****     Convert_Float2String(DisplayBuffer, MagZ);
 2019              		.loc 2 218 0
 2020 01cc 2D4B     		ldr	r3, .L143+100
 2021 01ce 1868     		ldr	r0, [r3]
 2022 01d0 FFF7FEFF 		bl	__aeabi_i2f
 2023              	.LVL262:
 2024 01d4 0146     		mov	r1, r0
 2025 01d6 1548     		ldr	r0, .L143+12
 2026 01d8 FFF7FEFF 		bl	Convert_Float2String
 2027              	.LVL263:
 2028              	.L138:
 219:.\main.c      ****     while(USBUART_1_CDCIsReady() == 0u);
 2029              		.loc 2 219 0 discriminator 1
 2030 01dc FFF7FEFF 		bl	USBUART_1_CDCIsReady
 2031              	.LVL264:
 2032 01e0 0028     		cmp	r0, #0
 2033 01e2 FBD0     		beq	.L138
 220:.\main.c      ****     USBUART_1_PutString(DisplayBuffer);
 2034              		.loc 2 220 0
 2035 01e4 1148     		ldr	r0, .L143+12
 2036 01e6 FFF7FEFF 		bl	USBUART_1_PutString
 2037              	.LVL265:
 2038              	.L139:
 221:.\main.c      ****     
 222:.\main.c      ****     while(USBUART_1_CDCIsReady() == 0u);
 2039              		.loc 2 222 0 discriminator 1
 2040 01ea FFF7FEFF 		bl	USBUART_1_CDCIsReady
 2041              	.LVL266:
 2042 01ee 0028     		cmp	r0, #0
 2043 01f0 FBD0     		beq	.L139
 223:.\main.c      ****     USBUART_1_PutString("\nTemp=");
 2044              		.loc 2 223 0
 2045 01f2 2548     		ldr	r0, .L143+104
 2046 01f4 FFF7FEFF 		bl	USBUART_1_PutString
ARM GAS  C:\Users\ADMINI~1\AppData\Local\Temp\ccpQE0Fa.s 			page 46


 2047              	.LVL267:
 224:.\main.c      ****     Convert_Float2String(DisplayBuffer, Temperature);
 2048              		.loc 2 224 0
 2049 01f8 244B     		ldr	r3, .L143+108
 2050 01fa 1968     		ldr	r1, [r3]	@ float
 2051 01fc 0B48     		ldr	r0, .L143+12
 2052 01fe FFF7FEFF 		bl	Convert_Float2String
 2053              	.LVL268:
 2054              	.L140:
 225:.\main.c      ****     while(USBUART_1_CDCIsReady() == 0u);
 2055              		.loc 2 225 0 discriminator 1
 2056 0202 FFF7FEFF 		bl	USBUART_1_CDCIsReady
 2057              	.LVL269:
 2058 0206 0028     		cmp	r0, #0
 2059 0208 FBD0     		beq	.L140
 226:.\main.c      ****     USBUART_1_PutString(DisplayBuffer);
 2060              		.loc 2 226 0
 2061 020a 0848     		ldr	r0, .L143+12
 2062 020c FFF7FEFF 		bl	USBUART_1_PutString
 2063              	.LVL270:
 2064              	.L141:
 227:.\main.c      ****     while(USBUART_1_CDCIsReady() == 0u);
 2065              		.loc 2 227 0 discriminator 1
 2066 0210 FFF7FEFF 		bl	USBUART_1_CDCIsReady
 2067              	.LVL271:
 2068 0214 0028     		cmp	r0, #0
 2069 0216 FBD0     		beq	.L141
 228:.\main.c      ****     USBUART_1_PutString("\n\n");
 2070              		.loc 2 228 0
 2071 0218 1D48     		ldr	r0, .L143+112
 2072 021a FFF7FEFF 		bl	USBUART_1_PutString
 2073              	.LVL272:
 2074 021e 08BD     		pop	{r3, pc}
 2075              	.L144:
 2076              		.align	2
 2077              	.L143:
 2078 0220 28000000 		.word	.LC4
 2079 0224 40000000 		.word	.LC5
 2080 0228 00000000 		.word	AccelX
 2081 022c 00000000 		.word	DisplayBuffer
 2082 0230 48000000 		.word	.LC6
 2083 0234 00000000 		.word	AccelY
 2084 0238 54000000 		.word	.LC7
 2085 023c 00000000 		.word	AccelZ
 2086 0240 60000000 		.word	.LC8
 2087 0244 00000000 		.word	OmegaX
 2088 0248 6C000000 		.word	.LC9
 2089 024c 00000000 		.word	OmegaY
 2090 0250 78000000 		.word	.LC10
 2091 0254 00000000 		.word	OmegaZ
 2092 0258 84000000 		.word	.LC11
 2093 025c 00000000 		.word	Roll
 2094 0260 8C000000 		.word	.LC12
 2095 0264 00000000 		.word	Pitch
 2096 0268 98000000 		.word	.LC13
 2097 026c 00000000 		.word	Yaw
 2098 0270 A0000000 		.word	.LC14
ARM GAS  C:\Users\ADMINI~1\AppData\Local\Temp\ccpQE0Fa.s 			page 47


 2099 0274 00000000 		.word	MagX
 2100 0278 A8000000 		.word	.LC15
 2101 027c 00000000 		.word	MagY
 2102 0280 B0000000 		.word	.LC16
 2103 0284 00000000 		.word	MagZ
 2104 0288 B8000000 		.word	.LC17
 2105 028c 00000000 		.word	Temperature
 2106 0290 C0000000 		.word	.LC18
 2107              		.cfi_endproc
 2108              	.LFE80:
 2109              		.size	JY901_Debug_Display, .-JY901_Debug_Display
 2110              		.section	.text.main,"ax",%progbits
 2111              		.align	2
 2112              		.global	main
 2113              		.thumb
 2114              		.thumb_func
 2115              		.type	main, %function
 2116              	main:
 2117              	.LFB81:
 229:.\main.c      **** }
 230:.\main.c      **** 
 231:.\main.c      **** //主函数
 232:.\main.c      **** char tmpbuf[10];
 233:.\main.c      **** int main()
 234:.\main.c      **** {
 2118              		.loc 2 234 0
 2119              		.cfi_startproc
 2120              		@ args = 0, pretend = 0, frame = 0
 2121              		@ frame_needed = 0, uses_anonymous_args = 0
 2122 0000 2DE9F041 		push	{r4, r5, r6, r7, r8, lr}
 2123              		.cfi_def_cfa_offset 24
 2124              		.cfi_offset 4, -24
 2125              		.cfi_offset 5, -20
 2126              		.cfi_offset 6, -16
 2127              		.cfi_offset 7, -12
 2128              		.cfi_offset 8, -8
 2129              		.cfi_offset 14, -4
 235:.\main.c      ****     CyGlobalIntEnable; /* Enable global interrupts. */
 2130              		.loc 2 235 0
 2131              	@ 235 ".\main.c" 1
 2132 0004 62B6     		CPSIE   i
 2133              	@ 0 "" 2
 236:.\main.c      ****     
 237:.\main.c      ****     //LCD显示相关
 238:.\main.c      ****     LCD_Start();
 2134              		.loc 2 238 0
 2135              		.thumb
 2136 0006 FFF7FEFF 		bl	LCD_Start
 2137              	.LVL273:
 239:.\main.c      ****     LCD_Disp("Init     ", 0, 0);
 2138              		.loc 2 239 0
 2139 000a 2B48     		ldr	r0, .L149
 2140 000c 0021     		movs	r1, #0
 2141 000e 0A46     		mov	r2, r1
 2142 0010 FFF7FEFF 		bl	LCD_Disp
 2143              	.LVL274:
 240:.\main.c      ****     
ARM GAS  C:\Users\ADMINI~1\AppData\Local\Temp\ccpQE0Fa.s 			page 48


 241:.\main.c      ****     //定时器/PWM相关
 242:.\main.c      ****     isr_Timer_1_StartEx(Timer_1_Interrupt_Handler);
 2144              		.loc 2 242 0
 2145 0014 2948     		ldr	r0, .L149+4
 2146 0016 FFF7FEFF 		bl	isr_Timer_1_StartEx
 2147              	.LVL275:
 243:.\main.c      ****     Timer_1_Start();
 2148              		.loc 2 243 0
 2149 001a FFF7FEFF 		bl	Timer_1_Start
 2150              	.LVL276:
 244:.\main.c      ****     Initialize_All_PWM();
 2151              		.loc 2 244 0
 2152 001e FFF7FEFF 		bl	Initialize_All_PWM
 2153              	.LVL277:
 245:.\main.c      ****     
 246:.\main.c      ****     //USBUART相关
 247:.\main.c      ****     USBUART_1_Start(0u, USBUART_1_3V_OPERATION);
 2154              		.loc 2 247 0
 2155 0022 0020     		movs	r0, #0
 2156 0024 0146     		mov	r1, r0
 2157 0026 FFF7FEFF 		bl	USBUART_1_Start
 2158              	.LVL278:
 2159              	.L146:
 248:.\main.c      ****     while(!USBUART_1_GetConfiguration());
 2160              		.loc 2 248 0 discriminator 1
 2161 002a FFF7FEFF 		bl	USBUART_1_GetConfiguration
 2162              	.LVL279:
 2163 002e 0028     		cmp	r0, #0
 2164 0030 FBD0     		beq	.L146
 249:.\main.c      ****     USBUART_1_CDC_Init();
 2165              		.loc 2 249 0
 2166 0032 FFF7FEFF 		bl	USBUART_1_CDC_Init
 2167              	.LVL280:
 250:.\main.c      ****     
 251:.\main.c      ****     //USBUART_1_PutData(buffer, length);
 252:.\main.c      ****     //USBUART_1_PutString(str);
 253:.\main.c      ****     
 254:.\main.c      ****     //蓝牙相关
 255:.\main.c      ****     BTRxBufLen = 0;
 2168              		.loc 2 255 0
 2169 0036 0024     		movs	r4, #0
 2170 0038 214B     		ldr	r3, .L149+8
 2171 003a 1C70     		strb	r4, [r3]
 256:.\main.c      ****     UART_Bluetooth_Start();
 2172              		.loc 2 256 0
 2173 003c FFF7FEFF 		bl	UART_Bluetooth_Start
 2174              	.LVL281:
 257:.\main.c      ****     UART_Bluetooth_Init();
 2175              		.loc 2 257 0
 2176 0040 FFF7FEFF 		bl	UART_Bluetooth_Init
 2177              	.LVL282:
 258:.\main.c      ****     isr_RX_StartEx(Bluetooth_RX_Interrupt_Handler);
 2178              		.loc 2 258 0
 2179 0044 1F48     		ldr	r0, .L149+12
 2180 0046 FFF7FEFF 		bl	isr_RX_StartEx
 2181              	.LVL283:
 259:.\main.c      ****     
ARM GAS  C:\Users\ADMINI~1\AppData\Local\Temp\ccpQE0Fa.s 			page 49


 260:.\main.c      ****     //JY901串口相关
 261:.\main.c      ****     JY901RxBufLen = 0;
 2182              		.loc 2 261 0
 2183 004a 1F4B     		ldr	r3, .L149+16
 2184 004c 1C70     		strb	r4, [r3]
 262:.\main.c      ****     UART_JY901_Start();
 2185              		.loc 2 262 0
 2186 004e FFF7FEFF 		bl	UART_JY901_Start
 2187              	.LVL284:
 263:.\main.c      ****     UART_JY901_Init();
 2188              		.loc 2 263 0
 2189 0052 FFF7FEFF 		bl	UART_JY901_Init
 2190              	.LVL285:
 264:.\main.c      ****     isr_jyRX_StartEx(JY901_RX_Interrupt_Handler);
 2191              		.loc 2 264 0
 2192 0056 1D48     		ldr	r0, .L149+20
 2193 0058 FFF7FEFF 		bl	isr_jyRX_StartEx
 2194              	.LVL286:
 265:.\main.c      ****     Init_JY901_Data();
 2195              		.loc 2 265 0
 2196 005c FFF7FEFF 		bl	Init_JY901_Data
 2197              	.LVL287:
 266:.\main.c      ****     
 267:.\main.c      ****     //初始化控制算法变量
 268:.\main.c      ****     Control_Func_InitVariable();
 2198              		.loc 2 268 0
 2199 0060 FFF7FEFF 		bl	Control_Func_InitVariable
 2200              	.LVL288:
 269:.\main.c      ****     
 270:.\main.c      ****     //控制算法定时器
 271:.\main.c      ****     //isr_Ctrl_StartEx(Control_Main);
 272:.\main.c      ****     //Timer_Control_Start();
 273:.\main.c      ****     
 274:.\main.c      ****     LCD_Disp("Start    ", 0, 0);
 2201              		.loc 2 274 0
 2202 0064 1A48     		ldr	r0, .L149+24
 2203 0066 2146     		mov	r1, r4
 2204 0068 2246     		mov	r2, r4
 2205 006a FFF7FEFF 		bl	LCD_Disp
 2206              	.LVL289:
 275:.\main.c      ****     Motor_v_1 = Motor_v_2 = Motor_v_3 = Motor_v_4 = 0;
 2207              		.loc 2 275 0
 2208 006e DFF87880 		ldr	r8, .L149+48
 2209 0072 C8F80040 		str	r4, [r8]
 2210 0076 174F     		ldr	r7, .L149+28
 2211 0078 3C60     		str	r4, [r7]
 2212 007a 174E     		ldr	r6, .L149+32
 2213 007c 3460     		str	r4, [r6]
 2214 007e 174D     		ldr	r5, .L149+36
 2215 0080 2C60     		str	r4, [r5]
 2216              	.LVL290:
 276:.\main.c      ****     
 277:.\main.c      ****     int velocity = 200;
 278:.\main.c      ****     
 279:.\main.c      ****     BT_Throttle = 0;
 2217              		.loc 2 279 0
 2218 0082 174B     		ldr	r3, .L149+40
ARM GAS  C:\Users\ADMINI~1\AppData\Local\Temp\ccpQE0Fa.s 			page 50


 2219 0084 1C60     		str	r4, [r3]
 280:.\main.c      ****     BT_Pitch = 512;
 2220              		.loc 2 280 0
 2221 0086 4FF40072 		mov	r2, #512
 2222 008a DA60     		str	r2, [r3, #12]
 281:.\main.c      ****     BT_Roll = 512;
 2223              		.loc 2 281 0
 2224 008c 9A60     		str	r2, [r3, #8]
 282:.\main.c      ****     BT_Yaw = 512;
 2225              		.loc 2 282 0
 2226 008e 5A60     		str	r2, [r3, #4]
 283:.\main.c      ****     CyDelay(10000);
 2227              		.loc 2 283 0
 2228 0090 42F21070 		movw	r0, #10000
 2229 0094 FFF7FEFF 		bl	CyDelay
 2230              	.LVL291:
 284:.\main.c      ****     LCD_Disp("Ready    ", 0, 0);
 2231              		.loc 2 284 0
 2232 0098 1248     		ldr	r0, .L149+44
 2233 009a 2146     		mov	r1, r4
 2234 009c 2246     		mov	r2, r4
 2235 009e FFF7FEFF 		bl	LCD_Disp
 2236              	.LVL292:
 285:.\main.c      ****     
 286:.\main.c      ****     //仅供测试
 287:.\main.c      ****     /*Motor_v_1 = Motor_v_2 = Motor_v_3 = Motor_v_4 = 0;
 288:.\main.c      ****     Motor_v_1 = velocity;
 289:.\main.c      ****     LCD_Disp("Run 1    ", 0, 0);
 290:.\main.c      ****     CyDelay(1000);
 291:.\main.c      ****     
 292:.\main.c      ****     Motor_v_1 = Motor_v_2 = Motor_v_3 = Motor_v_4 = 0;
 293:.\main.c      ****     Motor_v_2 = velocity;
 294:.\main.c      ****     LCD_Disp("Run 2    ", 0, 0);
 295:.\main.c      ****     CyDelay(1000);
 296:.\main.c      ****     
 297:.\main.c      ****     Motor_v_1 = Motor_v_2 = Motor_v_3 = Motor_v_4 = 0;
 298:.\main.c      ****     Motor_v_3 = velocity;
 299:.\main.c      ****     LCD_Disp("Run 3    ", 0, 0);
 300:.\main.c      ****     CyDelay(1000);
 301:.\main.c      ****     
 302:.\main.c      ****     Motor_v_1 = Motor_v_2 = Motor_v_3 = Motor_v_4 = 0;
 303:.\main.c      ****     Motor_v_4 = velocity;
 304:.\main.c      ****     LCD_Disp("Run 4    ", 0, 0);
 305:.\main.c      ****     CyDelay(1000);*/
 306:.\main.c      ****     
 307:.\main.c      ****     Motor_v_1 = Motor_v_2 = Motor_v_3 = Motor_v_4 = 0;
 2237              		.loc 2 307 0
 2238 00a2 C8F80040 		str	r4, [r8]
 2239 00a6 3C60     		str	r4, [r7]
 2240 00a8 3460     		str	r4, [r6]
 2241 00aa 2C60     		str	r4, [r5]
 2242              	.L147:
 308:.\main.c      **** 
 309:.\main.c      ****     //设置电机停转
 310:.\main.c      ****     for(;;) {
 311:.\main.c      ****         /*BT_Throttle = 300;
 312:.\main.c      ****         BT_Pitch = 512;
ARM GAS  C:\Users\ADMINI~1\AppData\Local\Temp\ccpQE0Fa.s 			page 51


 313:.\main.c      ****         BT_Roll = 512;
 314:.\main.c      ****         BT_Yaw = 512;*/
 315:.\main.c      ****         //JY901_Debug_Display(); //每隔1秒通过串口向上位机输出JY901数据
 316:.\main.c      ****         //Motor_v_1 = Motor_v_2 = Motor_v_3 = Motor_v_4 = 0;
 317:.\main.c      ****         //CyDelay(500);
 318:.\main.c      ****         Control_Main();
 2243              		.loc 2 318 0 discriminator 1
 2244 00ac FFF7FEFF 		bl	Control_Main
 2245              	.LVL293:
 319:.\main.c      ****         CyDelay(100);
 2246              		.loc 2 319 0 discriminator 1
 2247 00b0 6420     		movs	r0, #100
 2248 00b2 FFF7FEFF 		bl	CyDelay
 2249              	.LVL294:
 320:.\main.c      ****     }
 2250              		.loc 2 320 0 discriminator 1
 2251 00b6 F9E7     		b	.L147
 2252              	.L150:
 2253              		.align	2
 2254              	.L149:
 2255 00b8 C4000000 		.word	.LC19
 2256 00bc 00000000 		.word	Timer_1_Interrupt_Handler
 2257 00c0 00000000 		.word	BTRxBufLen
 2258 00c4 00000000 		.word	Bluetooth_RX_Interrupt_Handler
 2259 00c8 00000000 		.word	JY901RxBufLen
 2260 00cc 00000000 		.word	JY901_RX_Interrupt_Handler
 2261 00d0 D0000000 		.word	.LC20
 2262 00d4 00000000 		.word	Motor_v_3
 2263 00d8 00000000 		.word	Motor_v_2
 2264 00dc 00000000 		.word	Motor_v_1
 2265 00e0 00000000 		.word	.LANCHOR0
 2266 00e4 DC000000 		.word	.LC21
 2267 00e8 00000000 		.word	Motor_v_4
 2268              		.cfi_endproc
 2269              	.LFE81:
 2270              		.size	main, .-main
 2271              		.comm	tmpbuf,10,4
 2272              		.comm	DisplayBuffer,128,4
 2273              		.comm	f_tmp,4,4
 2274              		.comm	symbol,1,1
 2275              		.comm	float2int_tmp,4,4
 2276              		.comm	LCDBuffer,16,4
 2277              		.comm	decode_success,4,4
 2278              		.global	flag_rec
 2279              		.global	flag_55
 2280              		.comm	tmp2,1,1
 2281              		.comm	JY901RxBufLen,1,1
 2282              		.comm	JY901RxBuf,64,4
 2283              		.global	flag
 2284              		.comm	tmp,1,1
 2285              		.comm	BTRxBufLen,1,1
 2286              		.comm	BTRxBuf,64,4
 2287              		.comm	last_Motor_v_4,4,4
 2288              		.comm	last_Motor_v_3,4,4
 2289              		.comm	last_Motor_v_2,4,4
 2290              		.comm	last_Motor_v_1,4,4
 2291              		.comm	Motor_v_4,4,4
ARM GAS  C:\Users\ADMINI~1\AppData\Local\Temp\ccpQE0Fa.s 			page 52


 2292              		.comm	Motor_v_3,4,4
 2293              		.comm	Motor_v_2,4,4
 2294              		.comm	Motor_v_1,4,4
 2295              		.comm	sum,4,4
 2296              		.comm	i,4,4
 2297              		.comm	Height,4,4
 2298              		.comm	Pressure,4,4
 2299              		.comm	MagZ,4,4
 2300              		.comm	MagY,4,4
 2301              		.comm	MagX,4,4
 2302              		.comm	Yaw,4,4
 2303              		.comm	Pitch,4,4
 2304              		.comm	Roll,4,4
 2305              		.comm	Temperature,4,4
 2306              		.comm	OmegaZ,4,4
 2307              		.comm	OmegaY,4,4
 2308              		.comm	OmegaX,4,4
 2309              		.comm	AccelZ,4,4
 2310              		.comm	AccelY,4,4
 2311              		.comm	AccelX,4,4
 2312              		.comm	Desire_w_yaw,4,4
 2313              		.comm	Desire_angle_roll,4,4
 2314              		.comm	Desire_angle_pitch,4,4
 2315              		.comm	pitch_angle_offset,4,4
 2316              		.comm	roll_angle_offset,4,4
 2317              		.global	BT_Roll
 2318              		.global	BT_Pitch
 2319              		.global	BT_Yaw
 2320              		.global	BT_Throttle
 2321              		.section	.rodata.str1.4,"aMS",%progbits,1
 2322              		.align	2
 2323              	.LC0:
 2324 0000 25632564 		.ascii	"%c%d.%d\000"
 2324      2E256400 
 2325              	.LC1:
 2326 0008 25632564 		.ascii	"%c%d.0%d\000"
 2326      2E302564 
 2326      00
 2327 0011 000000   		.space	3
 2328              	.LC2:
 2329 0014 25632564 		.ascii	"%c%d.00\000"
 2329      2E303000 
 2330              	.LC3:
 2331 001c 25632533 		.ascii	"%c%3d.%d\000"
 2331      642E2564 
 2331      00
 2332 0025 000000   		.space	3
 2333              	.LC4:
 2334 0028 3D3D3D3D 		.ascii	"===== Debug Data =====\012\000"
 2334      3D204465 
 2334      62756720 
 2334      44617461 
 2334      203D3D3D 
 2335              	.LC5:
 2336 0040 41636365 		.ascii	"AccelX=\000"
 2336      6C583D00 
 2337              	.LC6:
ARM GAS  C:\Users\ADMINI~1\AppData\Local\Temp\ccpQE0Fa.s 			page 53


 2338 0048 2C204163 		.ascii	", AccelY=\000"
 2338      63656C59 
 2338      3D00
 2339 0052 0000     		.space	2
 2340              	.LC7:
 2341 0054 2C204163 		.ascii	", AccelZ=\000"
 2341      63656C5A 
 2341      3D00
 2342 005e 0000     		.space	2
 2343              	.LC8:
 2344 0060 0A4F6D65 		.ascii	"\012OmegaX=\000"
 2344      6761583D 
 2344      00
 2345 0069 000000   		.space	3
 2346              	.LC9:
 2347 006c 2C204F6D 		.ascii	", OmegaY=\000"
 2347      65676159 
 2347      3D00
 2348 0076 0000     		.space	2
 2349              	.LC10:
 2350 0078 2C204F6D 		.ascii	", OmegaZ=\000"
 2350      6567615A 
 2350      3D00
 2351 0082 0000     		.space	2
 2352              	.LC11:
 2353 0084 0A526F6C 		.ascii	"\012Roll=\000"
 2353      6C3D00
 2354 008b 00       		.space	1
 2355              	.LC12:
 2356 008c 2C205069 		.ascii	", Pitch=\000"
 2356      7463683D 
 2356      00
 2357 0095 000000   		.space	3
 2358              	.LC13:
 2359 0098 2C205961 		.ascii	", Yaw=\000"
 2359      773D00
 2360 009f 00       		.space	1
 2361              	.LC14:
 2362 00a0 0A48783D 		.ascii	"\012Hx=\000"
 2362      00
 2363 00a5 000000   		.space	3
 2364              	.LC15:
 2365 00a8 2C204879 		.ascii	", Hy=\000"
 2365      3D00
 2366 00ae 0000     		.space	2
 2367              	.LC16:
 2368 00b0 2C20487A 		.ascii	", Hz=\000"
 2368      3D00
 2369 00b6 0000     		.space	2
 2370              	.LC17:
 2371 00b8 0A54656D 		.ascii	"\012Temp=\000"
 2371      703D00
 2372 00bf 00       		.space	1
 2373              	.LC18:
 2374 00c0 0A0A00   		.ascii	"\012\012\000"
 2375 00c3 00       		.space	1
 2376              	.LC19:
ARM GAS  C:\Users\ADMINI~1\AppData\Local\Temp\ccpQE0Fa.s 			page 54


 2377 00c4 496E6974 		.ascii	"Init     \000"
 2377      20202020 
 2377      2000
 2378 00ce 0000     		.space	2
 2379              	.LC20:
 2380 00d0 53746172 		.ascii	"Start    \000"
 2380      74202020 
 2380      2000
 2381 00da 0000     		.space	2
 2382              	.LC21:
 2383 00dc 52656164 		.ascii	"Ready    \000"
 2383      79202020 
 2383      2000
 2384 00e6 0000     		.bss
 2385              		.align	2
 2386              		.set	.LANCHOR0,. + 0
 2387              		.type	BT_Throttle, %object
 2388              		.size	BT_Throttle, 4
 2389              	BT_Throttle:
 2390 0000 00000000 		.space	4
 2391              		.type	BT_Yaw, %object
 2392              		.size	BT_Yaw, 4
 2393              	BT_Yaw:
 2394 0004 00000000 		.space	4
 2395              		.type	BT_Roll, %object
 2396              		.size	BT_Roll, 4
 2397              	BT_Roll:
 2398 0008 00000000 		.space	4
 2399              		.type	BT_Pitch, %object
 2400              		.size	BT_Pitch, 4
 2401              	BT_Pitch:
 2402 000c 00000000 		.space	4
 2403              		.type	flag, %object
 2404              		.size	flag, 4
 2405              	flag:
 2406 0010 00000000 		.space	4
 2407              		.type	flag_55, %object
 2408              		.size	flag_55, 4
 2409              	flag_55:
 2410 0014 00000000 		.space	4
 2411              		.type	flag_rec, %object
 2412              		.size	flag_rec, 4
 2413              	flag_rec:
 2414 0018 00000000 		.space	4
 2415              		.text
 2416              	.Letext0:
 2417              		.file 5 "d:\\program files (x86)\\cypress\\psoc creator\\3.3\\psoc creator\\import\\gnu\\arm\\4.9.
 2418              		.file 6 "d:\\program files (x86)\\cypress\\psoc creator\\3.3\\psoc creator\\import\\gnu\\arm\\4.9.
 2419              		.file 7 "Generated_Source\\PSoC5/cytypes.h"
 2420              		.file 8 "Generated_Source\\PSoC5/core_cm3.h"
 2421              		.file 9 "Generated_Source\\PSoC5/PWM_1.h"
 2422              		.file 10 "Generated_Source\\PSoC5/PWM_2.h"
 2423              		.file 11 "Generated_Source\\PSoC5/CyLib.h"
 2424              		.file 12 "Generated_Source\\PSoC5/UART_Bluetooth.h"
 2425              		.file 13 "Generated_Source\\PSoC5/UART_JY901.h"
 2426              		.file 14 "Generated_Source\\PSoC5/LCD.h"
 2427              		.file 15 "Generated_Source\\PSoC5/USBUART_1_cdc.h"
ARM GAS  C:\Users\ADMINI~1\AppData\Local\Temp\ccpQE0Fa.s 			page 55


 2428              		.file 16 "Generated_Source\\PSoC5/isr_Timer_1.h"
 2429              		.file 17 "Generated_Source\\PSoC5/Timer_1.h"
 2430              		.file 18 "Generated_Source\\PSoC5/USBUART_1.h"
 2431              		.file 19 "Generated_Source\\PSoC5/isr_RX.h"
 2432              		.file 20 "Generated_Source\\PSoC5/isr_jyRX.h"
 2433              		.file 21 "d:\\program files (x86)\\cypress\\psoc creator\\3.3\\psoc creator\\import\\gnu\\arm\\4.9
 2434              		.file 22 ".\\Control.h"
 2435              		.section	.debug_info,"",%progbits
 2436              	.Ldebug_info0:
 2437 0000 6D120000 		.4byte	0x126d
 2438 0004 0400     		.2byte	0x4
 2439 0006 00000000 		.4byte	.Ldebug_abbrev0
 2440 000a 04       		.byte	0x4
 2441 000b 01       		.uleb128 0x1
 2442 000c 54050000 		.4byte	.LASF116
 2443 0010 01       		.byte	0x1
 2444 0011 EC060000 		.4byte	.LASF117
 2445 0015 47000000 		.4byte	.LASF118
 2446 0019 00000000 		.4byte	.Ldebug_ranges0+0
 2447 001d 00000000 		.4byte	0
 2448 0021 00000000 		.4byte	.Ldebug_line0
 2449 0025 02       		.uleb128 0x2
 2450 0026 04       		.byte	0x4
 2451 0027 04       		.byte	0x4
 2452 0028 3E010000 		.4byte	.LASF0
 2453 002c 02       		.uleb128 0x2
 2454 002d 01       		.byte	0x1
 2455 002e 06       		.byte	0x6
 2456 002f 74060000 		.4byte	.LASF1
 2457 0033 02       		.uleb128 0x2
 2458 0034 01       		.byte	0x1
 2459 0035 08       		.byte	0x8
 2460 0036 46050000 		.4byte	.LASF2
 2461 003a 02       		.uleb128 0x2
 2462 003b 02       		.byte	0x2
 2463 003c 05       		.byte	0x5
 2464 003d FB030000 		.4byte	.LASF3
 2465 0041 02       		.uleb128 0x2
 2466 0042 02       		.byte	0x2
 2467 0043 07       		.byte	0x7
 2468 0044 8D060000 		.4byte	.LASF4
 2469 0048 03       		.uleb128 0x3
 2470 0049 BA000000 		.4byte	.LASF10
 2471 004d 05       		.byte	0x5
 2472 004e 3F       		.byte	0x3f
 2473 004f 53000000 		.4byte	0x53
 2474 0053 02       		.uleb128 0x2
 2475 0054 04       		.byte	0x4
 2476 0055 05       		.byte	0x5
 2477 0056 17040000 		.4byte	.LASF5
 2478 005a 02       		.uleb128 0x2
 2479 005b 04       		.byte	0x4
 2480 005c 07       		.byte	0x7
 2481 005d 09050000 		.4byte	.LASF6
 2482 0061 02       		.uleb128 0x2
 2483 0062 08       		.byte	0x8
 2484 0063 05       		.byte	0x5
ARM GAS  C:\Users\ADMINI~1\AppData\Local\Temp\ccpQE0Fa.s 			page 56


 2485 0064 A1020000 		.4byte	.LASF7
 2486 0068 02       		.uleb128 0x2
 2487 0069 08       		.byte	0x8
 2488 006a 07       		.byte	0x7
 2489 006b 59010000 		.4byte	.LASF8
 2490 006f 04       		.uleb128 0x4
 2491 0070 04       		.byte	0x4
 2492 0071 05       		.byte	0x5
 2493 0072 696E7400 		.ascii	"int\000"
 2494 0076 02       		.uleb128 0x2
 2495 0077 04       		.byte	0x4
 2496 0078 07       		.byte	0x7
 2497 0079 9A000000 		.4byte	.LASF9
 2498 007d 03       		.uleb128 0x3
 2499 007e 23050000 		.4byte	.LASF11
 2500 0082 06       		.byte	0x6
 2501 0083 2C       		.byte	0x2c
 2502 0084 48000000 		.4byte	0x48
 2503 0088 05       		.uleb128 0x5
 2504 0089 A5060000 		.4byte	.LASF12
 2505 008d 07       		.byte	0x7
 2506 008e 9201     		.2byte	0x192
 2507 0090 33000000 		.4byte	0x33
 2508 0094 05       		.uleb128 0x5
 2509 0095 49020000 		.4byte	.LASF13
 2510 0099 07       		.byte	0x7
 2511 009a 9301     		.2byte	0x193
 2512 009c 41000000 		.4byte	0x41
 2513 00a0 05       		.uleb128 0x5
 2514 00a1 12030000 		.4byte	.LASF14
 2515 00a5 07       		.byte	0x7
 2516 00a6 9401     		.2byte	0x194
 2517 00a8 5A000000 		.4byte	0x5a
 2518 00ac 02       		.uleb128 0x2
 2519 00ad 08       		.byte	0x8
 2520 00ae 04       		.byte	0x4
 2521 00af AB060000 		.4byte	.LASF15
 2522 00b3 05       		.uleb128 0x5
 2523 00b4 78020000 		.4byte	.LASF16
 2524 00b8 07       		.byte	0x7
 2525 00b9 A301     		.2byte	0x1a3
 2526 00bb BF000000 		.4byte	0xbf
 2527 00bf 02       		.uleb128 0x2
 2528 00c0 01       		.byte	0x1
 2529 00c1 08       		.byte	0x8
 2530 00c2 2F020000 		.4byte	.LASF17
 2531 00c6 05       		.uleb128 0x5
 2532 00c7 DA000000 		.4byte	.LASF18
 2533 00cb 07       		.byte	0x7
 2534 00cc 3C02     		.2byte	0x23c
 2535 00ce D2000000 		.4byte	0xd2
 2536 00d2 06       		.uleb128 0x6
 2537 00d3 88000000 		.4byte	0x88
 2538 00d7 05       		.uleb128 0x5
 2539 00d8 F0020000 		.4byte	.LASF19
 2540 00dc 07       		.byte	0x7
 2541 00dd 4E02     		.2byte	0x24e
ARM GAS  C:\Users\ADMINI~1\AppData\Local\Temp\ccpQE0Fa.s 			page 57


 2542 00df E3000000 		.4byte	0xe3
 2543 00e3 07       		.uleb128 0x7
 2544 00e4 04       		.byte	0x4
 2545 00e5 E9000000 		.4byte	0xe9
 2546 00e9 08       		.uleb128 0x8
 2547 00ea 02       		.uleb128 0x2
 2548 00eb 04       		.byte	0x4
 2549 00ec 07       		.byte	0x7
 2550 00ed 00050000 		.4byte	.LASF20
 2551 00f1 07       		.uleb128 0x7
 2552 00f2 04       		.byte	0x4
 2553 00f3 BF000000 		.4byte	0xbf
 2554 00f7 07       		.uleb128 0x7
 2555 00f8 04       		.byte	0x4
 2556 00f9 FD000000 		.4byte	0xfd
 2557 00fd 09       		.uleb128 0x9
 2558 00fe BF000000 		.4byte	0xbf
 2559 0102 02       		.uleb128 0x2
 2560 0103 08       		.byte	0x8
 2561 0104 04       		.byte	0x4
 2562 0105 AA030000 		.4byte	.LASF21
 2563 0109 0A       		.uleb128 0xa
 2564 010a FC050000 		.4byte	.LASF22
 2565 010e 01       		.byte	0x1
 2566 010f 13       		.byte	0x13
 2567 0110 00000000 		.4byte	.LFB63
 2568 0114 16000000 		.4byte	.LFE63-.LFB63
 2569 0118 01       		.uleb128 0x1
 2570 0119 9C       		.byte	0x9c
 2571 011a 42010000 		.4byte	0x142
 2572 011e 0B       		.uleb128 0xb
 2573 011f 12010000 		.4byte	.LASF24
 2574 0123 01       		.byte	0x1
 2575 0124 13       		.byte	0x13
 2576 0125 6F000000 		.4byte	0x6f
 2577 0129 00000000 		.4byte	.LLST0
 2578 012d 0C       		.uleb128 0xc
 2579 012e 12000000 		.4byte	.LVL3
 2580 0132 ED100000 		.4byte	0x10ed
 2581 0136 0D       		.uleb128 0xd
 2582 0137 01       		.uleb128 0x1
 2583 0138 50       		.byte	0x50
 2584 0139 06       		.uleb128 0x6
 2585 013a F3       		.byte	0xf3
 2586 013b 01       		.uleb128 0x1
 2587 013c 50       		.byte	0x50
 2588 013d 23       		.byte	0x23
 2589 013e E707     		.uleb128 0x3e7
 2590 0140 00       		.byte	0
 2591 0141 00       		.byte	0
 2592 0142 0A       		.uleb128 0xa
 2593 0143 1D020000 		.4byte	.LASF23
 2594 0147 01       		.byte	0x1
 2595 0148 19       		.byte	0x19
 2596 0149 00000000 		.4byte	.LFB64
 2597 014d 16000000 		.4byte	.LFE64-.LFB64
 2598 0151 01       		.uleb128 0x1
ARM GAS  C:\Users\ADMINI~1\AppData\Local\Temp\ccpQE0Fa.s 			page 58


 2599 0152 9C       		.byte	0x9c
 2600 0153 7B010000 		.4byte	0x17b
 2601 0157 0B       		.uleb128 0xb
 2602 0158 12010000 		.4byte	.LASF24
 2603 015c 01       		.byte	0x1
 2604 015d 19       		.byte	0x19
 2605 015e 6F000000 		.4byte	0x6f
 2606 0162 3A000000 		.4byte	.LLST1
 2607 0166 0C       		.uleb128 0xc
 2608 0167 12000000 		.4byte	.LVL8
 2609 016b FE100000 		.4byte	0x10fe
 2610 016f 0D       		.uleb128 0xd
 2611 0170 01       		.uleb128 0x1
 2612 0171 50       		.byte	0x50
 2613 0172 06       		.uleb128 0x6
 2614 0173 F3       		.byte	0xf3
 2615 0174 01       		.uleb128 0x1
 2616 0175 50       		.byte	0x50
 2617 0176 23       		.byte	0x23
 2618 0177 E707     		.uleb128 0x3e7
 2619 0179 00       		.byte	0
 2620 017a 00       		.byte	0
 2621 017b 0A       		.uleb128 0xa
 2622 017c DA060000 		.4byte	.LASF25
 2623 0180 01       		.byte	0x1
 2624 0181 1F       		.byte	0x1f
 2625 0182 00000000 		.4byte	.LFB65
 2626 0186 16000000 		.4byte	.LFE65-.LFB65
 2627 018a 01       		.uleb128 0x1
 2628 018b 9C       		.byte	0x9c
 2629 018c B4010000 		.4byte	0x1b4
 2630 0190 0B       		.uleb128 0xb
 2631 0191 12010000 		.4byte	.LASF24
 2632 0195 01       		.byte	0x1
 2633 0196 1F       		.byte	0x1f
 2634 0197 6F000000 		.4byte	0x6f
 2635 019b 74000000 		.4byte	.LLST2
 2636 019f 0C       		.uleb128 0xc
 2637 01a0 12000000 		.4byte	.LVL13
 2638 01a4 0F110000 		.4byte	0x110f
 2639 01a8 0D       		.uleb128 0xd
 2640 01a9 01       		.uleb128 0x1
 2641 01aa 50       		.byte	0x50
 2642 01ab 06       		.uleb128 0x6
 2643 01ac F3       		.byte	0xf3
 2644 01ad 01       		.uleb128 0x1
 2645 01ae 50       		.byte	0x50
 2646 01af 23       		.byte	0x23
 2647 01b0 E707     		.uleb128 0x3e7
 2648 01b2 00       		.byte	0
 2649 01b3 00       		.byte	0
 2650 01b4 0A       		.uleb128 0xa
 2651 01b5 DE020000 		.4byte	.LASF26
 2652 01b9 01       		.byte	0x1
 2653 01ba 25       		.byte	0x25
 2654 01bb 00000000 		.4byte	.LFB66
 2655 01bf 16000000 		.4byte	.LFE66-.LFB66
ARM GAS  C:\Users\ADMINI~1\AppData\Local\Temp\ccpQE0Fa.s 			page 59


 2656 01c3 01       		.uleb128 0x1
 2657 01c4 9C       		.byte	0x9c
 2658 01c5 ED010000 		.4byte	0x1ed
 2659 01c9 0B       		.uleb128 0xb
 2660 01ca 12010000 		.4byte	.LASF24
 2661 01ce 01       		.byte	0x1
 2662 01cf 25       		.byte	0x25
 2663 01d0 6F000000 		.4byte	0x6f
 2664 01d4 AE000000 		.4byte	.LLST3
 2665 01d8 0C       		.uleb128 0xc
 2666 01d9 12000000 		.4byte	.LVL18
 2667 01dd 20110000 		.4byte	0x1120
 2668 01e1 0D       		.uleb128 0xd
 2669 01e2 01       		.uleb128 0x1
 2670 01e3 50       		.byte	0x50
 2671 01e4 06       		.uleb128 0x6
 2672 01e5 F3       		.byte	0xf3
 2673 01e6 01       		.uleb128 0x1
 2674 01e7 50       		.byte	0x50
 2675 01e8 23       		.byte	0x23
 2676 01e9 E707     		.uleb128 0x3e7
 2677 01eb 00       		.byte	0
 2678 01ec 00       		.byte	0
 2679 01ed 0A       		.uleb128 0xa
 2680 01ee E2050000 		.4byte	.LASF27
 2681 01f2 02       		.byte	0x2
 2682 01f3 30       		.byte	0x30
 2683 01f4 00000000 		.4byte	.LFB75
 2684 01f8 AC000000 		.4byte	.LFE75-.LFB75
 2685 01fc 01       		.uleb128 0x1
 2686 01fd 9C       		.byte	0x9c
 2687 01fe 27020000 		.4byte	0x227
 2688 0202 0E       		.uleb128 0xe
 2689 0203 20000000 		.4byte	.LVL20
 2690 0207 09010000 		.4byte	0x109
 2691 020b 0E       		.uleb128 0xe
 2692 020c 40000000 		.4byte	.LVL21
 2693 0210 42010000 		.4byte	0x142
 2694 0214 0E       		.uleb128 0xe
 2695 0215 60000000 		.4byte	.LVL22
 2696 0219 7B010000 		.4byte	0x17b
 2697 021d 0E       		.uleb128 0xe
 2698 021e 80000000 		.4byte	.LVL23
 2699 0222 B4010000 		.4byte	0x1b4
 2700 0226 00       		.byte	0
 2701 0227 0A       		.uleb128 0xa
 2702 0228 68040000 		.4byte	.LASF28
 2703 022c 01       		.byte	0x1
 2704 022d 2B       		.byte	0x2b
 2705 022e 00000000 		.4byte	.LFB67
 2706 0232 20000000 		.4byte	.LFE67-.LFB67
 2707 0236 01       		.uleb128 0x1
 2708 0237 9C       		.byte	0x9c
 2709 0238 C2020000 		.4byte	0x2c2
 2710 023c 0F       		.uleb128 0xf
 2711 023d 703100   		.ascii	"p1\000"
 2712 0240 01       		.byte	0x1
ARM GAS  C:\Users\ADMINI~1\AppData\Local\Temp\ccpQE0Fa.s 			page 60


 2713 0241 2B       		.byte	0x2b
 2714 0242 6F000000 		.4byte	0x6f
 2715 0246 E8000000 		.4byte	.LLST4
 2716 024a 0F       		.uleb128 0xf
 2717 024b 703200   		.ascii	"p2\000"
 2718 024e 01       		.byte	0x1
 2719 024f 2B       		.byte	0x2b
 2720 0250 6F000000 		.4byte	0x6f
 2721 0254 09010000 		.4byte	.LLST5
 2722 0258 0F       		.uleb128 0xf
 2723 0259 703300   		.ascii	"p3\000"
 2724 025c 01       		.byte	0x1
 2725 025d 2B       		.byte	0x2b
 2726 025e 6F000000 		.4byte	0x6f
 2727 0262 27010000 		.4byte	.LLST6
 2728 0266 0F       		.uleb128 0xf
 2729 0267 703400   		.ascii	"p4\000"
 2730 026a 01       		.byte	0x1
 2731 026b 2B       		.byte	0x2b
 2732 026c 6F000000 		.4byte	0x6f
 2733 0270 45010000 		.4byte	.LLST7
 2734 0274 10       		.uleb128 0x10
 2735 0275 0C000000 		.4byte	.LVL25
 2736 0279 09010000 		.4byte	0x109
 2737 027d 89020000 		.4byte	0x289
 2738 0281 0D       		.uleb128 0xd
 2739 0282 01       		.uleb128 0x1
 2740 0283 50       		.byte	0x50
 2741 0284 03       		.uleb128 0x3
 2742 0285 F3       		.byte	0xf3
 2743 0286 01       		.uleb128 0x1
 2744 0287 50       		.byte	0x50
 2745 0288 00       		.byte	0
 2746 0289 10       		.uleb128 0x10
 2747 028a 12000000 		.4byte	.LVL26
 2748 028e 42010000 		.4byte	0x142
 2749 0292 9D020000 		.4byte	0x29d
 2750 0296 0D       		.uleb128 0xd
 2751 0297 01       		.uleb128 0x1
 2752 0298 50       		.byte	0x50
 2753 0299 02       		.uleb128 0x2
 2754 029a 76       		.byte	0x76
 2755 029b 00       		.sleb128 0
 2756 029c 00       		.byte	0
 2757 029d 10       		.uleb128 0x10
 2758 029e 18000000 		.4byte	.LVL27
 2759 02a2 7B010000 		.4byte	0x17b
 2760 02a6 B1020000 		.4byte	0x2b1
 2761 02aa 0D       		.uleb128 0xd
 2762 02ab 01       		.uleb128 0x1
 2763 02ac 50       		.byte	0x50
 2764 02ad 02       		.uleb128 0x2
 2765 02ae 75       		.byte	0x75
 2766 02af 00       		.sleb128 0
 2767 02b0 00       		.byte	0
 2768 02b1 0C       		.uleb128 0xc
 2769 02b2 1E000000 		.4byte	.LVL28
ARM GAS  C:\Users\ADMINI~1\AppData\Local\Temp\ccpQE0Fa.s 			page 61


 2770 02b6 B4010000 		.4byte	0x1b4
 2771 02ba 0D       		.uleb128 0xd
 2772 02bb 01       		.uleb128 0x1
 2773 02bc 50       		.byte	0x50
 2774 02bd 02       		.uleb128 0x2
 2775 02be 74       		.byte	0x74
 2776 02bf 00       		.sleb128 0
 2777 02c0 00       		.byte	0
 2778 02c1 00       		.byte	0
 2779 02c2 11       		.uleb128 0x11
 2780 02c3 28060000 		.4byte	.LASF29
 2781 02c7 01       		.byte	0x1
 2782 02c8 32       		.byte	0x32
 2783 02c9 00000000 		.4byte	.LFB68
 2784 02cd 24000000 		.4byte	.LFE68-.LFB68
 2785 02d1 01       		.uleb128 0x1
 2786 02d2 9C       		.byte	0x9c
 2787 02d3 32030000 		.4byte	0x332
 2788 02d7 0E       		.uleb128 0xe
 2789 02d8 06000000 		.4byte	.LVL29
 2790 02dc 31110000 		.4byte	0x1131
 2791 02e0 0E       		.uleb128 0xe
 2792 02e1 0A000000 		.4byte	.LVL30
 2793 02e5 38110000 		.4byte	0x1138
 2794 02e9 10       		.uleb128 0x10
 2795 02ea 10000000 		.4byte	.LVL31
 2796 02ee ED100000 		.4byte	0x10ed
 2797 02f2 FC020000 		.4byte	0x2fc
 2798 02f6 0D       		.uleb128 0xd
 2799 02f7 01       		.uleb128 0x1
 2800 02f8 50       		.byte	0x50
 2801 02f9 01       		.uleb128 0x1
 2802 02fa 30       		.byte	0x30
 2803 02fb 00       		.byte	0
 2804 02fc 10       		.uleb128 0x10
 2805 02fd 16000000 		.4byte	.LVL32
 2806 0301 FE100000 		.4byte	0x10fe
 2807 0305 0F030000 		.4byte	0x30f
 2808 0309 0D       		.uleb128 0xd
 2809 030a 01       		.uleb128 0x1
 2810 030b 50       		.byte	0x50
 2811 030c 01       		.uleb128 0x1
 2812 030d 30       		.byte	0x30
 2813 030e 00       		.byte	0
 2814 030f 10       		.uleb128 0x10
 2815 0310 1C000000 		.4byte	.LVL33
 2816 0314 0F110000 		.4byte	0x110f
 2817 0318 22030000 		.4byte	0x322
 2818 031c 0D       		.uleb128 0xd
 2819 031d 01       		.uleb128 0x1
 2820 031e 50       		.byte	0x50
 2821 031f 01       		.uleb128 0x1
 2822 0320 30       		.byte	0x30
 2823 0321 00       		.byte	0
 2824 0322 0C       		.uleb128 0xc
 2825 0323 22000000 		.4byte	.LVL34
 2826 0327 20110000 		.4byte	0x1120
ARM GAS  C:\Users\ADMINI~1\AppData\Local\Temp\ccpQE0Fa.s 			page 62


 2827 032b 0D       		.uleb128 0xd
 2828 032c 01       		.uleb128 0x1
 2829 032d 50       		.byte	0x50
 2830 032e 01       		.uleb128 0x1
 2831 032f 30       		.byte	0x30
 2832 0330 00       		.byte	0
 2833 0331 00       		.byte	0
 2834 0332 11       		.uleb128 0x11
 2835 0333 BA040000 		.4byte	.LASF30
 2836 0337 01       		.byte	0x1
 2837 0338 3B       		.byte	0x3b
 2838 0339 00000000 		.4byte	.LFB69
 2839 033d 4C000000 		.4byte	.LFE69-.LFB69
 2840 0341 01       		.uleb128 0x1
 2841 0342 9C       		.byte	0x9c
 2842 0343 0E040000 		.4byte	0x40e
 2843 0347 10       		.uleb128 0x10
 2844 0348 0A000000 		.4byte	.LVL35
 2845 034c 09010000 		.4byte	0x109
 2846 0350 5C030000 		.4byte	0x35c
 2847 0354 0D       		.uleb128 0xd
 2848 0355 01       		.uleb128 0x1
 2849 0356 50       		.byte	0x50
 2850 0357 03       		.uleb128 0x3
 2851 0358 0A       		.byte	0xa
 2852 0359 E803     		.2byte	0x3e8
 2853 035b 00       		.byte	0
 2854 035c 10       		.uleb128 0x10
 2855 035d 12000000 		.4byte	.LVL36
 2856 0361 42010000 		.4byte	0x142
 2857 0365 71030000 		.4byte	0x371
 2858 0369 0D       		.uleb128 0xd
 2859 036a 01       		.uleb128 0x1
 2860 036b 50       		.byte	0x50
 2861 036c 03       		.uleb128 0x3
 2862 036d 0A       		.byte	0xa
 2863 036e E803     		.2byte	0x3e8
 2864 0370 00       		.byte	0
 2865 0371 10       		.uleb128 0x10
 2866 0372 1A000000 		.4byte	.LVL37
 2867 0376 7B010000 		.4byte	0x17b
 2868 037a 86030000 		.4byte	0x386
 2869 037e 0D       		.uleb128 0xd
 2870 037f 01       		.uleb128 0x1
 2871 0380 50       		.byte	0x50
 2872 0381 03       		.uleb128 0x3
 2873 0382 0A       		.byte	0xa
 2874 0383 E803     		.2byte	0x3e8
 2875 0385 00       		.byte	0
 2876 0386 10       		.uleb128 0x10
 2877 0387 22000000 		.4byte	.LVL38
 2878 038b B4010000 		.4byte	0x1b4
 2879 038f 9B030000 		.4byte	0x39b
 2880 0393 0D       		.uleb128 0xd
 2881 0394 01       		.uleb128 0x1
 2882 0395 50       		.byte	0x50
 2883 0396 03       		.uleb128 0x3
ARM GAS  C:\Users\ADMINI~1\AppData\Local\Temp\ccpQE0Fa.s 			page 63


 2884 0397 0A       		.byte	0xa
 2885 0398 E803     		.2byte	0x3e8
 2886 039a 00       		.byte	0
 2887 039b 10       		.uleb128 0x10
 2888 039c 2A000000 		.4byte	.LVL39
 2889 03a0 3F110000 		.4byte	0x113f
 2890 03a4 B0030000 		.4byte	0x3b0
 2891 03a8 0D       		.uleb128 0xd
 2892 03a9 01       		.uleb128 0x1
 2893 03aa 50       		.byte	0x50
 2894 03ab 03       		.uleb128 0x3
 2895 03ac 0A       		.byte	0xa
 2896 03ad D007     		.2byte	0x7d0
 2897 03af 00       		.byte	0
 2898 03b0 10       		.uleb128 0x10
 2899 03b1 30000000 		.4byte	.LVL40
 2900 03b5 09010000 		.4byte	0x109
 2901 03b9 C3030000 		.4byte	0x3c3
 2902 03bd 0D       		.uleb128 0xd
 2903 03be 01       		.uleb128 0x1
 2904 03bf 50       		.byte	0x50
 2905 03c0 01       		.uleb128 0x1
 2906 03c1 30       		.byte	0x30
 2907 03c2 00       		.byte	0
 2908 03c3 10       		.uleb128 0x10
 2909 03c4 36000000 		.4byte	.LVL41
 2910 03c8 42010000 		.4byte	0x142
 2911 03cc D6030000 		.4byte	0x3d6
 2912 03d0 0D       		.uleb128 0xd
 2913 03d1 01       		.uleb128 0x1
 2914 03d2 50       		.byte	0x50
 2915 03d3 01       		.uleb128 0x1
 2916 03d4 30       		.byte	0x30
 2917 03d5 00       		.byte	0
 2918 03d6 10       		.uleb128 0x10
 2919 03d7 3C000000 		.4byte	.LVL42
 2920 03db 7B010000 		.4byte	0x17b
 2921 03df E9030000 		.4byte	0x3e9
 2922 03e3 0D       		.uleb128 0xd
 2923 03e4 01       		.uleb128 0x1
 2924 03e5 50       		.byte	0x50
 2925 03e6 01       		.uleb128 0x1
 2926 03e7 30       		.byte	0x30
 2927 03e8 00       		.byte	0
 2928 03e9 10       		.uleb128 0x10
 2929 03ea 42000000 		.4byte	.LVL43
 2930 03ee B4010000 		.4byte	0x1b4
 2931 03f2 FC030000 		.4byte	0x3fc
 2932 03f6 0D       		.uleb128 0xd
 2933 03f7 01       		.uleb128 0x1
 2934 03f8 50       		.byte	0x50
 2935 03f9 01       		.uleb128 0x1
 2936 03fa 30       		.byte	0x30
 2937 03fb 00       		.byte	0
 2938 03fc 0C       		.uleb128 0xc
 2939 03fd 4A000000 		.4byte	.LVL44
 2940 0401 3F110000 		.4byte	0x113f
ARM GAS  C:\Users\ADMINI~1\AppData\Local\Temp\ccpQE0Fa.s 			page 64


 2941 0405 0D       		.uleb128 0xd
 2942 0406 01       		.uleb128 0x1
 2943 0407 50       		.byte	0x50
 2944 0408 03       		.uleb128 0x3
 2945 0409 0A       		.byte	0xa
 2946 040a E803     		.2byte	0x3e8
 2947 040c 00       		.byte	0
 2948 040d 00       		.byte	0
 2949 040e 12       		.uleb128 0x12
 2950 040f 38030000 		.4byte	.LASF31
 2951 0413 03       		.byte	0x3
 2952 0414 0D       		.byte	0xd
 2953 0415 00000000 		.4byte	.LFB70
 2954 0419 44010000 		.4byte	.LFE70-.LFB70
 2955 041d 01       		.uleb128 0x1
 2956 041e 9C       		.byte	0x9c
 2957 041f 5E040000 		.4byte	0x45e
 2958 0423 0F       		.uleb128 0xf
 2959 0424 62756600 		.ascii	"buf\000"
 2960 0428 03       		.byte	0x3
 2961 0429 0D       		.byte	0xd
 2962 042a 5E040000 		.4byte	0x45e
 2963 042e 63010000 		.4byte	.LLST8
 2964 0432 0B       		.uleb128 0xb
 2965 0433 42020000 		.4byte	.LASF32
 2966 0437 03       		.byte	0x3
 2967 0438 0D       		.byte	0xd
 2968 0439 88000000 		.4byte	0x88
 2969 043d 8F010000 		.4byte	.LLST9
 2970 0441 13       		.uleb128 0x13
 2971 0442 73756D00 		.ascii	"sum\000"
 2972 0446 03       		.byte	0x3
 2973 0447 0E       		.byte	0xe
 2974 0448 6F000000 		.4byte	0x6f
 2975 044c B0010000 		.4byte	.LLST10
 2976 0450 13       		.uleb128 0x13
 2977 0451 6A00     		.ascii	"j\000"
 2978 0453 03       		.byte	0x3
 2979 0454 0F       		.byte	0xf
 2980 0455 6F000000 		.4byte	0x6f
 2981 0459 CF010000 		.4byte	.LLST11
 2982 045d 00       		.byte	0
 2983 045e 07       		.uleb128 0x7
 2984 045f 04       		.byte	0x4
 2985 0460 88000000 		.4byte	0x88
 2986 0464 0A       		.uleb128 0xa
 2987 0465 18010000 		.4byte	.LASF33
 2988 0469 02       		.byte	0x2
 2989 046a 4A       		.byte	0x4a
 2990 046b 00000000 		.4byte	.LFB76
 2991 046f 70000000 		.4byte	.LFE76-.LFB76
 2992 0473 01       		.uleb128 0x1
 2993 0474 9C       		.byte	0x9c
 2994 0475 96040000 		.4byte	0x496
 2995 0479 0E       		.uleb128 0xe
 2996 047a 06000000 		.4byte	.LVL78
 2997 047e 50110000 		.4byte	0x1150
ARM GAS  C:\Users\ADMINI~1\AppData\Local\Temp\ccpQE0Fa.s 			page 65


 2998 0482 0C       		.uleb128 0xc
 2999 0483 54000000 		.4byte	.LVL79
 3000 0487 0E040000 		.4byte	0x40e
 3001 048b 0D       		.uleb128 0xd
 3002 048c 01       		.uleb128 0x1
 3003 048d 50       		.byte	0x50
 3004 048e 05       		.uleb128 0x5
 3005 048f 03       		.byte	0x3
 3006 0490 00000000 		.4byte	BTRxBuf
 3007 0494 00       		.byte	0
 3008 0495 00       		.byte	0
 3009 0496 14       		.uleb128 0x14
 3010 0497 0D020000 		.4byte	.LASF119
 3011 049b 04       		.byte	0x4
 3012 049c 18       		.byte	0x18
 3013 049d 00000000 		.4byte	.LFB71
 3014 04a1 70000000 		.4byte	.LFE71-.LFB71
 3015 04a5 01       		.uleb128 0x1
 3016 04a6 9C       		.byte	0x9c
 3017 04a7 15       		.uleb128 0x15
 3018 04a8 08000000 		.4byte	.LASF120
 3019 04ac 04       		.byte	0x4
 3020 04ad 20       		.byte	0x20
 3021 04ae 6F000000 		.4byte	0x6f
 3022 04b2 00000000 		.4byte	.LFB72
 3023 04b6 24030000 		.4byte	.LFE72-.LFB72
 3024 04ba 01       		.uleb128 0x1
 3025 04bb 9C       		.byte	0x9c
 3026 04bc DF040000 		.4byte	0x4df
 3027 04c0 0F       		.uleb128 0xf
 3028 04c1 62756600 		.ascii	"buf\000"
 3029 04c5 04       		.byte	0x4
 3030 04c6 20       		.byte	0x20
 3031 04c7 5E040000 		.4byte	0x45e
 3032 04cb EE010000 		.4byte	.LLST12
 3033 04cf 0F       		.uleb128 0xf
 3034 04d0 6C656E00 		.ascii	"len\000"
 3035 04d4 04       		.byte	0x4
 3036 04d5 20       		.byte	0x20
 3037 04d6 6F000000 		.4byte	0x6f
 3038 04da D3020000 		.4byte	.LLST13
 3039 04de 00       		.byte	0
 3040 04df 0A       		.uleb128 0xa
 3041 04e0 2B050000 		.4byte	.LASF34
 3042 04e4 02       		.byte	0x2
 3043 04e5 7F       		.byte	0x7f
 3044 04e6 00000000 		.4byte	.LFB79
 3045 04ea 9C000000 		.4byte	.LFE79-.LFB79
 3046 04ee 01       		.uleb128 0x1
 3047 04ef 9C       		.byte	0x9c
 3048 04f0 11050000 		.4byte	0x511
 3049 04f4 0E       		.uleb128 0xe
 3050 04f5 06000000 		.4byte	.LVL157
 3051 04f9 5B110000 		.4byte	0x115b
 3052 04fd 0C       		.uleb128 0xc
 3053 04fe 6C000000 		.4byte	.LVL158
 3054 0502 A7040000 		.4byte	0x4a7
ARM GAS  C:\Users\ADMINI~1\AppData\Local\Temp\ccpQE0Fa.s 			page 66


 3055 0506 0D       		.uleb128 0xd
 3056 0507 01       		.uleb128 0x1
 3057 0508 50       		.byte	0x50
 3058 0509 05       		.uleb128 0x5
 3059 050a 03       		.byte	0x3
 3060 050b 00000000 		.4byte	JY901RxBuf
 3061 050f 00       		.byte	0
 3062 0510 00       		.byte	0
 3063 0511 0A       		.uleb128 0xa
 3064 0512 1F000000 		.4byte	.LASF35
 3065 0516 02       		.byte	0x2
 3066 0517 15       		.byte	0x15
 3067 0518 00000000 		.4byte	.LFB73
 3068 051c 14000000 		.4byte	.LFE73-.LFB73
 3069 0520 01       		.uleb128 0x1
 3070 0521 9C       		.byte	0x9c
 3071 0522 6D050000 		.4byte	0x56d
 3072 0526 0F       		.uleb128 0xf
 3073 0527 73747200 		.ascii	"str\000"
 3074 052b 02       		.byte	0x2
 3075 052c 15       		.byte	0x15
 3076 052d F1000000 		.4byte	0xf1
 3077 0531 0D030000 		.4byte	.LLST14
 3078 0535 0F       		.uleb128 0xf
 3079 0536 726F7700 		.ascii	"row\000"
 3080 053a 02       		.byte	0x2
 3081 053b 15       		.byte	0x15
 3082 053c 33000000 		.4byte	0x33
 3083 0540 2B030000 		.4byte	.LLST15
 3084 0544 0F       		.uleb128 0xf
 3085 0545 636F6C00 		.ascii	"col\000"
 3086 0549 02       		.byte	0x2
 3087 054a 15       		.byte	0x15
 3088 054b 33000000 		.4byte	0x33
 3089 054f 4C030000 		.4byte	.LLST16
 3090 0553 0E       		.uleb128 0xe
 3091 0554 0C000000 		.4byte	.LVL162
 3092 0558 66110000 		.4byte	0x1166
 3093 055c 0C       		.uleb128 0xc
 3094 055d 12000000 		.4byte	.LVL163
 3095 0561 7C110000 		.4byte	0x117c
 3096 0565 0D       		.uleb128 0xd
 3097 0566 01       		.uleb128 0x1
 3098 0567 50       		.byte	0x50
 3099 0568 02       		.uleb128 0x2
 3100 0569 74       		.byte	0x74
 3101 056a 00       		.sleb128 0
 3102 056b 00       		.byte	0
 3103 056c 00       		.byte	0
 3104 056d 12       		.uleb128 0x12
 3105 056e 4E040000 		.4byte	.LASF36
 3106 0572 02       		.byte	0x2
 3107 0573 1E       		.byte	0x1e
 3108 0574 00000000 		.4byte	.LFB74
 3109 0578 A8000000 		.4byte	.LFE74-.LFB74
 3110 057c 01       		.uleb128 0x1
 3111 057d 9C       		.byte	0x9c
ARM GAS  C:\Users\ADMINI~1\AppData\Local\Temp\ccpQE0Fa.s 			page 67


 3112 057e 40060000 		.4byte	0x640
 3113 0582 0F       		.uleb128 0xf
 3114 0583 73747200 		.ascii	"str\000"
 3115 0587 02       		.byte	0x2
 3116 0588 1E       		.byte	0x1e
 3117 0589 F1000000 		.4byte	0xf1
 3118 058d 6D030000 		.4byte	.LLST17
 3119 0591 0F       		.uleb128 0xf
 3120 0592 7800     		.ascii	"x\000"
 3121 0594 02       		.byte	0x2
 3122 0595 1E       		.byte	0x1e
 3123 0596 25000000 		.4byte	0x25
 3124 059a 99030000 		.4byte	.LLST18
 3125 059e 16       		.uleb128 0x16
 3126 059f B3000000 		.4byte	.LASF37
 3127 05a3 02       		.byte	0x2
 3128 05a4 1F       		.byte	0x1f
 3129 05a5 88000000 		.4byte	0x88
 3130 05a9 D2030000 		.4byte	.LLST19
 3131 05ad 13       		.uleb128 0x13
 3132 05ae 6E756D00 		.ascii	"num\000"
 3133 05b2 02       		.byte	0x2
 3134 05b3 20       		.byte	0x20
 3135 05b4 25000000 		.4byte	0x25
 3136 05b8 E5030000 		.4byte	.LLST20
 3137 05bc 16       		.uleb128 0x16
 3138 05bd B1040000 		.4byte	.LASF38
 3139 05c1 02       		.byte	0x2
 3140 05c2 21       		.byte	0x21
 3141 05c3 6F000000 		.4byte	0x6f
 3142 05c7 F8030000 		.4byte	.LLST21
 3143 05cb 16       		.uleb128 0x16
 3144 05cc C5010000 		.4byte	.LASF39
 3145 05d0 02       		.byte	0x2
 3146 05d1 22       		.byte	0x22
 3147 05d2 6F000000 		.4byte	0x6f
 3148 05d6 16040000 		.4byte	.LLST22
 3149 05da 10       		.uleb128 0x10
 3150 05db 66000000 		.4byte	.LVL179
 3151 05df 98110000 		.4byte	0x1198
 3152 05e3 FD050000 		.4byte	0x5fd
 3153 05e7 0D       		.uleb128 0xd
 3154 05e8 01       		.uleb128 0x1
 3155 05e9 53       		.byte	0x53
 3156 05ea 02       		.uleb128 0x2
 3157 05eb 76       		.byte	0x76
 3158 05ec 00       		.sleb128 0
 3159 05ed 0D       		.uleb128 0xd
 3160 05ee 01       		.uleb128 0x1
 3161 05ef 51       		.byte	0x51
 3162 05f0 05       		.uleb128 0x5
 3163 05f1 03       		.byte	0x3
 3164 05f2 00000000 		.4byte	.LC0
 3165 05f6 0D       		.uleb128 0xd
 3166 05f7 01       		.uleb128 0x1
 3167 05f8 50       		.byte	0x50
 3168 05f9 02       		.uleb128 0x2
ARM GAS  C:\Users\ADMINI~1\AppData\Local\Temp\ccpQE0Fa.s 			page 68


 3169 05fa 77       		.byte	0x77
 3170 05fb 00       		.sleb128 0
 3171 05fc 00       		.byte	0
 3172 05fd 10       		.uleb128 0x10
 3173 05fe 80000000 		.4byte	.LVL182
 3174 0602 98110000 		.4byte	0x1198
 3175 0606 20060000 		.4byte	0x620
 3176 060a 0D       		.uleb128 0xd
 3177 060b 01       		.uleb128 0x1
 3178 060c 53       		.byte	0x53
 3179 060d 02       		.uleb128 0x2
 3180 060e 76       		.byte	0x76
 3181 060f 00       		.sleb128 0
 3182 0610 0D       		.uleb128 0xd
 3183 0611 01       		.uleb128 0x1
 3184 0612 51       		.byte	0x51
 3185 0613 05       		.uleb128 0x5
 3186 0614 03       		.byte	0x3
 3187 0615 08000000 		.4byte	.LC1
 3188 0619 0D       		.uleb128 0xd
 3189 061a 01       		.uleb128 0x1
 3190 061b 50       		.byte	0x50
 3191 061c 02       		.uleb128 0x2
 3192 061d 77       		.byte	0x77
 3193 061e 00       		.sleb128 0
 3194 061f 00       		.byte	0
 3195 0620 0C       		.uleb128 0xc
 3196 0621 94000000 		.4byte	.LVL185
 3197 0625 98110000 		.4byte	0x1198
 3198 0629 0D       		.uleb128 0xd
 3199 062a 01       		.uleb128 0x1
 3200 062b 53       		.byte	0x53
 3201 062c 02       		.uleb128 0x2
 3202 062d 76       		.byte	0x76
 3203 062e 00       		.sleb128 0
 3204 062f 0D       		.uleb128 0xd
 3205 0630 01       		.uleb128 0x1
 3206 0631 51       		.byte	0x51
 3207 0632 05       		.uleb128 0x5
 3208 0633 03       		.byte	0x3
 3209 0634 14000000 		.4byte	.LC2
 3210 0638 0D       		.uleb128 0xd
 3211 0639 01       		.uleb128 0x1
 3212 063a 50       		.byte	0x50
 3213 063b 02       		.uleb128 0x2
 3214 063c 77       		.byte	0x77
 3215 063d 00       		.sleb128 0
 3216 063e 00       		.byte	0
 3217 063f 00       		.byte	0
 3218 0640 12       		.uleb128 0x12
 3219 0641 F5060000 		.4byte	.LASF40
 3220 0645 02       		.byte	0x2
 3221 0646 6D       		.byte	0x6d
 3222 0647 00000000 		.4byte	.LFB77
 3223 064b 88000000 		.4byte	.LFE77-.LFB77
 3224 064f 01       		.uleb128 0x1
 3225 0650 9C       		.byte	0x9c
ARM GAS  C:\Users\ADMINI~1\AppData\Local\Temp\ccpQE0Fa.s 			page 69


 3226 0651 82060000 		.4byte	0x682
 3227 0655 0F       		.uleb128 0xf
 3228 0656 6600     		.ascii	"f\000"
 3229 0658 02       		.byte	0x2
 3230 0659 6D       		.byte	0x6d
 3231 065a 25000000 		.4byte	0x25
 3232 065e 57040000 		.4byte	.LLST23
 3233 0662 0C       		.uleb128 0xc
 3234 0663 64000000 		.4byte	.LVL194
 3235 0667 98110000 		.4byte	0x1198
 3236 066b 0D       		.uleb128 0xd
 3237 066c 01       		.uleb128 0x1
 3238 066d 52       		.byte	0x52
 3239 066e 02       		.uleb128 0x2
 3240 066f 75       		.byte	0x75
 3241 0670 00       		.sleb128 0
 3242 0671 0D       		.uleb128 0xd
 3243 0672 01       		.uleb128 0x1
 3244 0673 51       		.byte	0x51
 3245 0674 05       		.uleb128 0x5
 3246 0675 03       		.byte	0x3
 3247 0676 1C000000 		.4byte	.LC3
 3248 067a 0D       		.uleb128 0xd
 3249 067b 01       		.uleb128 0x1
 3250 067c 50       		.byte	0x50
 3251 067d 02       		.uleb128 0x2
 3252 067e 74       		.byte	0x74
 3253 067f 00       		.sleb128 0
 3254 0680 00       		.byte	0
 3255 0681 00       		.byte	0
 3256 0682 11       		.uleb128 0x11
 3257 0683 C9000000 		.4byte	.LASF41
 3258 0687 02       		.byte	0x2
 3259 0688 76       		.byte	0x76
 3260 0689 00000000 		.4byte	.LFB78
 3261 068d 4C000000 		.4byte	.LFE78-.LFB78
 3262 0691 01       		.uleb128 0x1
 3263 0692 9C       		.byte	0x9c
 3264 0693 09070000 		.4byte	0x709
 3265 0697 0E       		.uleb128 0xe
 3266 0698 0A000000 		.4byte	.LVL195
 3267 069c 40060000 		.4byte	0x640
 3268 06a0 10       		.uleb128 0x10
 3269 06a1 16000000 		.4byte	.LVL196
 3270 06a5 11050000 		.4byte	0x511
 3271 06a9 BE060000 		.4byte	0x6be
 3272 06ad 0D       		.uleb128 0xd
 3273 06ae 01       		.uleb128 0x1
 3274 06af 52       		.byte	0x52
 3275 06b0 01       		.uleb128 0x1
 3276 06b1 30       		.byte	0x30
 3277 06b2 0D       		.uleb128 0xd
 3278 06b3 01       		.uleb128 0x1
 3279 06b4 51       		.byte	0x51
 3280 06b5 01       		.uleb128 0x1
 3281 06b6 30       		.byte	0x30
 3282 06b7 0D       		.uleb128 0xd
ARM GAS  C:\Users\ADMINI~1\AppData\Local\Temp\ccpQE0Fa.s 			page 70


 3283 06b8 01       		.uleb128 0x1
 3284 06b9 50       		.byte	0x50
 3285 06ba 02       		.uleb128 0x2
 3286 06bb 74       		.byte	0x74
 3287 06bc 00       		.sleb128 0
 3288 06bd 00       		.byte	0
 3289 06be 0E       		.uleb128 0xe
 3290 06bf 1E000000 		.4byte	.LVL197
 3291 06c3 40060000 		.4byte	0x640
 3292 06c7 10       		.uleb128 0x10
 3293 06c8 28000000 		.4byte	.LVL198
 3294 06cc 11050000 		.4byte	0x511
 3295 06d0 E5060000 		.4byte	0x6e5
 3296 06d4 0D       		.uleb128 0xd
 3297 06d5 01       		.uleb128 0x1
 3298 06d6 52       		.byte	0x52
 3299 06d7 01       		.uleb128 0x1
 3300 06d8 38       		.byte	0x38
 3301 06d9 0D       		.uleb128 0xd
 3302 06da 01       		.uleb128 0x1
 3303 06db 51       		.byte	0x51
 3304 06dc 01       		.uleb128 0x1
 3305 06dd 30       		.byte	0x30
 3306 06de 0D       		.uleb128 0xd
 3307 06df 01       		.uleb128 0x1
 3308 06e0 50       		.byte	0x50
 3309 06e1 02       		.uleb128 0x2
 3310 06e2 74       		.byte	0x74
 3311 06e3 00       		.sleb128 0
 3312 06e4 00       		.byte	0
 3313 06e5 0E       		.uleb128 0xe
 3314 06e6 30000000 		.4byte	.LVL199
 3315 06ea 40060000 		.4byte	0x640
 3316 06ee 0C       		.uleb128 0xc
 3317 06ef 3A000000 		.4byte	.LVL200
 3318 06f3 11050000 		.4byte	0x511
 3319 06f7 0D       		.uleb128 0xd
 3320 06f8 01       		.uleb128 0x1
 3321 06f9 52       		.byte	0x52
 3322 06fa 01       		.uleb128 0x1
 3323 06fb 30       		.byte	0x30
 3324 06fc 0D       		.uleb128 0xd
 3325 06fd 01       		.uleb128 0x1
 3326 06fe 51       		.byte	0x51
 3327 06ff 01       		.uleb128 0x1
 3328 0700 31       		.byte	0x31
 3329 0701 0D       		.uleb128 0xd
 3330 0702 01       		.uleb128 0x1
 3331 0703 50       		.byte	0x50
 3332 0704 02       		.uleb128 0x2
 3333 0705 74       		.byte	0x74
 3334 0706 00       		.sleb128 0
 3335 0707 00       		.byte	0
 3336 0708 00       		.byte	0
 3337 0709 12       		.uleb128 0x12
 3338 070a DB030000 		.4byte	.LASF42
 3339 070e 02       		.byte	0x2
ARM GAS  C:\Users\ADMINI~1\AppData\Local\Temp\ccpQE0Fa.s 			page 71


 3340 070f 9B       		.byte	0x9b
 3341 0710 00000000 		.4byte	.LFB80
 3342 0714 94020000 		.4byte	.LFE80-.LFB80
 3343 0718 01       		.uleb128 0x1
 3344 0719 9C       		.byte	0x9c
 3345 071a C60B0000 		.4byte	0xbc6
 3346 071e 0E       		.uleb128 0xe
 3347 071f 06000000 		.4byte	.LVL201
 3348 0723 B3110000 		.4byte	0x11b3
 3349 0727 10       		.uleb128 0x10
 3350 0728 10000000 		.4byte	.LVL202
 3351 072c BE110000 		.4byte	0x11be
 3352 0730 3E070000 		.4byte	0x73e
 3353 0734 0D       		.uleb128 0xd
 3354 0735 01       		.uleb128 0x1
 3355 0736 50       		.byte	0x50
 3356 0737 05       		.uleb128 0x5
 3357 0738 03       		.byte	0x3
 3358 0739 28000000 		.4byte	.LC4
 3359 073d 00       		.byte	0
 3360 073e 0E       		.uleb128 0xe
 3361 073f 14000000 		.4byte	.LVL203
 3362 0743 B3110000 		.4byte	0x11b3
 3363 0747 10       		.uleb128 0x10
 3364 0748 1E000000 		.4byte	.LVL204
 3365 074c BE110000 		.4byte	0x11be
 3366 0750 5E070000 		.4byte	0x75e
 3367 0754 0D       		.uleb128 0xd
 3368 0755 01       		.uleb128 0x1
 3369 0756 50       		.byte	0x50
 3370 0757 05       		.uleb128 0x5
 3371 0758 03       		.byte	0x3
 3372 0759 40000000 		.4byte	.LC5
 3373 075d 00       		.byte	0
 3374 075e 10       		.uleb128 0x10
 3375 075f 28000000 		.4byte	.LVL205
 3376 0763 6D050000 		.4byte	0x56d
 3377 0767 75070000 		.4byte	0x775
 3378 076b 0D       		.uleb128 0xd
 3379 076c 01       		.uleb128 0x1
 3380 076d 50       		.byte	0x50
 3381 076e 05       		.uleb128 0x5
 3382 076f 03       		.byte	0x3
 3383 0770 00000000 		.4byte	DisplayBuffer
 3384 0774 00       		.byte	0
 3385 0775 0E       		.uleb128 0xe
 3386 0776 2C000000 		.4byte	.LVL206
 3387 077a B3110000 		.4byte	0x11b3
 3388 077e 10       		.uleb128 0x10
 3389 077f 36000000 		.4byte	.LVL207
 3390 0783 BE110000 		.4byte	0x11be
 3391 0787 95070000 		.4byte	0x795
 3392 078b 0D       		.uleb128 0xd
 3393 078c 01       		.uleb128 0x1
 3394 078d 50       		.byte	0x50
 3395 078e 05       		.uleb128 0x5
 3396 078f 03       		.byte	0x3
ARM GAS  C:\Users\ADMINI~1\AppData\Local\Temp\ccpQE0Fa.s 			page 72


 3397 0790 00000000 		.4byte	DisplayBuffer
 3398 0794 00       		.byte	0
 3399 0795 0E       		.uleb128 0xe
 3400 0796 3A000000 		.4byte	.LVL208
 3401 079a B3110000 		.4byte	0x11b3
 3402 079e 10       		.uleb128 0x10
 3403 079f 44000000 		.4byte	.LVL209
 3404 07a3 BE110000 		.4byte	0x11be
 3405 07a7 B5070000 		.4byte	0x7b5
 3406 07ab 0D       		.uleb128 0xd
 3407 07ac 01       		.uleb128 0x1
 3408 07ad 50       		.byte	0x50
 3409 07ae 05       		.uleb128 0x5
 3410 07af 03       		.byte	0x3
 3411 07b0 48000000 		.4byte	.LC6
 3412 07b4 00       		.byte	0
 3413 07b5 10       		.uleb128 0x10
 3414 07b6 4E000000 		.4byte	.LVL210
 3415 07ba 6D050000 		.4byte	0x56d
 3416 07be CC070000 		.4byte	0x7cc
 3417 07c2 0D       		.uleb128 0xd
 3418 07c3 01       		.uleb128 0x1
 3419 07c4 50       		.byte	0x50
 3420 07c5 05       		.uleb128 0x5
 3421 07c6 03       		.byte	0x3
 3422 07c7 00000000 		.4byte	DisplayBuffer
 3423 07cb 00       		.byte	0
 3424 07cc 0E       		.uleb128 0xe
 3425 07cd 52000000 		.4byte	.LVL211
 3426 07d1 B3110000 		.4byte	0x11b3
 3427 07d5 10       		.uleb128 0x10
 3428 07d6 5C000000 		.4byte	.LVL212
 3429 07da BE110000 		.4byte	0x11be
 3430 07de EC070000 		.4byte	0x7ec
 3431 07e2 0D       		.uleb128 0xd
 3432 07e3 01       		.uleb128 0x1
 3433 07e4 50       		.byte	0x50
 3434 07e5 05       		.uleb128 0x5
 3435 07e6 03       		.byte	0x3
 3436 07e7 00000000 		.4byte	DisplayBuffer
 3437 07eb 00       		.byte	0
 3438 07ec 0E       		.uleb128 0xe
 3439 07ed 60000000 		.4byte	.LVL213
 3440 07f1 B3110000 		.4byte	0x11b3
 3441 07f5 10       		.uleb128 0x10
 3442 07f6 6A000000 		.4byte	.LVL214
 3443 07fa BE110000 		.4byte	0x11be
 3444 07fe 0C080000 		.4byte	0x80c
 3445 0802 0D       		.uleb128 0xd
 3446 0803 01       		.uleb128 0x1
 3447 0804 50       		.byte	0x50
 3448 0805 05       		.uleb128 0x5
 3449 0806 03       		.byte	0x3
 3450 0807 54000000 		.4byte	.LC7
 3451 080b 00       		.byte	0
 3452 080c 10       		.uleb128 0x10
 3453 080d 74000000 		.4byte	.LVL215
ARM GAS  C:\Users\ADMINI~1\AppData\Local\Temp\ccpQE0Fa.s 			page 73


 3454 0811 6D050000 		.4byte	0x56d
 3455 0815 23080000 		.4byte	0x823
 3456 0819 0D       		.uleb128 0xd
 3457 081a 01       		.uleb128 0x1
 3458 081b 50       		.byte	0x50
 3459 081c 05       		.uleb128 0x5
 3460 081d 03       		.byte	0x3
 3461 081e 00000000 		.4byte	DisplayBuffer
 3462 0822 00       		.byte	0
 3463 0823 0E       		.uleb128 0xe
 3464 0824 78000000 		.4byte	.LVL216
 3465 0828 B3110000 		.4byte	0x11b3
 3466 082c 10       		.uleb128 0x10
 3467 082d 82000000 		.4byte	.LVL217
 3468 0831 BE110000 		.4byte	0x11be
 3469 0835 43080000 		.4byte	0x843
 3470 0839 0D       		.uleb128 0xd
 3471 083a 01       		.uleb128 0x1
 3472 083b 50       		.byte	0x50
 3473 083c 05       		.uleb128 0x5
 3474 083d 03       		.byte	0x3
 3475 083e 00000000 		.4byte	DisplayBuffer
 3476 0842 00       		.byte	0
 3477 0843 0E       		.uleb128 0xe
 3478 0844 86000000 		.4byte	.LVL218
 3479 0848 B3110000 		.4byte	0x11b3
 3480 084c 10       		.uleb128 0x10
 3481 084d 90000000 		.4byte	.LVL219
 3482 0851 BE110000 		.4byte	0x11be
 3483 0855 63080000 		.4byte	0x863
 3484 0859 0D       		.uleb128 0xd
 3485 085a 01       		.uleb128 0x1
 3486 085b 50       		.byte	0x50
 3487 085c 05       		.uleb128 0x5
 3488 085d 03       		.byte	0x3
 3489 085e 60000000 		.4byte	.LC8
 3490 0862 00       		.byte	0
 3491 0863 10       		.uleb128 0x10
 3492 0864 9A000000 		.4byte	.LVL220
 3493 0868 6D050000 		.4byte	0x56d
 3494 086c 7A080000 		.4byte	0x87a
 3495 0870 0D       		.uleb128 0xd
 3496 0871 01       		.uleb128 0x1
 3497 0872 50       		.byte	0x50
 3498 0873 05       		.uleb128 0x5
 3499 0874 03       		.byte	0x3
 3500 0875 00000000 		.4byte	DisplayBuffer
 3501 0879 00       		.byte	0
 3502 087a 0E       		.uleb128 0xe
 3503 087b 9E000000 		.4byte	.LVL221
 3504 087f B3110000 		.4byte	0x11b3
 3505 0883 10       		.uleb128 0x10
 3506 0884 A8000000 		.4byte	.LVL222
 3507 0888 BE110000 		.4byte	0x11be
 3508 088c 9A080000 		.4byte	0x89a
 3509 0890 0D       		.uleb128 0xd
 3510 0891 01       		.uleb128 0x1
ARM GAS  C:\Users\ADMINI~1\AppData\Local\Temp\ccpQE0Fa.s 			page 74


 3511 0892 50       		.byte	0x50
 3512 0893 05       		.uleb128 0x5
 3513 0894 03       		.byte	0x3
 3514 0895 00000000 		.4byte	DisplayBuffer
 3515 0899 00       		.byte	0
 3516 089a 0E       		.uleb128 0xe
 3517 089b AC000000 		.4byte	.LVL223
 3518 089f B3110000 		.4byte	0x11b3
 3519 08a3 10       		.uleb128 0x10
 3520 08a4 B6000000 		.4byte	.LVL224
 3521 08a8 BE110000 		.4byte	0x11be
 3522 08ac BA080000 		.4byte	0x8ba
 3523 08b0 0D       		.uleb128 0xd
 3524 08b1 01       		.uleb128 0x1
 3525 08b2 50       		.byte	0x50
 3526 08b3 05       		.uleb128 0x5
 3527 08b4 03       		.byte	0x3
 3528 08b5 6C000000 		.4byte	.LC9
 3529 08b9 00       		.byte	0
 3530 08ba 10       		.uleb128 0x10
 3531 08bb C0000000 		.4byte	.LVL225
 3532 08bf 6D050000 		.4byte	0x56d
 3533 08c3 D1080000 		.4byte	0x8d1
 3534 08c7 0D       		.uleb128 0xd
 3535 08c8 01       		.uleb128 0x1
 3536 08c9 50       		.byte	0x50
 3537 08ca 05       		.uleb128 0x5
 3538 08cb 03       		.byte	0x3
 3539 08cc 00000000 		.4byte	DisplayBuffer
 3540 08d0 00       		.byte	0
 3541 08d1 0E       		.uleb128 0xe
 3542 08d2 C4000000 		.4byte	.LVL226
 3543 08d6 B3110000 		.4byte	0x11b3
 3544 08da 10       		.uleb128 0x10
 3545 08db CE000000 		.4byte	.LVL227
 3546 08df BE110000 		.4byte	0x11be
 3547 08e3 F1080000 		.4byte	0x8f1
 3548 08e7 0D       		.uleb128 0xd
 3549 08e8 01       		.uleb128 0x1
 3550 08e9 50       		.byte	0x50
 3551 08ea 05       		.uleb128 0x5
 3552 08eb 03       		.byte	0x3
 3553 08ec 00000000 		.4byte	DisplayBuffer
 3554 08f0 00       		.byte	0
 3555 08f1 0E       		.uleb128 0xe
 3556 08f2 D2000000 		.4byte	.LVL228
 3557 08f6 B3110000 		.4byte	0x11b3
 3558 08fa 10       		.uleb128 0x10
 3559 08fb DC000000 		.4byte	.LVL229
 3560 08ff BE110000 		.4byte	0x11be
 3561 0903 11090000 		.4byte	0x911
 3562 0907 0D       		.uleb128 0xd
 3563 0908 01       		.uleb128 0x1
 3564 0909 50       		.byte	0x50
 3565 090a 05       		.uleb128 0x5
 3566 090b 03       		.byte	0x3
 3567 090c 78000000 		.4byte	.LC10
ARM GAS  C:\Users\ADMINI~1\AppData\Local\Temp\ccpQE0Fa.s 			page 75


 3568 0910 00       		.byte	0
 3569 0911 10       		.uleb128 0x10
 3570 0912 E6000000 		.4byte	.LVL230
 3571 0916 6D050000 		.4byte	0x56d
 3572 091a 28090000 		.4byte	0x928
 3573 091e 0D       		.uleb128 0xd
 3574 091f 01       		.uleb128 0x1
 3575 0920 50       		.byte	0x50
 3576 0921 05       		.uleb128 0x5
 3577 0922 03       		.byte	0x3
 3578 0923 00000000 		.4byte	DisplayBuffer
 3579 0927 00       		.byte	0
 3580 0928 0E       		.uleb128 0xe
 3581 0929 EA000000 		.4byte	.LVL231
 3582 092d B3110000 		.4byte	0x11b3
 3583 0931 10       		.uleb128 0x10
 3584 0932 F4000000 		.4byte	.LVL232
 3585 0936 BE110000 		.4byte	0x11be
 3586 093a 48090000 		.4byte	0x948
 3587 093e 0D       		.uleb128 0xd
 3588 093f 01       		.uleb128 0x1
 3589 0940 50       		.byte	0x50
 3590 0941 05       		.uleb128 0x5
 3591 0942 03       		.byte	0x3
 3592 0943 00000000 		.4byte	DisplayBuffer
 3593 0947 00       		.byte	0
 3594 0948 0E       		.uleb128 0xe
 3595 0949 F8000000 		.4byte	.LVL233
 3596 094d B3110000 		.4byte	0x11b3
 3597 0951 10       		.uleb128 0x10
 3598 0952 02010000 		.4byte	.LVL234
 3599 0956 BE110000 		.4byte	0x11be
 3600 095a 68090000 		.4byte	0x968
 3601 095e 0D       		.uleb128 0xd
 3602 095f 01       		.uleb128 0x1
 3603 0960 50       		.byte	0x50
 3604 0961 05       		.uleb128 0x5
 3605 0962 03       		.byte	0x3
 3606 0963 84000000 		.4byte	.LC11
 3607 0967 00       		.byte	0
 3608 0968 10       		.uleb128 0x10
 3609 0969 0C010000 		.4byte	.LVL235
 3610 096d 6D050000 		.4byte	0x56d
 3611 0971 7F090000 		.4byte	0x97f
 3612 0975 0D       		.uleb128 0xd
 3613 0976 01       		.uleb128 0x1
 3614 0977 50       		.byte	0x50
 3615 0978 05       		.uleb128 0x5
 3616 0979 03       		.byte	0x3
 3617 097a 00000000 		.4byte	DisplayBuffer
 3618 097e 00       		.byte	0
 3619 097f 0E       		.uleb128 0xe
 3620 0980 10010000 		.4byte	.LVL236
 3621 0984 B3110000 		.4byte	0x11b3
 3622 0988 10       		.uleb128 0x10
 3623 0989 1A010000 		.4byte	.LVL237
 3624 098d BE110000 		.4byte	0x11be
ARM GAS  C:\Users\ADMINI~1\AppData\Local\Temp\ccpQE0Fa.s 			page 76


 3625 0991 9F090000 		.4byte	0x99f
 3626 0995 0D       		.uleb128 0xd
 3627 0996 01       		.uleb128 0x1
 3628 0997 50       		.byte	0x50
 3629 0998 05       		.uleb128 0x5
 3630 0999 03       		.byte	0x3
 3631 099a 00000000 		.4byte	DisplayBuffer
 3632 099e 00       		.byte	0
 3633 099f 0E       		.uleb128 0xe
 3634 09a0 1E010000 		.4byte	.LVL238
 3635 09a4 B3110000 		.4byte	0x11b3
 3636 09a8 10       		.uleb128 0x10
 3637 09a9 28010000 		.4byte	.LVL239
 3638 09ad BE110000 		.4byte	0x11be
 3639 09b1 BF090000 		.4byte	0x9bf
 3640 09b5 0D       		.uleb128 0xd
 3641 09b6 01       		.uleb128 0x1
 3642 09b7 50       		.byte	0x50
 3643 09b8 05       		.uleb128 0x5
 3644 09b9 03       		.byte	0x3
 3645 09ba 8C000000 		.4byte	.LC12
 3646 09be 00       		.byte	0
 3647 09bf 10       		.uleb128 0x10
 3648 09c0 32010000 		.4byte	.LVL240
 3649 09c4 6D050000 		.4byte	0x56d
 3650 09c8 D6090000 		.4byte	0x9d6
 3651 09cc 0D       		.uleb128 0xd
 3652 09cd 01       		.uleb128 0x1
 3653 09ce 50       		.byte	0x50
 3654 09cf 05       		.uleb128 0x5
 3655 09d0 03       		.byte	0x3
 3656 09d1 00000000 		.4byte	DisplayBuffer
 3657 09d5 00       		.byte	0
 3658 09d6 0E       		.uleb128 0xe
 3659 09d7 36010000 		.4byte	.LVL241
 3660 09db B3110000 		.4byte	0x11b3
 3661 09df 10       		.uleb128 0x10
 3662 09e0 40010000 		.4byte	.LVL242
 3663 09e4 BE110000 		.4byte	0x11be
 3664 09e8 F6090000 		.4byte	0x9f6
 3665 09ec 0D       		.uleb128 0xd
 3666 09ed 01       		.uleb128 0x1
 3667 09ee 50       		.byte	0x50
 3668 09ef 05       		.uleb128 0x5
 3669 09f0 03       		.byte	0x3
 3670 09f1 00000000 		.4byte	DisplayBuffer
 3671 09f5 00       		.byte	0
 3672 09f6 0E       		.uleb128 0xe
 3673 09f7 44010000 		.4byte	.LVL243
 3674 09fb B3110000 		.4byte	0x11b3
 3675 09ff 10       		.uleb128 0x10
 3676 0a00 4E010000 		.4byte	.LVL244
 3677 0a04 BE110000 		.4byte	0x11be
 3678 0a08 160A0000 		.4byte	0xa16
 3679 0a0c 0D       		.uleb128 0xd
 3680 0a0d 01       		.uleb128 0x1
 3681 0a0e 50       		.byte	0x50
ARM GAS  C:\Users\ADMINI~1\AppData\Local\Temp\ccpQE0Fa.s 			page 77


 3682 0a0f 05       		.uleb128 0x5
 3683 0a10 03       		.byte	0x3
 3684 0a11 98000000 		.4byte	.LC13
 3685 0a15 00       		.byte	0
 3686 0a16 10       		.uleb128 0x10
 3687 0a17 58010000 		.4byte	.LVL245
 3688 0a1b 6D050000 		.4byte	0x56d
 3689 0a1f 2D0A0000 		.4byte	0xa2d
 3690 0a23 0D       		.uleb128 0xd
 3691 0a24 01       		.uleb128 0x1
 3692 0a25 50       		.byte	0x50
 3693 0a26 05       		.uleb128 0x5
 3694 0a27 03       		.byte	0x3
 3695 0a28 00000000 		.4byte	DisplayBuffer
 3696 0a2c 00       		.byte	0
 3697 0a2d 0E       		.uleb128 0xe
 3698 0a2e 5C010000 		.4byte	.LVL246
 3699 0a32 B3110000 		.4byte	0x11b3
 3700 0a36 10       		.uleb128 0x10
 3701 0a37 66010000 		.4byte	.LVL247
 3702 0a3b BE110000 		.4byte	0x11be
 3703 0a3f 4D0A0000 		.4byte	0xa4d
 3704 0a43 0D       		.uleb128 0xd
 3705 0a44 01       		.uleb128 0x1
 3706 0a45 50       		.byte	0x50
 3707 0a46 05       		.uleb128 0x5
 3708 0a47 03       		.byte	0x3
 3709 0a48 00000000 		.4byte	DisplayBuffer
 3710 0a4c 00       		.byte	0
 3711 0a4d 0E       		.uleb128 0xe
 3712 0a4e 6A010000 		.4byte	.LVL248
 3713 0a52 B3110000 		.4byte	0x11b3
 3714 0a56 10       		.uleb128 0x10
 3715 0a57 74010000 		.4byte	.LVL249
 3716 0a5b BE110000 		.4byte	0x11be
 3717 0a5f 6D0A0000 		.4byte	0xa6d
 3718 0a63 0D       		.uleb128 0xd
 3719 0a64 01       		.uleb128 0x1
 3720 0a65 50       		.byte	0x50
 3721 0a66 05       		.uleb128 0x5
 3722 0a67 03       		.byte	0x3
 3723 0a68 A0000000 		.4byte	.LC14
 3724 0a6c 00       		.byte	0
 3725 0a6d 10       		.uleb128 0x10
 3726 0a6e 84010000 		.4byte	.LVL251
 3727 0a72 6D050000 		.4byte	0x56d
 3728 0a76 840A0000 		.4byte	0xa84
 3729 0a7a 0D       		.uleb128 0xd
 3730 0a7b 01       		.uleb128 0x1
 3731 0a7c 50       		.byte	0x50
 3732 0a7d 05       		.uleb128 0x5
 3733 0a7e 03       		.byte	0x3
 3734 0a7f 00000000 		.4byte	DisplayBuffer
 3735 0a83 00       		.byte	0
 3736 0a84 0E       		.uleb128 0xe
 3737 0a85 88010000 		.4byte	.LVL252
 3738 0a89 B3110000 		.4byte	0x11b3
ARM GAS  C:\Users\ADMINI~1\AppData\Local\Temp\ccpQE0Fa.s 			page 78


 3739 0a8d 10       		.uleb128 0x10
 3740 0a8e 92010000 		.4byte	.LVL253
 3741 0a92 BE110000 		.4byte	0x11be
 3742 0a96 A40A0000 		.4byte	0xaa4
 3743 0a9a 0D       		.uleb128 0xd
 3744 0a9b 01       		.uleb128 0x1
 3745 0a9c 50       		.byte	0x50
 3746 0a9d 05       		.uleb128 0x5
 3747 0a9e 03       		.byte	0x3
 3748 0a9f 00000000 		.4byte	DisplayBuffer
 3749 0aa3 00       		.byte	0
 3750 0aa4 0E       		.uleb128 0xe
 3751 0aa5 96010000 		.4byte	.LVL254
 3752 0aa9 B3110000 		.4byte	0x11b3
 3753 0aad 10       		.uleb128 0x10
 3754 0aae A0010000 		.4byte	.LVL255
 3755 0ab2 BE110000 		.4byte	0x11be
 3756 0ab6 C40A0000 		.4byte	0xac4
 3757 0aba 0D       		.uleb128 0xd
 3758 0abb 01       		.uleb128 0x1
 3759 0abc 50       		.byte	0x50
 3760 0abd 05       		.uleb128 0x5
 3761 0abe 03       		.byte	0x3
 3762 0abf A8000000 		.4byte	.LC15
 3763 0ac3 00       		.byte	0
 3764 0ac4 10       		.uleb128 0x10
 3765 0ac5 B0010000 		.4byte	.LVL257
 3766 0ac9 6D050000 		.4byte	0x56d
 3767 0acd DB0A0000 		.4byte	0xadb
 3768 0ad1 0D       		.uleb128 0xd
 3769 0ad2 01       		.uleb128 0x1
 3770 0ad3 50       		.byte	0x50
 3771 0ad4 05       		.uleb128 0x5
 3772 0ad5 03       		.byte	0x3
 3773 0ad6 00000000 		.4byte	DisplayBuffer
 3774 0ada 00       		.byte	0
 3775 0adb 0E       		.uleb128 0xe
 3776 0adc B4010000 		.4byte	.LVL258
 3777 0ae0 B3110000 		.4byte	0x11b3
 3778 0ae4 10       		.uleb128 0x10
 3779 0ae5 BE010000 		.4byte	.LVL259
 3780 0ae9 BE110000 		.4byte	0x11be
 3781 0aed FB0A0000 		.4byte	0xafb
 3782 0af1 0D       		.uleb128 0xd
 3783 0af2 01       		.uleb128 0x1
 3784 0af3 50       		.byte	0x50
 3785 0af4 05       		.uleb128 0x5
 3786 0af5 03       		.byte	0x3
 3787 0af6 00000000 		.4byte	DisplayBuffer
 3788 0afa 00       		.byte	0
 3789 0afb 0E       		.uleb128 0xe
 3790 0afc C2010000 		.4byte	.LVL260
 3791 0b00 B3110000 		.4byte	0x11b3
 3792 0b04 10       		.uleb128 0x10
 3793 0b05 CC010000 		.4byte	.LVL261
 3794 0b09 BE110000 		.4byte	0x11be
 3795 0b0d 1B0B0000 		.4byte	0xb1b
ARM GAS  C:\Users\ADMINI~1\AppData\Local\Temp\ccpQE0Fa.s 			page 79


 3796 0b11 0D       		.uleb128 0xd
 3797 0b12 01       		.uleb128 0x1
 3798 0b13 50       		.byte	0x50
 3799 0b14 05       		.uleb128 0x5
 3800 0b15 03       		.byte	0x3
 3801 0b16 B0000000 		.4byte	.LC16
 3802 0b1a 00       		.byte	0
 3803 0b1b 10       		.uleb128 0x10
 3804 0b1c DC010000 		.4byte	.LVL263
 3805 0b20 6D050000 		.4byte	0x56d
 3806 0b24 320B0000 		.4byte	0xb32
 3807 0b28 0D       		.uleb128 0xd
 3808 0b29 01       		.uleb128 0x1
 3809 0b2a 50       		.byte	0x50
 3810 0b2b 05       		.uleb128 0x5
 3811 0b2c 03       		.byte	0x3
 3812 0b2d 00000000 		.4byte	DisplayBuffer
 3813 0b31 00       		.byte	0
 3814 0b32 0E       		.uleb128 0xe
 3815 0b33 E0010000 		.4byte	.LVL264
 3816 0b37 B3110000 		.4byte	0x11b3
 3817 0b3b 10       		.uleb128 0x10
 3818 0b3c EA010000 		.4byte	.LVL265
 3819 0b40 BE110000 		.4byte	0x11be
 3820 0b44 520B0000 		.4byte	0xb52
 3821 0b48 0D       		.uleb128 0xd
 3822 0b49 01       		.uleb128 0x1
 3823 0b4a 50       		.byte	0x50
 3824 0b4b 05       		.uleb128 0x5
 3825 0b4c 03       		.byte	0x3
 3826 0b4d 00000000 		.4byte	DisplayBuffer
 3827 0b51 00       		.byte	0
 3828 0b52 0E       		.uleb128 0xe
 3829 0b53 EE010000 		.4byte	.LVL266
 3830 0b57 B3110000 		.4byte	0x11b3
 3831 0b5b 10       		.uleb128 0x10
 3832 0b5c F8010000 		.4byte	.LVL267
 3833 0b60 BE110000 		.4byte	0x11be
 3834 0b64 720B0000 		.4byte	0xb72
 3835 0b68 0D       		.uleb128 0xd
 3836 0b69 01       		.uleb128 0x1
 3837 0b6a 50       		.byte	0x50
 3838 0b6b 05       		.uleb128 0x5
 3839 0b6c 03       		.byte	0x3
 3840 0b6d B8000000 		.4byte	.LC17
 3841 0b71 00       		.byte	0
 3842 0b72 10       		.uleb128 0x10
 3843 0b73 02020000 		.4byte	.LVL268
 3844 0b77 6D050000 		.4byte	0x56d
 3845 0b7b 890B0000 		.4byte	0xb89
 3846 0b7f 0D       		.uleb128 0xd
 3847 0b80 01       		.uleb128 0x1
 3848 0b81 50       		.byte	0x50
 3849 0b82 05       		.uleb128 0x5
 3850 0b83 03       		.byte	0x3
 3851 0b84 00000000 		.4byte	DisplayBuffer
 3852 0b88 00       		.byte	0
ARM GAS  C:\Users\ADMINI~1\AppData\Local\Temp\ccpQE0Fa.s 			page 80


 3853 0b89 0E       		.uleb128 0xe
 3854 0b8a 06020000 		.4byte	.LVL269
 3855 0b8e B3110000 		.4byte	0x11b3
 3856 0b92 10       		.uleb128 0x10
 3857 0b93 10020000 		.4byte	.LVL270
 3858 0b97 BE110000 		.4byte	0x11be
 3859 0b9b A90B0000 		.4byte	0xba9
 3860 0b9f 0D       		.uleb128 0xd
 3861 0ba0 01       		.uleb128 0x1
 3862 0ba1 50       		.byte	0x50
 3863 0ba2 05       		.uleb128 0x5
 3864 0ba3 03       		.byte	0x3
 3865 0ba4 00000000 		.4byte	DisplayBuffer
 3866 0ba8 00       		.byte	0
 3867 0ba9 0E       		.uleb128 0xe
 3868 0baa 14020000 		.4byte	.LVL271
 3869 0bae B3110000 		.4byte	0x11b3
 3870 0bb2 0C       		.uleb128 0xc
 3871 0bb3 1E020000 		.4byte	.LVL272
 3872 0bb7 BE110000 		.4byte	0x11be
 3873 0bbb 0D       		.uleb128 0xd
 3874 0bbc 01       		.uleb128 0x1
 3875 0bbd 50       		.byte	0x50
 3876 0bbe 05       		.uleb128 0x5
 3877 0bbf 03       		.byte	0x3
 3878 0bc0 C0000000 		.4byte	.LC18
 3879 0bc4 00       		.byte	0
 3880 0bc5 00       		.byte	0
 3881 0bc6 17       		.uleb128 0x17
 3882 0bc7 A0060000 		.4byte	.LASF43
 3883 0bcb 02       		.byte	0x2
 3884 0bcc E9       		.byte	0xe9
 3885 0bcd 6F000000 		.4byte	0x6f
 3886 0bd1 00000000 		.4byte	.LFB81
 3887 0bd5 EC000000 		.4byte	.LFE81-.LFB81
 3888 0bd9 01       		.uleb128 0x1
 3889 0bda 9C       		.byte	0x9c
 3890 0bdb 420D0000 		.4byte	0xd42
 3891 0bdf 18       		.uleb128 0x18
 3892 0be0 DD040000 		.4byte	.LASF44
 3893 0be4 02       		.byte	0x2
 3894 0be5 1501     		.2byte	0x115
 3895 0be7 6F000000 		.4byte	0x6f
 3896 0beb C8       		.byte	0xc8
 3897 0bec 0E       		.uleb128 0xe
 3898 0bed 0A000000 		.4byte	.LVL273
 3899 0bf1 CF110000 		.4byte	0x11cf
 3900 0bf5 10       		.uleb128 0x10
 3901 0bf6 14000000 		.4byte	.LVL274
 3902 0bfa 11050000 		.4byte	0x511
 3903 0bfe 160C0000 		.4byte	0xc16
 3904 0c02 0D       		.uleb128 0xd
 3905 0c03 01       		.uleb128 0x1
 3906 0c04 52       		.byte	0x52
 3907 0c05 01       		.uleb128 0x1
 3908 0c06 30       		.byte	0x30
 3909 0c07 0D       		.uleb128 0xd
ARM GAS  C:\Users\ADMINI~1\AppData\Local\Temp\ccpQE0Fa.s 			page 81


 3910 0c08 01       		.uleb128 0x1
 3911 0c09 51       		.byte	0x51
 3912 0c0a 01       		.uleb128 0x1
 3913 0c0b 30       		.byte	0x30
 3914 0c0c 0D       		.uleb128 0xd
 3915 0c0d 01       		.uleb128 0x1
 3916 0c0e 50       		.byte	0x50
 3917 0c0f 05       		.uleb128 0x5
 3918 0c10 03       		.byte	0x3
 3919 0c11 C4000000 		.4byte	.LC19
 3920 0c15 00       		.byte	0
 3921 0c16 10       		.uleb128 0x10
 3922 0c17 1A000000 		.4byte	.LVL275
 3923 0c1b D6110000 		.4byte	0x11d6
 3924 0c1f 2D0C0000 		.4byte	0xc2d
 3925 0c23 0D       		.uleb128 0xd
 3926 0c24 01       		.uleb128 0x1
 3927 0c25 50       		.byte	0x50
 3928 0c26 05       		.uleb128 0x5
 3929 0c27 03       		.byte	0x3
 3930 0c28 00000000 		.4byte	Timer_1_Interrupt_Handler
 3931 0c2c 00       		.byte	0
 3932 0c2d 0E       		.uleb128 0xe
 3933 0c2e 1E000000 		.4byte	.LVL276
 3934 0c32 E7110000 		.4byte	0x11e7
 3935 0c36 0E       		.uleb128 0xe
 3936 0c37 22000000 		.4byte	.LVL277
 3937 0c3b C2020000 		.4byte	0x2c2
 3938 0c3f 10       		.uleb128 0x10
 3939 0c40 2A000000 		.4byte	.LVL278
 3940 0c44 EE110000 		.4byte	0x11ee
 3941 0c48 570C0000 		.4byte	0xc57
 3942 0c4c 0D       		.uleb128 0xd
 3943 0c4d 01       		.uleb128 0x1
 3944 0c4e 51       		.byte	0x51
 3945 0c4f 01       		.uleb128 0x1
 3946 0c50 30       		.byte	0x30
 3947 0c51 0D       		.uleb128 0xd
 3948 0c52 01       		.uleb128 0x1
 3949 0c53 50       		.byte	0x50
 3950 0c54 01       		.uleb128 0x1
 3951 0c55 30       		.byte	0x30
 3952 0c56 00       		.byte	0
 3953 0c57 0E       		.uleb128 0xe
 3954 0c58 2E000000 		.4byte	.LVL279
 3955 0c5c 05120000 		.4byte	0x1205
 3956 0c60 0E       		.uleb128 0xe
 3957 0c61 36000000 		.4byte	.LVL280
 3958 0c65 11120000 		.4byte	0x1211
 3959 0c69 0E       		.uleb128 0xe
 3960 0c6a 40000000 		.4byte	.LVL281
 3961 0c6e 1C120000 		.4byte	0x121c
 3962 0c72 0E       		.uleb128 0xe
 3963 0c73 44000000 		.4byte	.LVL282
 3964 0c77 23120000 		.4byte	0x1223
 3965 0c7b 10       		.uleb128 0x10
 3966 0c7c 4A000000 		.4byte	.LVL283
ARM GAS  C:\Users\ADMINI~1\AppData\Local\Temp\ccpQE0Fa.s 			page 82


 3967 0c80 2A120000 		.4byte	0x122a
 3968 0c84 920C0000 		.4byte	0xc92
 3969 0c88 0D       		.uleb128 0xd
 3970 0c89 01       		.uleb128 0x1
 3971 0c8a 50       		.byte	0x50
 3972 0c8b 05       		.uleb128 0x5
 3973 0c8c 03       		.byte	0x3
 3974 0c8d 00000000 		.4byte	Bluetooth_RX_Interrupt_Handler
 3975 0c91 00       		.byte	0
 3976 0c92 0E       		.uleb128 0xe
 3977 0c93 52000000 		.4byte	.LVL284
 3978 0c97 3B120000 		.4byte	0x123b
 3979 0c9b 0E       		.uleb128 0xe
 3980 0c9c 56000000 		.4byte	.LVL285
 3981 0ca0 42120000 		.4byte	0x1242
 3982 0ca4 10       		.uleb128 0x10
 3983 0ca5 5C000000 		.4byte	.LVL286
 3984 0ca9 49120000 		.4byte	0x1249
 3985 0cad BB0C0000 		.4byte	0xcbb
 3986 0cb1 0D       		.uleb128 0xd
 3987 0cb2 01       		.uleb128 0x1
 3988 0cb3 50       		.byte	0x50
 3989 0cb4 05       		.uleb128 0x5
 3990 0cb5 03       		.byte	0x3
 3991 0cb6 00000000 		.4byte	JY901_RX_Interrupt_Handler
 3992 0cba 00       		.byte	0
 3993 0cbb 0E       		.uleb128 0xe
 3994 0cbc 60000000 		.4byte	.LVL287
 3995 0cc0 96040000 		.4byte	0x496
 3996 0cc4 0E       		.uleb128 0xe
 3997 0cc5 64000000 		.4byte	.LVL288
 3998 0cc9 5A120000 		.4byte	0x125a
 3999 0ccd 10       		.uleb128 0x10
 4000 0cce 6E000000 		.4byte	.LVL289
 4001 0cd2 11050000 		.4byte	0x511
 4002 0cd6 F00C0000 		.4byte	0xcf0
 4003 0cda 0D       		.uleb128 0xd
 4004 0cdb 01       		.uleb128 0x1
 4005 0cdc 52       		.byte	0x52
 4006 0cdd 02       		.uleb128 0x2
 4007 0cde 74       		.byte	0x74
 4008 0cdf 00       		.sleb128 0
 4009 0ce0 0D       		.uleb128 0xd
 4010 0ce1 01       		.uleb128 0x1
 4011 0ce2 51       		.byte	0x51
 4012 0ce3 02       		.uleb128 0x2
 4013 0ce4 74       		.byte	0x74
 4014 0ce5 00       		.sleb128 0
 4015 0ce6 0D       		.uleb128 0xd
 4016 0ce7 01       		.uleb128 0x1
 4017 0ce8 50       		.byte	0x50
 4018 0ce9 05       		.uleb128 0x5
 4019 0cea 03       		.byte	0x3
 4020 0ceb D0000000 		.4byte	.LC20
 4021 0cef 00       		.byte	0
 4022 0cf0 10       		.uleb128 0x10
 4023 0cf1 98000000 		.4byte	.LVL291
ARM GAS  C:\Users\ADMINI~1\AppData\Local\Temp\ccpQE0Fa.s 			page 83


 4024 0cf5 3F110000 		.4byte	0x113f
 4025 0cf9 050D0000 		.4byte	0xd05
 4026 0cfd 0D       		.uleb128 0xd
 4027 0cfe 01       		.uleb128 0x1
 4028 0cff 50       		.byte	0x50
 4029 0d00 03       		.uleb128 0x3
 4030 0d01 0A       		.byte	0xa
 4031 0d02 1027     		.2byte	0x2710
 4032 0d04 00       		.byte	0
 4033 0d05 10       		.uleb128 0x10
 4034 0d06 A2000000 		.4byte	.LVL292
 4035 0d0a 11050000 		.4byte	0x511
 4036 0d0e 280D0000 		.4byte	0xd28
 4037 0d12 0D       		.uleb128 0xd
 4038 0d13 01       		.uleb128 0x1
 4039 0d14 52       		.byte	0x52
 4040 0d15 02       		.uleb128 0x2
 4041 0d16 74       		.byte	0x74
 4042 0d17 00       		.sleb128 0
 4043 0d18 0D       		.uleb128 0xd
 4044 0d19 01       		.uleb128 0x1
 4045 0d1a 51       		.byte	0x51
 4046 0d1b 02       		.uleb128 0x2
 4047 0d1c 74       		.byte	0x74
 4048 0d1d 00       		.sleb128 0
 4049 0d1e 0D       		.uleb128 0xd
 4050 0d1f 01       		.uleb128 0x1
 4051 0d20 50       		.byte	0x50
 4052 0d21 05       		.uleb128 0x5
 4053 0d22 03       		.byte	0x3
 4054 0d23 DC000000 		.4byte	.LC21
 4055 0d27 00       		.byte	0
 4056 0d28 0E       		.uleb128 0xe
 4057 0d29 B0000000 		.4byte	.LVL293
 4058 0d2d 67120000 		.4byte	0x1267
 4059 0d31 0C       		.uleb128 0xc
 4060 0d32 B6000000 		.4byte	.LVL294
 4061 0d36 3F110000 		.4byte	0x113f
 4062 0d3a 0D       		.uleb128 0xd
 4063 0d3b 01       		.uleb128 0x1
 4064 0d3c 50       		.byte	0x50
 4065 0d3d 02       		.uleb128 0x2
 4066 0d3e 08       		.byte	0x8
 4067 0d3f 64       		.byte	0x64
 4068 0d40 00       		.byte	0
 4069 0d41 00       		.byte	0
 4070 0d42 19       		.uleb128 0x19
 4071 0d43 41040000 		.4byte	.LASF45
 4072 0d47 08       		.byte	0x8
 4073 0d48 9606     		.2byte	0x696
 4074 0d4a 4E0D0000 		.4byte	0xd4e
 4075 0d4e 06       		.uleb128 0x6
 4076 0d4f 7D000000 		.4byte	0x7d
 4077 0d53 1A       		.uleb128 0x1a
 4078 0d54 D2020000 		.4byte	.LASF46
 4079 0d58 03       		.byte	0x3
 4080 0d59 09       		.byte	0x9
ARM GAS  C:\Users\ADMINI~1\AppData\Local\Temp\ccpQE0Fa.s 			page 84


 4081 0d5a 640D0000 		.4byte	0xd64
 4082 0d5e 05       		.uleb128 0x5
 4083 0d5f 03       		.byte	0x3
 4084 0d60 00000000 		.4byte	BT_Throttle
 4085 0d64 06       		.uleb128 0x6
 4086 0d65 6F000000 		.4byte	0x6f
 4087 0d69 1A       		.uleb128 0x1a
 4088 0d6a 92040000 		.4byte	.LASF47
 4089 0d6e 03       		.byte	0x3
 4090 0d6f 09       		.byte	0x9
 4091 0d70 640D0000 		.4byte	0xd64
 4092 0d74 05       		.uleb128 0x5
 4093 0d75 03       		.byte	0x3
 4094 0d76 00000000 		.4byte	BT_Yaw
 4095 0d7a 1A       		.uleb128 0x1a
 4096 0d7b 09010000 		.4byte	.LASF48
 4097 0d7f 03       		.byte	0x3
 4098 0d80 09       		.byte	0x9
 4099 0d81 640D0000 		.4byte	0xd64
 4100 0d85 05       		.uleb128 0x5
 4101 0d86 03       		.byte	0x3
 4102 0d87 00000000 		.4byte	BT_Pitch
 4103 0d8b 1A       		.uleb128 0x1a
 4104 0d8c 5A030000 		.4byte	.LASF49
 4105 0d90 03       		.byte	0x3
 4106 0d91 09       		.byte	0x9
 4107 0d92 640D0000 		.4byte	0xd64
 4108 0d96 05       		.uleb128 0x5
 4109 0d97 03       		.byte	0x3
 4110 0d98 00000000 		.4byte	BT_Roll
 4111 0d9c 1A       		.uleb128 0x1a
 4112 0d9d A9010000 		.4byte	.LASF50
 4113 0da1 03       		.byte	0x3
 4114 0da2 0A       		.byte	0xa
 4115 0da3 AD0D0000 		.4byte	0xdad
 4116 0da7 05       		.uleb128 0x5
 4117 0da8 03       		.byte	0x3
 4118 0da9 00000000 		.4byte	roll_angle_offset
 4119 0dad 06       		.uleb128 0x6
 4120 0dae 25000000 		.4byte	0x25
 4121 0db2 1A       		.uleb128 0x1a
 4122 0db3 34000000 		.4byte	.LASF51
 4123 0db7 03       		.byte	0x3
 4124 0db8 0A       		.byte	0xa
 4125 0db9 AD0D0000 		.4byte	0xdad
 4126 0dbd 05       		.uleb128 0x5
 4127 0dbe 03       		.byte	0x3
 4128 0dbf 00000000 		.4byte	pitch_angle_offset
 4129 0dc3 1A       		.uleb128 0x1a
 4130 0dc4 EC010000 		.4byte	.LASF52
 4131 0dc8 03       		.byte	0x3
 4132 0dc9 0B       		.byte	0xb
 4133 0dca AD0D0000 		.4byte	0xdad
 4134 0dce 05       		.uleb128 0x5
 4135 0dcf 03       		.byte	0x3
 4136 0dd0 00000000 		.4byte	Desire_angle_pitch
 4137 0dd4 1A       		.uleb128 0x1a
ARM GAS  C:\Users\ADMINI~1\AppData\Local\Temp\ccpQE0Fa.s 			page 85


 4138 0dd5 05040000 		.4byte	.LASF53
 4139 0dd9 03       		.byte	0x3
 4140 0dda 0B       		.byte	0xb
 4141 0ddb AD0D0000 		.4byte	0xdad
 4142 0ddf 05       		.uleb128 0x5
 4143 0de0 03       		.byte	0x3
 4144 0de1 00000000 		.4byte	Desire_angle_roll
 4145 0de5 1A       		.uleb128 0x1a
 4146 0de6 80060000 		.4byte	.LASF54
 4147 0dea 03       		.byte	0x3
 4148 0deb 0B       		.byte	0xb
 4149 0dec AD0D0000 		.4byte	0xdad
 4150 0df0 05       		.uleb128 0x5
 4151 0df1 03       		.byte	0x3
 4152 0df2 00000000 		.4byte	Desire_w_yaw
 4153 0df6 1A       		.uleb128 0x1a
 4154 0df7 7D040000 		.4byte	.LASF55
 4155 0dfb 04       		.byte	0x4
 4156 0dfc 0A       		.byte	0xa
 4157 0dfd AD0D0000 		.4byte	0xdad
 4158 0e01 05       		.uleb128 0x5
 4159 0e02 03       		.byte	0x3
 4160 0e03 00000000 		.4byte	AccelX
 4161 0e07 1A       		.uleb128 0x1a
 4162 0e08 84040000 		.4byte	.LASF56
 4163 0e0c 04       		.byte	0x4
 4164 0e0d 0A       		.byte	0xa
 4165 0e0e AD0D0000 		.4byte	0xdad
 4166 0e12 05       		.uleb128 0x5
 4167 0e13 03       		.byte	0x3
 4168 0e14 00000000 		.4byte	AccelY
 4169 0e18 1A       		.uleb128 0x1a
 4170 0e19 8B040000 		.4byte	.LASF57
 4171 0e1d 04       		.byte	0x4
 4172 0e1e 0A       		.byte	0xa
 4173 0e1f AD0D0000 		.4byte	0xdad
 4174 0e23 05       		.uleb128 0x5
 4175 0e24 03       		.byte	0x3
 4176 0e25 00000000 		.4byte	AccelZ
 4177 0e29 1A       		.uleb128 0x1a
 4178 0e2a 3B060000 		.4byte	.LASF58
 4179 0e2e 04       		.byte	0x4
 4180 0e2f 0B       		.byte	0xb
 4181 0e30 AD0D0000 		.4byte	0xdad
 4182 0e34 05       		.uleb128 0x5
 4183 0e35 03       		.byte	0x3
 4184 0e36 00000000 		.4byte	OmegaX
 4185 0e3a 1A       		.uleb128 0x1a
 4186 0e3b 42060000 		.4byte	.LASF59
 4187 0e3f 04       		.byte	0x4
 4188 0e40 0B       		.byte	0xb
 4189 0e41 AD0D0000 		.4byte	0xdad
 4190 0e45 05       		.uleb128 0x5
 4191 0e46 03       		.byte	0x3
 4192 0e47 00000000 		.4byte	OmegaY
 4193 0e4b 1A       		.uleb128 0x1a
 4194 0e4c 49060000 		.4byte	.LASF60
ARM GAS  C:\Users\ADMINI~1\AppData\Local\Temp\ccpQE0Fa.s 			page 86


 4195 0e50 04       		.byte	0x4
 4196 0e51 0B       		.byte	0xb
 4197 0e52 AD0D0000 		.4byte	0xdad
 4198 0e56 05       		.uleb128 0x5
 4199 0e57 03       		.byte	0x3
 4200 0e58 00000000 		.4byte	OmegaZ
 4201 0e5c 1A       		.uleb128 0x1a
 4202 0e5d 62030000 		.4byte	.LASF61
 4203 0e61 04       		.byte	0x4
 4204 0e62 0C       		.byte	0xc
 4205 0e63 AD0D0000 		.4byte	0xdad
 4206 0e67 05       		.uleb128 0x5
 4207 0e68 03       		.byte	0x3
 4208 0e69 00000000 		.4byte	Temperature
 4209 0e6d 1A       		.uleb128 0x1a
 4210 0e6e C4000000 		.4byte	.LASF62
 4211 0e72 04       		.byte	0x4
 4212 0e73 0D       		.byte	0xd
 4213 0e74 AD0D0000 		.4byte	0xdad
 4214 0e78 05       		.uleb128 0x5
 4215 0e79 03       		.byte	0x3
 4216 0e7a 00000000 		.4byte	Roll
 4217 0e7e 1A       		.uleb128 0x1a
 4218 0e7f 83010000 		.4byte	.LASF63
 4219 0e83 04       		.byte	0x4
 4220 0e84 0D       		.byte	0xd
 4221 0e85 AD0D0000 		.4byte	0xdad
 4222 0e89 05       		.uleb128 0x5
 4223 0e8a 03       		.byte	0x3
 4224 0e8b 00000000 		.4byte	Pitch
 4225 0e8f 1B       		.uleb128 0x1b
 4226 0e90 59617700 		.ascii	"Yaw\000"
 4227 0e94 04       		.byte	0x4
 4228 0e95 0D       		.byte	0xd
 4229 0e96 AD0D0000 		.4byte	0xdad
 4230 0e9a 05       		.uleb128 0x5
 4231 0e9b 03       		.byte	0x3
 4232 0e9c 00000000 		.4byte	Yaw
 4233 0ea0 1A       		.uleb128 0x1a
 4234 0ea1 BB010000 		.4byte	.LASF64
 4235 0ea5 04       		.byte	0x4
 4236 0ea6 14       		.byte	0x14
 4237 0ea7 640D0000 		.4byte	0xd64
 4238 0eab 05       		.uleb128 0x5
 4239 0eac 03       		.byte	0x3
 4240 0ead 00000000 		.4byte	MagX
 4241 0eb1 1A       		.uleb128 0x1a
 4242 0eb2 C0010000 		.4byte	.LASF65
 4243 0eb6 04       		.byte	0x4
 4244 0eb7 14       		.byte	0x14
 4245 0eb8 640D0000 		.4byte	0xd64
 4246 0ebc 05       		.uleb128 0x5
 4247 0ebd 03       		.byte	0x3
 4248 0ebe 00000000 		.4byte	MagY
 4249 0ec2 1A       		.uleb128 0x1a
 4250 0ec3 2F000000 		.4byte	.LASF66
 4251 0ec7 04       		.byte	0x4
ARM GAS  C:\Users\ADMINI~1\AppData\Local\Temp\ccpQE0Fa.s 			page 87


 4252 0ec8 14       		.byte	0x14
 4253 0ec9 640D0000 		.4byte	0xd64
 4254 0ecd 05       		.uleb128 0x5
 4255 0ece 03       		.byte	0x3
 4256 0ecf 00000000 		.4byte	MagZ
 4257 0ed3 1A       		.uleb128 0x1a
 4258 0ed4 7E020000 		.4byte	.LASF67
 4259 0ed8 04       		.byte	0x4
 4260 0ed9 15       		.byte	0x15
 4261 0eda 640D0000 		.4byte	0xd64
 4262 0ede 05       		.uleb128 0x5
 4263 0edf 03       		.byte	0x3
 4264 0ee0 00000000 		.4byte	Pressure
 4265 0ee4 1A       		.uleb128 0x1a
 4266 0ee5 37010000 		.4byte	.LASF68
 4267 0ee9 04       		.byte	0x4
 4268 0eea 15       		.byte	0x15
 4269 0eeb 640D0000 		.4byte	0xd64
 4270 0eef 05       		.uleb128 0x5
 4271 0ef0 03       		.byte	0x3
 4272 0ef1 00000000 		.4byte	Height
 4273 0ef5 1B       		.uleb128 0x1b
 4274 0ef6 6900     		.ascii	"i\000"
 4275 0ef8 04       		.byte	0x4
 4276 0ef9 16       		.byte	0x16
 4277 0efa 6F000000 		.4byte	0x6f
 4278 0efe 05       		.uleb128 0x5
 4279 0eff 03       		.byte	0x3
 4280 0f00 00000000 		.4byte	i
 4281 0f04 1B       		.uleb128 0x1b
 4282 0f05 73756D00 		.ascii	"sum\000"
 4283 0f09 04       		.byte	0x4
 4284 0f0a 16       		.byte	0x16
 4285 0f0b 6F000000 		.4byte	0x6f
 4286 0f0f 05       		.uleb128 0x5
 4287 0f10 03       		.byte	0x3
 4288 0f11 00000000 		.4byte	sum
 4289 0f15 1A       		.uleb128 0x1a
 4290 0f16 50020000 		.4byte	.LASF69
 4291 0f1a 02       		.byte	0x2
 4292 0f1b 2D       		.byte	0x2d
 4293 0f1c 640D0000 		.4byte	0xd64
 4294 0f20 05       		.uleb128 0x5
 4295 0f21 03       		.byte	0x3
 4296 0f22 00000000 		.4byte	Motor_v_1
 4297 0f26 1A       		.uleb128 0x1a
 4298 0f27 5A020000 		.4byte	.LASF70
 4299 0f2b 02       		.byte	0x2
 4300 0f2c 2D       		.byte	0x2d
 4301 0f2d 640D0000 		.4byte	0xd64
 4302 0f31 05       		.uleb128 0x5
 4303 0f32 03       		.byte	0x3
 4304 0f33 00000000 		.4byte	Motor_v_2
 4305 0f37 1A       		.uleb128 0x1a
 4306 0f38 64020000 		.4byte	.LASF71
 4307 0f3c 02       		.byte	0x2
 4308 0f3d 2D       		.byte	0x2d
ARM GAS  C:\Users\ADMINI~1\AppData\Local\Temp\ccpQE0Fa.s 			page 88


 4309 0f3e 640D0000 		.4byte	0xd64
 4310 0f42 05       		.uleb128 0x5
 4311 0f43 03       		.byte	0x3
 4312 0f44 00000000 		.4byte	Motor_v_3
 4313 0f48 1A       		.uleb128 0x1a
 4314 0f49 6E020000 		.4byte	.LASF72
 4315 0f4d 02       		.byte	0x2
 4316 0f4e 2D       		.byte	0x2d
 4317 0f4f 640D0000 		.4byte	0xd64
 4318 0f53 05       		.uleb128 0x5
 4319 0f54 03       		.byte	0x3
 4320 0f55 00000000 		.4byte	Motor_v_4
 4321 0f59 1A       		.uleb128 0x1a
 4322 0f5a 6E030000 		.4byte	.LASF73
 4323 0f5e 02       		.byte	0x2
 4324 0f5f 2E       		.byte	0x2e
 4325 0f60 6F000000 		.4byte	0x6f
 4326 0f64 05       		.uleb128 0x5
 4327 0f65 03       		.byte	0x3
 4328 0f66 00000000 		.4byte	last_Motor_v_1
 4329 0f6a 1A       		.uleb128 0x1a
 4330 0f6b 7D030000 		.4byte	.LASF74
 4331 0f6f 02       		.byte	0x2
 4332 0f70 2E       		.byte	0x2e
 4333 0f71 6F000000 		.4byte	0x6f
 4334 0f75 05       		.uleb128 0x5
 4335 0f76 03       		.byte	0x3
 4336 0f77 00000000 		.4byte	last_Motor_v_2
 4337 0f7b 1A       		.uleb128 0x1a
 4338 0f7c 8C030000 		.4byte	.LASF75
 4339 0f80 02       		.byte	0x2
 4340 0f81 2E       		.byte	0x2e
 4341 0f82 6F000000 		.4byte	0x6f
 4342 0f86 05       		.uleb128 0x5
 4343 0f87 03       		.byte	0x3
 4344 0f88 00000000 		.4byte	last_Motor_v_3
 4345 0f8c 1A       		.uleb128 0x1a
 4346 0f8d 9B030000 		.4byte	.LASF76
 4347 0f91 02       		.byte	0x2
 4348 0f92 2E       		.byte	0x2e
 4349 0f93 6F000000 		.4byte	0x6f
 4350 0f97 05       		.uleb128 0x5
 4351 0f98 03       		.byte	0x3
 4352 0f99 00000000 		.4byte	last_Motor_v_4
 4353 0f9d 1C       		.uleb128 0x1c
 4354 0f9e 88000000 		.4byte	0x88
 4355 0fa2 AD0F0000 		.4byte	0xfad
 4356 0fa6 1D       		.uleb128 0x1d
 4357 0fa7 EA000000 		.4byte	0xea
 4358 0fab 3F       		.byte	0x3f
 4359 0fac 00       		.byte	0
 4360 0fad 1A       		.uleb128 0x1a
 4361 0fae 1B050000 		.4byte	.LASF77
 4362 0fb2 02       		.byte	0x2
 4363 0fb3 45       		.byte	0x45
 4364 0fb4 9D0F0000 		.4byte	0xf9d
 4365 0fb8 05       		.uleb128 0x5
ARM GAS  C:\Users\ADMINI~1\AppData\Local\Temp\ccpQE0Fa.s 			page 89


 4366 0fb9 03       		.byte	0x3
 4367 0fba 00000000 		.4byte	BTRxBuf
 4368 0fbe 1A       		.uleb128 0x1a
 4369 0fbf 2D030000 		.4byte	.LASF78
 4370 0fc3 02       		.byte	0x2
 4371 0fc4 46       		.byte	0x46
 4372 0fc5 88000000 		.4byte	0x88
 4373 0fc9 05       		.uleb128 0x5
 4374 0fca 03       		.byte	0x3
 4375 0fcb 00000000 		.4byte	BTRxBufLen
 4376 0fcf 1B       		.uleb128 0x1b
 4377 0fd0 746D7000 		.ascii	"tmp\000"
 4378 0fd4 02       		.byte	0x2
 4379 0fd5 47       		.byte	0x47
 4380 0fd6 88000000 		.4byte	0x88
 4381 0fda 05       		.uleb128 0x5
 4382 0fdb 03       		.byte	0x3
 4383 0fdc 00000000 		.4byte	tmp
 4384 0fe0 1A       		.uleb128 0x1a
 4385 0fe1 63040000 		.4byte	.LASF79
 4386 0fe5 02       		.byte	0x2
 4387 0fe6 48       		.byte	0x48
 4388 0fe7 6F000000 		.4byte	0x6f
 4389 0feb 05       		.uleb128 0x5
 4390 0fec 03       		.byte	0x3
 4391 0fed 00000000 		.4byte	flag
 4392 0ff1 1A       		.uleb128 0x1a
 4393 0ff2 DF000000 		.4byte	.LASF80
 4394 0ff6 02       		.byte	0x2
 4395 0ff7 61       		.byte	0x61
 4396 0ff8 9D0F0000 		.4byte	0xf9d
 4397 0ffc 05       		.uleb128 0x5
 4398 0ffd 03       		.byte	0x3
 4399 0ffe 00000000 		.4byte	JY901RxBuf
 4400 1002 1A       		.uleb128 0x1a
 4401 1003 34020000 		.4byte	.LASF81
 4402 1007 02       		.byte	0x2
 4403 1008 62       		.byte	0x62
 4404 1009 88000000 		.4byte	0x88
 4405 100d 05       		.uleb128 0x5
 4406 100e 03       		.byte	0x3
 4407 100f 00000000 		.4byte	JY901RxBufLen
 4408 1013 1A       		.uleb128 0x1a
 4409 1014 1A000000 		.4byte	.LASF82
 4410 1018 02       		.byte	0x2
 4411 1019 63       		.byte	0x63
 4412 101a 88000000 		.4byte	0x88
 4413 101e 05       		.uleb128 0x5
 4414 101f 03       		.byte	0x3
 4415 1020 00000000 		.4byte	tmp2
 4416 1024 1A       		.uleb128 0x1a
 4417 1025 52030000 		.4byte	.LASF83
 4418 1029 02       		.byte	0x2
 4419 102a 64       		.byte	0x64
 4420 102b 6F000000 		.4byte	0x6f
 4421 102f 05       		.uleb128 0x5
 4422 1030 03       		.byte	0x3
ARM GAS  C:\Users\ADMINI~1\AppData\Local\Temp\ccpQE0Fa.s 			page 90


 4423 1031 00000000 		.4byte	flag_55
 4424 1035 1A       		.uleb128 0x1a
 4425 1036 A0010000 		.4byte	.LASF84
 4426 103a 02       		.byte	0x2
 4427 103b 65       		.byte	0x65
 4428 103c 6F000000 		.4byte	0x6f
 4429 1040 05       		.uleb128 0x5
 4430 1041 03       		.byte	0x3
 4431 1042 00000000 		.4byte	flag_rec
 4432 1046 1A       		.uleb128 0x1a
 4433 1047 AF020000 		.4byte	.LASF85
 4434 104b 02       		.byte	0x2
 4435 104c 66       		.byte	0x66
 4436 104d 6F000000 		.4byte	0x6f
 4437 1051 05       		.uleb128 0x5
 4438 1052 03       		.byte	0x3
 4439 1053 00000000 		.4byte	decode_success
 4440 1057 1C       		.uleb128 0x1c
 4441 1058 BF000000 		.4byte	0xbf
 4442 105c 67100000 		.4byte	0x1067
 4443 1060 1D       		.uleb128 0x1d
 4444 1061 EA000000 		.4byte	0xea
 4445 1065 0F       		.byte	0xf
 4446 1066 00       		.byte	0
 4447 1067 1A       		.uleb128 0x1a
 4448 1068 89010000 		.4byte	.LASF86
 4449 106c 02       		.byte	0x2
 4450 106d 69       		.byte	0x69
 4451 106e 57100000 		.4byte	0x1057
 4452 1072 05       		.uleb128 0x5
 4453 1073 03       		.byte	0x3
 4454 1074 00000000 		.4byte	LCDBuffer
 4455 1078 1A       		.uleb128 0x1a
 4456 1079 99040000 		.4byte	.LASF87
 4457 107d 02       		.byte	0x2
 4458 107e 6A       		.byte	0x6a
 4459 107f 6F000000 		.4byte	0x6f
 4460 1083 05       		.uleb128 0x5
 4461 1084 03       		.byte	0x3
 4462 1085 00000000 		.4byte	float2int_tmp
 4463 1089 1A       		.uleb128 0x1a
 4464 108a B3000000 		.4byte	.LASF37
 4465 108e 02       		.byte	0x2
 4466 108f 6B       		.byte	0x6b
 4467 1090 BF000000 		.4byte	0xbf
 4468 1094 05       		.uleb128 0x5
 4469 1095 03       		.byte	0x3
 4470 1096 00000000 		.4byte	symbol
 4471 109a 1A       		.uleb128 0x1a
 4472 109b 87020000 		.4byte	.LASF88
 4473 109f 02       		.byte	0x2
 4474 10a0 6C       		.byte	0x6c
 4475 10a1 25000000 		.4byte	0x25
 4476 10a5 05       		.uleb128 0x5
 4477 10a6 03       		.byte	0x3
 4478 10a7 00000000 		.4byte	f_tmp
 4479 10ab 1C       		.uleb128 0x1c
ARM GAS  C:\Users\ADMINI~1\AppData\Local\Temp\ccpQE0Fa.s 			page 91


 4480 10ac BF000000 		.4byte	0xbf
 4481 10b0 BB100000 		.4byte	0x10bb
 4482 10b4 1D       		.uleb128 0x1d
 4483 10b5 EA000000 		.4byte	0xea
 4484 10b9 7F       		.byte	0x7f
 4485 10ba 00       		.byte	0
 4486 10bb 1A       		.uleb128 0x1a
 4487 10bc FF010000 		.4byte	.LASF89
 4488 10c0 02       		.byte	0x2
 4489 10c1 9A       		.byte	0x9a
 4490 10c2 AB100000 		.4byte	0x10ab
 4491 10c6 05       		.uleb128 0x5
 4492 10c7 03       		.byte	0x3
 4493 10c8 00000000 		.4byte	DisplayBuffer
 4494 10cc 1C       		.uleb128 0x1c
 4495 10cd BF000000 		.4byte	0xbf
 4496 10d1 DC100000 		.4byte	0x10dc
 4497 10d5 1D       		.uleb128 0x1d
 4498 10d6 EA000000 		.4byte	0xea
 4499 10da 09       		.byte	0x9
 4500 10db 00       		.byte	0
 4501 10dc 1A       		.uleb128 0x1a
 4502 10dd 28000000 		.4byte	.LASF90
 4503 10e1 02       		.byte	0x2
 4504 10e2 E8       		.byte	0xe8
 4505 10e3 CC100000 		.4byte	0x10cc
 4506 10e7 05       		.uleb128 0x5
 4507 10e8 03       		.byte	0x3
 4508 10e9 00000000 		.4byte	tmpbuf
 4509 10ed 1E       		.uleb128 0x1e
 4510 10ee 72000000 		.4byte	.LASF91
 4511 10f2 09       		.byte	0x9
 4512 10f3 C7       		.byte	0xc7
 4513 10f4 FE100000 		.4byte	0x10fe
 4514 10f8 1F       		.uleb128 0x1f
 4515 10f9 94000000 		.4byte	0x94
 4516 10fd 00       		.byte	0
 4517 10fe 1E       		.uleb128 0x1e
 4518 10ff 86000000 		.4byte	.LASF92
 4519 1103 09       		.byte	0x9
 4520 1104 CA       		.byte	0xca
 4521 1105 0F110000 		.4byte	0x110f
 4522 1109 1F       		.uleb128 0x1f
 4523 110a 94000000 		.4byte	0x94
 4524 110e 00       		.byte	0
 4525 110f 1E       		.uleb128 0x1e
 4526 1110 B2060000 		.4byte	.LASF93
 4527 1114 0A       		.byte	0xa
 4528 1115 C7       		.byte	0xc7
 4529 1116 20110000 		.4byte	0x1120
 4530 111a 1F       		.uleb128 0x1f
 4531 111b 94000000 		.4byte	0x94
 4532 111f 00       		.byte	0
 4533 1120 1E       		.uleb128 0x1e
 4534 1121 C6060000 		.4byte	.LASF94
 4535 1125 0A       		.byte	0xa
 4536 1126 CA       		.byte	0xca
ARM GAS  C:\Users\ADMINI~1\AppData\Local\Temp\ccpQE0Fa.s 			page 92


 4537 1127 31110000 		.4byte	0x1131
 4538 112b 1F       		.uleb128 0x1f
 4539 112c 94000000 		.4byte	0x94
 4540 1130 00       		.byte	0
 4541 1131 20       		.uleb128 0x20
 4542 1132 A7000000 		.4byte	.LASF95
 4543 1136 09       		.byte	0x9
 4544 1137 92       		.byte	0x92
 4545 1138 20       		.uleb128 0x20
 4546 1139 EF030000 		.4byte	.LASF96
 4547 113d 0A       		.byte	0xa
 4548 113e 92       		.byte	0x92
 4549 113f 1E       		.uleb128 0x1e
 4550 1140 00000000 		.4byte	.LASF97
 4551 1144 0B       		.byte	0xb
 4552 1145 76       		.byte	0x76
 4553 1146 50110000 		.4byte	0x1150
 4554 114a 1F       		.uleb128 0x1f
 4555 114b A0000000 		.4byte	0xa0
 4556 114f 00       		.byte	0
 4557 1150 21       		.uleb128 0x21
 4558 1151 0E060000 		.4byte	.LASF98
 4559 1155 0C       		.byte	0xc
 4560 1156 6F       		.byte	0x6f
 4561 1157 88000000 		.4byte	0x88
 4562 115b 21       		.uleb128 0x21
 4563 115c 50060000 		.4byte	.LASF99
 4564 1160 0D       		.byte	0xd
 4565 1161 6F       		.byte	0x6f
 4566 1162 88000000 		.4byte	0x88
 4567 1166 1E       		.uleb128 0x1e
 4568 1167 CE030000 		.4byte	.LASF100
 4569 116b 0E       		.byte	0xe
 4570 116c 3D       		.byte	0x3d
 4571 116d 7C110000 		.4byte	0x117c
 4572 1171 1F       		.uleb128 0x1f
 4573 1172 88000000 		.4byte	0x88
 4574 1176 1F       		.uleb128 0x1f
 4575 1177 88000000 		.4byte	0x88
 4576 117b 00       		.byte	0
 4577 117c 1E       		.uleb128 0x1e
 4578 117d 20040000 		.4byte	.LASF101
 4579 1181 0E       		.byte	0xe
 4580 1182 3C       		.byte	0x3c
 4581 1183 8D110000 		.4byte	0x118d
 4582 1187 1F       		.uleb128 0x1f
 4583 1188 8D110000 		.4byte	0x118d
 4584 118c 00       		.byte	0
 4585 118d 07       		.uleb128 0x7
 4586 118e 04       		.byte	0x4
 4587 118f 93110000 		.4byte	0x1193
 4588 1193 09       		.uleb128 0x9
 4589 1194 B3000000 		.4byte	0xb3
 4590 1198 22       		.uleb128 0x22
 4591 1199 B6030000 		.4byte	.LASF121
 4592 119d 15       		.byte	0x15
 4593 119e DE       		.byte	0xde
ARM GAS  C:\Users\ADMINI~1\AppData\Local\Temp\ccpQE0Fa.s 			page 93


 4594 119f 6F000000 		.4byte	0x6f
 4595 11a3 B3110000 		.4byte	0x11b3
 4596 11a7 1F       		.uleb128 0x1f
 4597 11a8 F1000000 		.4byte	0xf1
 4598 11ac 1F       		.uleb128 0x1f
 4599 11ad F7000000 		.4byte	0xf7
 4600 11b1 23       		.uleb128 0x23
 4601 11b2 00       		.byte	0
 4602 11b3 21       		.uleb128 0x21
 4603 11b4 44010000 		.4byte	.LASF102
 4604 11b8 0F       		.byte	0xf
 4605 11b9 28       		.byte	0x28
 4606 11ba 88000000 		.4byte	0x88
 4607 11be 1E       		.uleb128 0x1e
 4608 11bf 8D020000 		.4byte	.LASF103
 4609 11c3 0F       		.byte	0xf
 4610 11c4 24       		.byte	0x24
 4611 11c5 CF110000 		.4byte	0x11cf
 4612 11c9 1F       		.uleb128 0x1f
 4613 11ca 8D110000 		.4byte	0x118d
 4614 11ce 00       		.byte	0
 4615 11cf 20       		.uleb128 0x20
 4616 11d0 A7040000 		.4byte	.LASF104
 4617 11d4 0E       		.byte	0xe
 4618 11d5 38       		.byte	0x38
 4619 11d6 1E       		.uleb128 0x1e
 4620 11d7 BE020000 		.4byte	.LASF105
 4621 11db 10       		.byte	0x10
 4622 11dc 18       		.byte	0x18
 4623 11dd E7110000 		.4byte	0x11e7
 4624 11e1 1F       		.uleb128 0x1f
 4625 11e2 D7000000 		.4byte	0xd7
 4626 11e6 00       		.byte	0
 4627 11e7 20       		.uleb128 0x20
 4628 11e8 66060000 		.4byte	.LASF106
 4629 11ec 11       		.byte	0x11
 4630 11ed 5A       		.byte	0x5a
 4631 11ee 24       		.uleb128 0x24
 4632 11ef BE030000 		.4byte	.LASF107
 4633 11f3 12       		.byte	0x12
 4634 11f4 2A01     		.2byte	0x12a
 4635 11f6 05120000 		.4byte	0x1205
 4636 11fa 1F       		.uleb128 0x1f
 4637 11fb 88000000 		.4byte	0x88
 4638 11ff 1F       		.uleb128 0x1f
 4639 1200 88000000 		.4byte	0x88
 4640 1204 00       		.byte	0
 4641 1205 25       		.uleb128 0x25
 4642 1206 D1010000 		.4byte	.LASF108
 4643 120a 12       		.byte	0x12
 4644 120b 2D01     		.2byte	0x12d
 4645 120d 88000000 		.4byte	0x88
 4646 1211 21       		.uleb128 0x21
 4647 1212 70010000 		.4byte	.LASF109
 4648 1216 0F       		.byte	0xf
 4649 1217 22       		.byte	0x22
 4650 1218 88000000 		.4byte	0x88
ARM GAS  C:\Users\ADMINI~1\AppData\Local\Temp\ccpQE0Fa.s 			page 94


 4651 121c 20       		.uleb128 0x20
 4652 121d FD020000 		.4byte	.LASF110
 4653 1221 0C       		.byte	0xc
 4654 1222 54       		.byte	0x54
 4655 1223 20       		.uleb128 0x20
 4656 1224 19030000 		.4byte	.LASF111
 4657 1228 0C       		.byte	0xc
 4658 1229 59       		.byte	0x59
 4659 122a 1E       		.uleb128 0x1e
 4660 122b EA000000 		.4byte	.LASF112
 4661 122f 13       		.byte	0x13
 4662 1230 18       		.byte	0x18
 4663 1231 3B120000 		.4byte	0x123b
 4664 1235 1F       		.uleb128 0x1f
 4665 1236 D7000000 		.4byte	0xd7
 4666 123a 00       		.byte	0
 4667 123b 20       		.uleb128 0x20
 4668 123c 30040000 		.4byte	.LASF113
 4669 1240 0D       		.byte	0xd
 4670 1241 54       		.byte	0x54
 4671 1242 20       		.uleb128 0x20
 4672 1243 F9000000 		.4byte	.LASF114
 4673 1247 0D       		.byte	0xd
 4674 1248 59       		.byte	0x59
 4675 1249 1E       		.uleb128 0x1e
 4676 124a CC040000 		.4byte	.LASF115
 4677 124e 14       		.byte	0x14
 4678 124f 18       		.byte	0x18
 4679 1250 5A120000 		.4byte	0x125a
 4680 1254 1F       		.uleb128 0x1f
 4681 1255 D7000000 		.4byte	0xd7
 4682 1259 00       		.byte	0
 4683 125a 26       		.uleb128 0x26
 4684 125b E6040000 		.4byte	.LASF122
 4685 125f 16       		.byte	0x16
 4686 1260 07       		.byte	0x7
 4687 1261 67120000 		.4byte	0x1267
 4688 1265 23       		.uleb128 0x23
 4689 1266 00       		.byte	0
 4690 1267 27       		.uleb128 0x27
 4691 1268 93010000 		.4byte	.LASF123
 4692 126c 16       		.byte	0x16
 4693 126d 06       		.byte	0x6
 4694 126e 23       		.uleb128 0x23
 4695 126f 00       		.byte	0
 4696 1270 00       		.byte	0
 4697              		.section	.debug_abbrev,"",%progbits
 4698              	.Ldebug_abbrev0:
 4699 0000 01       		.uleb128 0x1
 4700 0001 11       		.uleb128 0x11
 4701 0002 01       		.byte	0x1
 4702 0003 25       		.uleb128 0x25
 4703 0004 0E       		.uleb128 0xe
 4704 0005 13       		.uleb128 0x13
 4705 0006 0B       		.uleb128 0xb
 4706 0007 03       		.uleb128 0x3
 4707 0008 0E       		.uleb128 0xe
ARM GAS  C:\Users\ADMINI~1\AppData\Local\Temp\ccpQE0Fa.s 			page 95


 4708 0009 1B       		.uleb128 0x1b
 4709 000a 0E       		.uleb128 0xe
 4710 000b 55       		.uleb128 0x55
 4711 000c 17       		.uleb128 0x17
 4712 000d 11       		.uleb128 0x11
 4713 000e 01       		.uleb128 0x1
 4714 000f 10       		.uleb128 0x10
 4715 0010 17       		.uleb128 0x17
 4716 0011 00       		.byte	0
 4717 0012 00       		.byte	0
 4718 0013 02       		.uleb128 0x2
 4719 0014 24       		.uleb128 0x24
 4720 0015 00       		.byte	0
 4721 0016 0B       		.uleb128 0xb
 4722 0017 0B       		.uleb128 0xb
 4723 0018 3E       		.uleb128 0x3e
 4724 0019 0B       		.uleb128 0xb
 4725 001a 03       		.uleb128 0x3
 4726 001b 0E       		.uleb128 0xe
 4727 001c 00       		.byte	0
 4728 001d 00       		.byte	0
 4729 001e 03       		.uleb128 0x3
 4730 001f 16       		.uleb128 0x16
 4731 0020 00       		.byte	0
 4732 0021 03       		.uleb128 0x3
 4733 0022 0E       		.uleb128 0xe
 4734 0023 3A       		.uleb128 0x3a
 4735 0024 0B       		.uleb128 0xb
 4736 0025 3B       		.uleb128 0x3b
 4737 0026 0B       		.uleb128 0xb
 4738 0027 49       		.uleb128 0x49
 4739 0028 13       		.uleb128 0x13
 4740 0029 00       		.byte	0
 4741 002a 00       		.byte	0
 4742 002b 04       		.uleb128 0x4
 4743 002c 24       		.uleb128 0x24
 4744 002d 00       		.byte	0
 4745 002e 0B       		.uleb128 0xb
 4746 002f 0B       		.uleb128 0xb
 4747 0030 3E       		.uleb128 0x3e
 4748 0031 0B       		.uleb128 0xb
 4749 0032 03       		.uleb128 0x3
 4750 0033 08       		.uleb128 0x8
 4751 0034 00       		.byte	0
 4752 0035 00       		.byte	0
 4753 0036 05       		.uleb128 0x5
 4754 0037 16       		.uleb128 0x16
 4755 0038 00       		.byte	0
 4756 0039 03       		.uleb128 0x3
 4757 003a 0E       		.uleb128 0xe
 4758 003b 3A       		.uleb128 0x3a
 4759 003c 0B       		.uleb128 0xb
 4760 003d 3B       		.uleb128 0x3b
 4761 003e 05       		.uleb128 0x5
 4762 003f 49       		.uleb128 0x49
 4763 0040 13       		.uleb128 0x13
 4764 0041 00       		.byte	0
ARM GAS  C:\Users\ADMINI~1\AppData\Local\Temp\ccpQE0Fa.s 			page 96


 4765 0042 00       		.byte	0
 4766 0043 06       		.uleb128 0x6
 4767 0044 35       		.uleb128 0x35
 4768 0045 00       		.byte	0
 4769 0046 49       		.uleb128 0x49
 4770 0047 13       		.uleb128 0x13
 4771 0048 00       		.byte	0
 4772 0049 00       		.byte	0
 4773 004a 07       		.uleb128 0x7
 4774 004b 0F       		.uleb128 0xf
 4775 004c 00       		.byte	0
 4776 004d 0B       		.uleb128 0xb
 4777 004e 0B       		.uleb128 0xb
 4778 004f 49       		.uleb128 0x49
 4779 0050 13       		.uleb128 0x13
 4780 0051 00       		.byte	0
 4781 0052 00       		.byte	0
 4782 0053 08       		.uleb128 0x8
 4783 0054 15       		.uleb128 0x15
 4784 0055 00       		.byte	0
 4785 0056 27       		.uleb128 0x27
 4786 0057 19       		.uleb128 0x19
 4787 0058 00       		.byte	0
 4788 0059 00       		.byte	0
 4789 005a 09       		.uleb128 0x9
 4790 005b 26       		.uleb128 0x26
 4791 005c 00       		.byte	0
 4792 005d 49       		.uleb128 0x49
 4793 005e 13       		.uleb128 0x13
 4794 005f 00       		.byte	0
 4795 0060 00       		.byte	0
 4796 0061 0A       		.uleb128 0xa
 4797 0062 2E       		.uleb128 0x2e
 4798 0063 01       		.byte	0x1
 4799 0064 3F       		.uleb128 0x3f
 4800 0065 19       		.uleb128 0x19
 4801 0066 03       		.uleb128 0x3
 4802 0067 0E       		.uleb128 0xe
 4803 0068 3A       		.uleb128 0x3a
 4804 0069 0B       		.uleb128 0xb
 4805 006a 3B       		.uleb128 0x3b
 4806 006b 0B       		.uleb128 0xb
 4807 006c 27       		.uleb128 0x27
 4808 006d 19       		.uleb128 0x19
 4809 006e 11       		.uleb128 0x11
 4810 006f 01       		.uleb128 0x1
 4811 0070 12       		.uleb128 0x12
 4812 0071 06       		.uleb128 0x6
 4813 0072 40       		.uleb128 0x40
 4814 0073 18       		.uleb128 0x18
 4815 0074 9742     		.uleb128 0x2117
 4816 0076 19       		.uleb128 0x19
 4817 0077 01       		.uleb128 0x1
 4818 0078 13       		.uleb128 0x13
 4819 0079 00       		.byte	0
 4820 007a 00       		.byte	0
 4821 007b 0B       		.uleb128 0xb
ARM GAS  C:\Users\ADMINI~1\AppData\Local\Temp\ccpQE0Fa.s 			page 97


 4822 007c 05       		.uleb128 0x5
 4823 007d 00       		.byte	0
 4824 007e 03       		.uleb128 0x3
 4825 007f 0E       		.uleb128 0xe
 4826 0080 3A       		.uleb128 0x3a
 4827 0081 0B       		.uleb128 0xb
 4828 0082 3B       		.uleb128 0x3b
 4829 0083 0B       		.uleb128 0xb
 4830 0084 49       		.uleb128 0x49
 4831 0085 13       		.uleb128 0x13
 4832 0086 02       		.uleb128 0x2
 4833 0087 17       		.uleb128 0x17
 4834 0088 00       		.byte	0
 4835 0089 00       		.byte	0
 4836 008a 0C       		.uleb128 0xc
 4837 008b 898201   		.uleb128 0x4109
 4838 008e 01       		.byte	0x1
 4839 008f 11       		.uleb128 0x11
 4840 0090 01       		.uleb128 0x1
 4841 0091 31       		.uleb128 0x31
 4842 0092 13       		.uleb128 0x13
 4843 0093 00       		.byte	0
 4844 0094 00       		.byte	0
 4845 0095 0D       		.uleb128 0xd
 4846 0096 8A8201   		.uleb128 0x410a
 4847 0099 00       		.byte	0
 4848 009a 02       		.uleb128 0x2
 4849 009b 18       		.uleb128 0x18
 4850 009c 9142     		.uleb128 0x2111
 4851 009e 18       		.uleb128 0x18
 4852 009f 00       		.byte	0
 4853 00a0 00       		.byte	0
 4854 00a1 0E       		.uleb128 0xe
 4855 00a2 898201   		.uleb128 0x4109
 4856 00a5 00       		.byte	0
 4857 00a6 11       		.uleb128 0x11
 4858 00a7 01       		.uleb128 0x1
 4859 00a8 31       		.uleb128 0x31
 4860 00a9 13       		.uleb128 0x13
 4861 00aa 00       		.byte	0
 4862 00ab 00       		.byte	0
 4863 00ac 0F       		.uleb128 0xf
 4864 00ad 05       		.uleb128 0x5
 4865 00ae 00       		.byte	0
 4866 00af 03       		.uleb128 0x3
 4867 00b0 08       		.uleb128 0x8
 4868 00b1 3A       		.uleb128 0x3a
 4869 00b2 0B       		.uleb128 0xb
 4870 00b3 3B       		.uleb128 0x3b
 4871 00b4 0B       		.uleb128 0xb
 4872 00b5 49       		.uleb128 0x49
 4873 00b6 13       		.uleb128 0x13
 4874 00b7 02       		.uleb128 0x2
 4875 00b8 17       		.uleb128 0x17
 4876 00b9 00       		.byte	0
 4877 00ba 00       		.byte	0
 4878 00bb 10       		.uleb128 0x10
ARM GAS  C:\Users\ADMINI~1\AppData\Local\Temp\ccpQE0Fa.s 			page 98


 4879 00bc 898201   		.uleb128 0x4109
 4880 00bf 01       		.byte	0x1
 4881 00c0 11       		.uleb128 0x11
 4882 00c1 01       		.uleb128 0x1
 4883 00c2 31       		.uleb128 0x31
 4884 00c3 13       		.uleb128 0x13
 4885 00c4 01       		.uleb128 0x1
 4886 00c5 13       		.uleb128 0x13
 4887 00c6 00       		.byte	0
 4888 00c7 00       		.byte	0
 4889 00c8 11       		.uleb128 0x11
 4890 00c9 2E       		.uleb128 0x2e
 4891 00ca 01       		.byte	0x1
 4892 00cb 3F       		.uleb128 0x3f
 4893 00cc 19       		.uleb128 0x19
 4894 00cd 03       		.uleb128 0x3
 4895 00ce 0E       		.uleb128 0xe
 4896 00cf 3A       		.uleb128 0x3a
 4897 00d0 0B       		.uleb128 0xb
 4898 00d1 3B       		.uleb128 0x3b
 4899 00d2 0B       		.uleb128 0xb
 4900 00d3 11       		.uleb128 0x11
 4901 00d4 01       		.uleb128 0x1
 4902 00d5 12       		.uleb128 0x12
 4903 00d6 06       		.uleb128 0x6
 4904 00d7 40       		.uleb128 0x40
 4905 00d8 18       		.uleb128 0x18
 4906 00d9 9742     		.uleb128 0x2117
 4907 00db 19       		.uleb128 0x19
 4908 00dc 01       		.uleb128 0x1
 4909 00dd 13       		.uleb128 0x13
 4910 00de 00       		.byte	0
 4911 00df 00       		.byte	0
 4912 00e0 12       		.uleb128 0x12
 4913 00e1 2E       		.uleb128 0x2e
 4914 00e2 01       		.byte	0x1
 4915 00e3 3F       		.uleb128 0x3f
 4916 00e4 19       		.uleb128 0x19
 4917 00e5 03       		.uleb128 0x3
 4918 00e6 0E       		.uleb128 0xe
 4919 00e7 3A       		.uleb128 0x3a
 4920 00e8 0B       		.uleb128 0xb
 4921 00e9 3B       		.uleb128 0x3b
 4922 00ea 0B       		.uleb128 0xb
 4923 00eb 27       		.uleb128 0x27
 4924 00ec 19       		.uleb128 0x19
 4925 00ed 11       		.uleb128 0x11
 4926 00ee 01       		.uleb128 0x1
 4927 00ef 12       		.uleb128 0x12
 4928 00f0 06       		.uleb128 0x6
 4929 00f1 40       		.uleb128 0x40
 4930 00f2 18       		.uleb128 0x18
 4931 00f3 9642     		.uleb128 0x2116
 4932 00f5 19       		.uleb128 0x19
 4933 00f6 01       		.uleb128 0x1
 4934 00f7 13       		.uleb128 0x13
 4935 00f8 00       		.byte	0
ARM GAS  C:\Users\ADMINI~1\AppData\Local\Temp\ccpQE0Fa.s 			page 99


 4936 00f9 00       		.byte	0
 4937 00fa 13       		.uleb128 0x13
 4938 00fb 34       		.uleb128 0x34
 4939 00fc 00       		.byte	0
 4940 00fd 03       		.uleb128 0x3
 4941 00fe 08       		.uleb128 0x8
 4942 00ff 3A       		.uleb128 0x3a
 4943 0100 0B       		.uleb128 0xb
 4944 0101 3B       		.uleb128 0x3b
 4945 0102 0B       		.uleb128 0xb
 4946 0103 49       		.uleb128 0x49
 4947 0104 13       		.uleb128 0x13
 4948 0105 02       		.uleb128 0x2
 4949 0106 17       		.uleb128 0x17
 4950 0107 00       		.byte	0
 4951 0108 00       		.byte	0
 4952 0109 14       		.uleb128 0x14
 4953 010a 2E       		.uleb128 0x2e
 4954 010b 00       		.byte	0
 4955 010c 3F       		.uleb128 0x3f
 4956 010d 19       		.uleb128 0x19
 4957 010e 03       		.uleb128 0x3
 4958 010f 0E       		.uleb128 0xe
 4959 0110 3A       		.uleb128 0x3a
 4960 0111 0B       		.uleb128 0xb
 4961 0112 3B       		.uleb128 0x3b
 4962 0113 0B       		.uleb128 0xb
 4963 0114 11       		.uleb128 0x11
 4964 0115 01       		.uleb128 0x1
 4965 0116 12       		.uleb128 0x12
 4966 0117 06       		.uleb128 0x6
 4967 0118 40       		.uleb128 0x40
 4968 0119 18       		.uleb128 0x18
 4969 011a 9742     		.uleb128 0x2117
 4970 011c 19       		.uleb128 0x19
 4971 011d 00       		.byte	0
 4972 011e 00       		.byte	0
 4973 011f 15       		.uleb128 0x15
 4974 0120 2E       		.uleb128 0x2e
 4975 0121 01       		.byte	0x1
 4976 0122 3F       		.uleb128 0x3f
 4977 0123 19       		.uleb128 0x19
 4978 0124 03       		.uleb128 0x3
 4979 0125 0E       		.uleb128 0xe
 4980 0126 3A       		.uleb128 0x3a
 4981 0127 0B       		.uleb128 0xb
 4982 0128 3B       		.uleb128 0x3b
 4983 0129 0B       		.uleb128 0xb
 4984 012a 27       		.uleb128 0x27
 4985 012b 19       		.uleb128 0x19
 4986 012c 49       		.uleb128 0x49
 4987 012d 13       		.uleb128 0x13
 4988 012e 11       		.uleb128 0x11
 4989 012f 01       		.uleb128 0x1
 4990 0130 12       		.uleb128 0x12
 4991 0131 06       		.uleb128 0x6
 4992 0132 40       		.uleb128 0x40
ARM GAS  C:\Users\ADMINI~1\AppData\Local\Temp\ccpQE0Fa.s 			page 100


 4993 0133 18       		.uleb128 0x18
 4994 0134 9642     		.uleb128 0x2116
 4995 0136 19       		.uleb128 0x19
 4996 0137 01       		.uleb128 0x1
 4997 0138 13       		.uleb128 0x13
 4998 0139 00       		.byte	0
 4999 013a 00       		.byte	0
 5000 013b 16       		.uleb128 0x16
 5001 013c 34       		.uleb128 0x34
 5002 013d 00       		.byte	0
 5003 013e 03       		.uleb128 0x3
 5004 013f 0E       		.uleb128 0xe
 5005 0140 3A       		.uleb128 0x3a
 5006 0141 0B       		.uleb128 0xb
 5007 0142 3B       		.uleb128 0x3b
 5008 0143 0B       		.uleb128 0xb
 5009 0144 49       		.uleb128 0x49
 5010 0145 13       		.uleb128 0x13
 5011 0146 02       		.uleb128 0x2
 5012 0147 17       		.uleb128 0x17
 5013 0148 00       		.byte	0
 5014 0149 00       		.byte	0
 5015 014a 17       		.uleb128 0x17
 5016 014b 2E       		.uleb128 0x2e
 5017 014c 01       		.byte	0x1
 5018 014d 3F       		.uleb128 0x3f
 5019 014e 19       		.uleb128 0x19
 5020 014f 03       		.uleb128 0x3
 5021 0150 0E       		.uleb128 0xe
 5022 0151 3A       		.uleb128 0x3a
 5023 0152 0B       		.uleb128 0xb
 5024 0153 3B       		.uleb128 0x3b
 5025 0154 0B       		.uleb128 0xb
 5026 0155 49       		.uleb128 0x49
 5027 0156 13       		.uleb128 0x13
 5028 0157 11       		.uleb128 0x11
 5029 0158 01       		.uleb128 0x1
 5030 0159 12       		.uleb128 0x12
 5031 015a 06       		.uleb128 0x6
 5032 015b 40       		.uleb128 0x40
 5033 015c 18       		.uleb128 0x18
 5034 015d 9742     		.uleb128 0x2117
 5035 015f 19       		.uleb128 0x19
 5036 0160 01       		.uleb128 0x1
 5037 0161 13       		.uleb128 0x13
 5038 0162 00       		.byte	0
 5039 0163 00       		.byte	0
 5040 0164 18       		.uleb128 0x18
 5041 0165 34       		.uleb128 0x34
 5042 0166 00       		.byte	0
 5043 0167 03       		.uleb128 0x3
 5044 0168 0E       		.uleb128 0xe
 5045 0169 3A       		.uleb128 0x3a
 5046 016a 0B       		.uleb128 0xb
 5047 016b 3B       		.uleb128 0x3b
 5048 016c 05       		.uleb128 0x5
 5049 016d 49       		.uleb128 0x49
ARM GAS  C:\Users\ADMINI~1\AppData\Local\Temp\ccpQE0Fa.s 			page 101


 5050 016e 13       		.uleb128 0x13
 5051 016f 1C       		.uleb128 0x1c
 5052 0170 0B       		.uleb128 0xb
 5053 0171 00       		.byte	0
 5054 0172 00       		.byte	0
 5055 0173 19       		.uleb128 0x19
 5056 0174 34       		.uleb128 0x34
 5057 0175 00       		.byte	0
 5058 0176 03       		.uleb128 0x3
 5059 0177 0E       		.uleb128 0xe
 5060 0178 3A       		.uleb128 0x3a
 5061 0179 0B       		.uleb128 0xb
 5062 017a 3B       		.uleb128 0x3b
 5063 017b 05       		.uleb128 0x5
 5064 017c 49       		.uleb128 0x49
 5065 017d 13       		.uleb128 0x13
 5066 017e 3F       		.uleb128 0x3f
 5067 017f 19       		.uleb128 0x19
 5068 0180 3C       		.uleb128 0x3c
 5069 0181 19       		.uleb128 0x19
 5070 0182 00       		.byte	0
 5071 0183 00       		.byte	0
 5072 0184 1A       		.uleb128 0x1a
 5073 0185 34       		.uleb128 0x34
 5074 0186 00       		.byte	0
 5075 0187 03       		.uleb128 0x3
 5076 0188 0E       		.uleb128 0xe
 5077 0189 3A       		.uleb128 0x3a
 5078 018a 0B       		.uleb128 0xb
 5079 018b 3B       		.uleb128 0x3b
 5080 018c 0B       		.uleb128 0xb
 5081 018d 49       		.uleb128 0x49
 5082 018e 13       		.uleb128 0x13
 5083 018f 3F       		.uleb128 0x3f
 5084 0190 19       		.uleb128 0x19
 5085 0191 02       		.uleb128 0x2
 5086 0192 18       		.uleb128 0x18
 5087 0193 00       		.byte	0
 5088 0194 00       		.byte	0
 5089 0195 1B       		.uleb128 0x1b
 5090 0196 34       		.uleb128 0x34
 5091 0197 00       		.byte	0
 5092 0198 03       		.uleb128 0x3
 5093 0199 08       		.uleb128 0x8
 5094 019a 3A       		.uleb128 0x3a
 5095 019b 0B       		.uleb128 0xb
 5096 019c 3B       		.uleb128 0x3b
 5097 019d 0B       		.uleb128 0xb
 5098 019e 49       		.uleb128 0x49
 5099 019f 13       		.uleb128 0x13
 5100 01a0 3F       		.uleb128 0x3f
 5101 01a1 19       		.uleb128 0x19
 5102 01a2 02       		.uleb128 0x2
 5103 01a3 18       		.uleb128 0x18
 5104 01a4 00       		.byte	0
 5105 01a5 00       		.byte	0
 5106 01a6 1C       		.uleb128 0x1c
ARM GAS  C:\Users\ADMINI~1\AppData\Local\Temp\ccpQE0Fa.s 			page 102


 5107 01a7 01       		.uleb128 0x1
 5108 01a8 01       		.byte	0x1
 5109 01a9 49       		.uleb128 0x49
 5110 01aa 13       		.uleb128 0x13
 5111 01ab 01       		.uleb128 0x1
 5112 01ac 13       		.uleb128 0x13
 5113 01ad 00       		.byte	0
 5114 01ae 00       		.byte	0
 5115 01af 1D       		.uleb128 0x1d
 5116 01b0 21       		.uleb128 0x21
 5117 01b1 00       		.byte	0
 5118 01b2 49       		.uleb128 0x49
 5119 01b3 13       		.uleb128 0x13
 5120 01b4 2F       		.uleb128 0x2f
 5121 01b5 0B       		.uleb128 0xb
 5122 01b6 00       		.byte	0
 5123 01b7 00       		.byte	0
 5124 01b8 1E       		.uleb128 0x1e
 5125 01b9 2E       		.uleb128 0x2e
 5126 01ba 01       		.byte	0x1
 5127 01bb 3F       		.uleb128 0x3f
 5128 01bc 19       		.uleb128 0x19
 5129 01bd 03       		.uleb128 0x3
 5130 01be 0E       		.uleb128 0xe
 5131 01bf 3A       		.uleb128 0x3a
 5132 01c0 0B       		.uleb128 0xb
 5133 01c1 3B       		.uleb128 0x3b
 5134 01c2 0B       		.uleb128 0xb
 5135 01c3 27       		.uleb128 0x27
 5136 01c4 19       		.uleb128 0x19
 5137 01c5 3C       		.uleb128 0x3c
 5138 01c6 19       		.uleb128 0x19
 5139 01c7 01       		.uleb128 0x1
 5140 01c8 13       		.uleb128 0x13
 5141 01c9 00       		.byte	0
 5142 01ca 00       		.byte	0
 5143 01cb 1F       		.uleb128 0x1f
 5144 01cc 05       		.uleb128 0x5
 5145 01cd 00       		.byte	0
 5146 01ce 49       		.uleb128 0x49
 5147 01cf 13       		.uleb128 0x13
 5148 01d0 00       		.byte	0
 5149 01d1 00       		.byte	0
 5150 01d2 20       		.uleb128 0x20
 5151 01d3 2E       		.uleb128 0x2e
 5152 01d4 00       		.byte	0
 5153 01d5 3F       		.uleb128 0x3f
 5154 01d6 19       		.uleb128 0x19
 5155 01d7 03       		.uleb128 0x3
 5156 01d8 0E       		.uleb128 0xe
 5157 01d9 3A       		.uleb128 0x3a
 5158 01da 0B       		.uleb128 0xb
 5159 01db 3B       		.uleb128 0x3b
 5160 01dc 0B       		.uleb128 0xb
 5161 01dd 27       		.uleb128 0x27
 5162 01de 19       		.uleb128 0x19
 5163 01df 3C       		.uleb128 0x3c
ARM GAS  C:\Users\ADMINI~1\AppData\Local\Temp\ccpQE0Fa.s 			page 103


 5164 01e0 19       		.uleb128 0x19
 5165 01e1 00       		.byte	0
 5166 01e2 00       		.byte	0
 5167 01e3 21       		.uleb128 0x21
 5168 01e4 2E       		.uleb128 0x2e
 5169 01e5 00       		.byte	0
 5170 01e6 3F       		.uleb128 0x3f
 5171 01e7 19       		.uleb128 0x19
 5172 01e8 03       		.uleb128 0x3
 5173 01e9 0E       		.uleb128 0xe
 5174 01ea 3A       		.uleb128 0x3a
 5175 01eb 0B       		.uleb128 0xb
 5176 01ec 3B       		.uleb128 0x3b
 5177 01ed 0B       		.uleb128 0xb
 5178 01ee 27       		.uleb128 0x27
 5179 01ef 19       		.uleb128 0x19
 5180 01f0 49       		.uleb128 0x49
 5181 01f1 13       		.uleb128 0x13
 5182 01f2 3C       		.uleb128 0x3c
 5183 01f3 19       		.uleb128 0x19
 5184 01f4 00       		.byte	0
 5185 01f5 00       		.byte	0
 5186 01f6 22       		.uleb128 0x22
 5187 01f7 2E       		.uleb128 0x2e
 5188 01f8 01       		.byte	0x1
 5189 01f9 3F       		.uleb128 0x3f
 5190 01fa 19       		.uleb128 0x19
 5191 01fb 03       		.uleb128 0x3
 5192 01fc 0E       		.uleb128 0xe
 5193 01fd 3A       		.uleb128 0x3a
 5194 01fe 0B       		.uleb128 0xb
 5195 01ff 3B       		.uleb128 0x3b
 5196 0200 0B       		.uleb128 0xb
 5197 0201 27       		.uleb128 0x27
 5198 0202 19       		.uleb128 0x19
 5199 0203 49       		.uleb128 0x49
 5200 0204 13       		.uleb128 0x13
 5201 0205 3C       		.uleb128 0x3c
 5202 0206 19       		.uleb128 0x19
 5203 0207 01       		.uleb128 0x1
 5204 0208 13       		.uleb128 0x13
 5205 0209 00       		.byte	0
 5206 020a 00       		.byte	0
 5207 020b 23       		.uleb128 0x23
 5208 020c 18       		.uleb128 0x18
 5209 020d 00       		.byte	0
 5210 020e 00       		.byte	0
 5211 020f 00       		.byte	0
 5212 0210 24       		.uleb128 0x24
 5213 0211 2E       		.uleb128 0x2e
 5214 0212 01       		.byte	0x1
 5215 0213 3F       		.uleb128 0x3f
 5216 0214 19       		.uleb128 0x19
 5217 0215 03       		.uleb128 0x3
 5218 0216 0E       		.uleb128 0xe
 5219 0217 3A       		.uleb128 0x3a
 5220 0218 0B       		.uleb128 0xb
ARM GAS  C:\Users\ADMINI~1\AppData\Local\Temp\ccpQE0Fa.s 			page 104


 5221 0219 3B       		.uleb128 0x3b
 5222 021a 05       		.uleb128 0x5
 5223 021b 27       		.uleb128 0x27
 5224 021c 19       		.uleb128 0x19
 5225 021d 3C       		.uleb128 0x3c
 5226 021e 19       		.uleb128 0x19
 5227 021f 01       		.uleb128 0x1
 5228 0220 13       		.uleb128 0x13
 5229 0221 00       		.byte	0
 5230 0222 00       		.byte	0
 5231 0223 25       		.uleb128 0x25
 5232 0224 2E       		.uleb128 0x2e
 5233 0225 00       		.byte	0
 5234 0226 3F       		.uleb128 0x3f
 5235 0227 19       		.uleb128 0x19
 5236 0228 03       		.uleb128 0x3
 5237 0229 0E       		.uleb128 0xe
 5238 022a 3A       		.uleb128 0x3a
 5239 022b 0B       		.uleb128 0xb
 5240 022c 3B       		.uleb128 0x3b
 5241 022d 05       		.uleb128 0x5
 5242 022e 27       		.uleb128 0x27
 5243 022f 19       		.uleb128 0x19
 5244 0230 49       		.uleb128 0x49
 5245 0231 13       		.uleb128 0x13
 5246 0232 3C       		.uleb128 0x3c
 5247 0233 19       		.uleb128 0x19
 5248 0234 00       		.byte	0
 5249 0235 00       		.byte	0
 5250 0236 26       		.uleb128 0x26
 5251 0237 2E       		.uleb128 0x2e
 5252 0238 01       		.byte	0x1
 5253 0239 3F       		.uleb128 0x3f
 5254 023a 19       		.uleb128 0x19
 5255 023b 03       		.uleb128 0x3
 5256 023c 0E       		.uleb128 0xe
 5257 023d 3A       		.uleb128 0x3a
 5258 023e 0B       		.uleb128 0xb
 5259 023f 3B       		.uleb128 0x3b
 5260 0240 0B       		.uleb128 0xb
 5261 0241 3C       		.uleb128 0x3c
 5262 0242 19       		.uleb128 0x19
 5263 0243 01       		.uleb128 0x1
 5264 0244 13       		.uleb128 0x13
 5265 0245 00       		.byte	0
 5266 0246 00       		.byte	0
 5267 0247 27       		.uleb128 0x27
 5268 0248 2E       		.uleb128 0x2e
 5269 0249 01       		.byte	0x1
 5270 024a 3F       		.uleb128 0x3f
 5271 024b 19       		.uleb128 0x19
 5272 024c 03       		.uleb128 0x3
 5273 024d 0E       		.uleb128 0xe
 5274 024e 3A       		.uleb128 0x3a
 5275 024f 0B       		.uleb128 0xb
 5276 0250 3B       		.uleb128 0x3b
 5277 0251 0B       		.uleb128 0xb
ARM GAS  C:\Users\ADMINI~1\AppData\Local\Temp\ccpQE0Fa.s 			page 105


 5278 0252 3C       		.uleb128 0x3c
 5279 0253 19       		.uleb128 0x19
 5280 0254 00       		.byte	0
 5281 0255 00       		.byte	0
 5282 0256 00       		.byte	0
 5283              		.section	.debug_loc,"",%progbits
 5284              	.Ldebug_loc0:
 5285              	.LLST0:
 5286 0000 00000000 		.4byte	.LVL0
 5287 0004 0C000000 		.4byte	.LVL1
 5288 0008 0100     		.2byte	0x1
 5289 000a 50       		.byte	0x50
 5290 000b 0C000000 		.4byte	.LVL1
 5291 000f 0E000000 		.4byte	.LVL2
 5292 0013 0400     		.2byte	0x4
 5293 0015 70       		.byte	0x70
 5294 0016 9978     		.sleb128 -999
 5295 0018 9F       		.byte	0x9f
 5296 0019 0E000000 		.4byte	.LVL2
 5297 001d 14000000 		.4byte	.LVL4
 5298 0021 0400     		.2byte	0x4
 5299 0023 F3       		.byte	0xf3
 5300 0024 01       		.uleb128 0x1
 5301 0025 50       		.byte	0x50
 5302 0026 9F       		.byte	0x9f
 5303 0027 14000000 		.4byte	.LVL4
 5304 002b 16000000 		.4byte	.LFE63
 5305 002f 0100     		.2byte	0x1
 5306 0031 50       		.byte	0x50
 5307 0032 00000000 		.4byte	0
 5308 0036 00000000 		.4byte	0
 5309              	.LLST1:
 5310 003a 00000000 		.4byte	.LVL5
 5311 003e 0C000000 		.4byte	.LVL6
 5312 0042 0100     		.2byte	0x1
 5313 0044 50       		.byte	0x50
 5314 0045 0C000000 		.4byte	.LVL6
 5315 0049 0E000000 		.4byte	.LVL7
 5316 004d 0400     		.2byte	0x4
 5317 004f 70       		.byte	0x70
 5318 0050 9978     		.sleb128 -999
 5319 0052 9F       		.byte	0x9f
 5320 0053 0E000000 		.4byte	.LVL7
 5321 0057 14000000 		.4byte	.LVL9
 5322 005b 0400     		.2byte	0x4
 5323 005d F3       		.byte	0xf3
 5324 005e 01       		.uleb128 0x1
 5325 005f 50       		.byte	0x50
 5326 0060 9F       		.byte	0x9f
 5327 0061 14000000 		.4byte	.LVL9
 5328 0065 16000000 		.4byte	.LFE64
 5329 0069 0100     		.2byte	0x1
 5330 006b 50       		.byte	0x50
 5331 006c 00000000 		.4byte	0
 5332 0070 00000000 		.4byte	0
 5333              	.LLST2:
 5334 0074 00000000 		.4byte	.LVL10
ARM GAS  C:\Users\ADMINI~1\AppData\Local\Temp\ccpQE0Fa.s 			page 106


 5335 0078 0C000000 		.4byte	.LVL11
 5336 007c 0100     		.2byte	0x1
 5337 007e 50       		.byte	0x50
 5338 007f 0C000000 		.4byte	.LVL11
 5339 0083 0E000000 		.4byte	.LVL12
 5340 0087 0400     		.2byte	0x4
 5341 0089 70       		.byte	0x70
 5342 008a 9978     		.sleb128 -999
 5343 008c 9F       		.byte	0x9f
 5344 008d 0E000000 		.4byte	.LVL12
 5345 0091 14000000 		.4byte	.LVL14
 5346 0095 0400     		.2byte	0x4
 5347 0097 F3       		.byte	0xf3
 5348 0098 01       		.uleb128 0x1
 5349 0099 50       		.byte	0x50
 5350 009a 9F       		.byte	0x9f
 5351 009b 14000000 		.4byte	.LVL14
 5352 009f 16000000 		.4byte	.LFE65
 5353 00a3 0100     		.2byte	0x1
 5354 00a5 50       		.byte	0x50
 5355 00a6 00000000 		.4byte	0
 5356 00aa 00000000 		.4byte	0
 5357              	.LLST3:
 5358 00ae 00000000 		.4byte	.LVL15
 5359 00b2 0C000000 		.4byte	.LVL16
 5360 00b6 0100     		.2byte	0x1
 5361 00b8 50       		.byte	0x50
 5362 00b9 0C000000 		.4byte	.LVL16
 5363 00bd 0E000000 		.4byte	.LVL17
 5364 00c1 0400     		.2byte	0x4
 5365 00c3 70       		.byte	0x70
 5366 00c4 9978     		.sleb128 -999
 5367 00c6 9F       		.byte	0x9f
 5368 00c7 0E000000 		.4byte	.LVL17
 5369 00cb 14000000 		.4byte	.LVL19
 5370 00cf 0400     		.2byte	0x4
 5371 00d1 F3       		.byte	0xf3
 5372 00d2 01       		.uleb128 0x1
 5373 00d3 50       		.byte	0x50
 5374 00d4 9F       		.byte	0x9f
 5375 00d5 14000000 		.4byte	.LVL19
 5376 00d9 16000000 		.4byte	.LFE66
 5377 00dd 0100     		.2byte	0x1
 5378 00df 50       		.byte	0x50
 5379 00e0 00000000 		.4byte	0
 5380 00e4 00000000 		.4byte	0
 5381              	.LLST4:
 5382 00e8 00000000 		.4byte	.LVL24
 5383 00ec 0B000000 		.4byte	.LVL25-1
 5384 00f0 0100     		.2byte	0x1
 5385 00f2 50       		.byte	0x50
 5386 00f3 0B000000 		.4byte	.LVL25-1
 5387 00f7 20000000 		.4byte	.LFE67
 5388 00fb 0400     		.2byte	0x4
 5389 00fd F3       		.byte	0xf3
 5390 00fe 01       		.uleb128 0x1
 5391 00ff 50       		.byte	0x50
ARM GAS  C:\Users\ADMINI~1\AppData\Local\Temp\ccpQE0Fa.s 			page 107


 5392 0100 9F       		.byte	0x9f
 5393 0101 00000000 		.4byte	0
 5394 0105 00000000 		.4byte	0
 5395              	.LLST5:
 5396 0109 00000000 		.4byte	.LVL24
 5397 010d 0B000000 		.4byte	.LVL25-1
 5398 0111 0100     		.2byte	0x1
 5399 0113 51       		.byte	0x51
 5400 0114 0B000000 		.4byte	.LVL25-1
 5401 0118 20000000 		.4byte	.LFE67
 5402 011c 0100     		.2byte	0x1
 5403 011e 56       		.byte	0x56
 5404 011f 00000000 		.4byte	0
 5405 0123 00000000 		.4byte	0
 5406              	.LLST6:
 5407 0127 00000000 		.4byte	.LVL24
 5408 012b 0B000000 		.4byte	.LVL25-1
 5409 012f 0100     		.2byte	0x1
 5410 0131 52       		.byte	0x52
 5411 0132 0B000000 		.4byte	.LVL25-1
 5412 0136 20000000 		.4byte	.LFE67
 5413 013a 0100     		.2byte	0x1
 5414 013c 55       		.byte	0x55
 5415 013d 00000000 		.4byte	0
 5416 0141 00000000 		.4byte	0
 5417              	.LLST7:
 5418 0145 00000000 		.4byte	.LVL24
 5419 0149 0B000000 		.4byte	.LVL25-1
 5420 014d 0100     		.2byte	0x1
 5421 014f 53       		.byte	0x53
 5422 0150 0B000000 		.4byte	.LVL25-1
 5423 0154 20000000 		.4byte	.LFE67
 5424 0158 0100     		.2byte	0x1
 5425 015a 54       		.byte	0x54
 5426 015b 00000000 		.4byte	0
 5427 015f 00000000 		.4byte	0
 5428              	.LLST8:
 5429 0163 00000000 		.4byte	.LVL45
 5430 0167 50000000 		.4byte	.LVL52
 5431 016b 0100     		.2byte	0x1
 5432 016d 50       		.byte	0x50
 5433 016e 50000000 		.4byte	.LVL52
 5434 0172 12010000 		.4byte	.LVL77
 5435 0176 0100     		.2byte	0x1
 5436 0178 54       		.byte	0x54
 5437 0179 12010000 		.4byte	.LVL77
 5438 017d 44010000 		.4byte	.LFE70
 5439 0181 0400     		.2byte	0x4
 5440 0183 F3       		.byte	0xf3
 5441 0184 01       		.uleb128 0x1
 5442 0185 50       		.byte	0x50
 5443 0186 9F       		.byte	0x9f
 5444 0187 00000000 		.4byte	0
 5445 018b 00000000 		.4byte	0
 5446              	.LLST9:
 5447 018f 00000000 		.4byte	.LVL45
 5448 0193 08000000 		.4byte	.LVL47
ARM GAS  C:\Users\ADMINI~1\AppData\Local\Temp\ccpQE0Fa.s 			page 108


 5449 0197 0100     		.2byte	0x1
 5450 0199 51       		.byte	0x51
 5451 019a 08000000 		.4byte	.LVL47
 5452 019e 44010000 		.4byte	.LFE70
 5453 01a2 0400     		.2byte	0x4
 5454 01a4 F3       		.byte	0xf3
 5455 01a5 01       		.uleb128 0x1
 5456 01a6 51       		.byte	0x51
 5457 01a7 9F       		.byte	0x9f
 5458 01a8 00000000 		.4byte	0
 5459 01ac 00000000 		.4byte	0
 5460              	.LLST10:
 5461 01b0 02000000 		.4byte	.LVL46
 5462 01b4 08000000 		.4byte	.LVL47
 5463 01b8 0200     		.2byte	0x2
 5464 01ba 30       		.byte	0x30
 5465 01bb 9F       		.byte	0x9f
 5466 01bc 08000000 		.4byte	.LVL47
 5467 01c0 14000000 		.4byte	.LVL50
 5468 01c4 0100     		.2byte	0x1
 5469 01c6 52       		.byte	0x52
 5470 01c7 00000000 		.4byte	0
 5471 01cb 00000000 		.4byte	0
 5472              	.LLST11:
 5473 01cf 02000000 		.4byte	.LVL46
 5474 01d3 08000000 		.4byte	.LVL47
 5475 01d7 0200     		.2byte	0x2
 5476 01d9 30       		.byte	0x30
 5477 01da 9F       		.byte	0x9f
 5478 01db 08000000 		.4byte	.LVL47
 5479 01df 16000000 		.4byte	.LVL51
 5480 01e3 0100     		.2byte	0x1
 5481 01e5 53       		.byte	0x53
 5482 01e6 00000000 		.4byte	0
 5483 01ea 00000000 		.4byte	0
 5484              	.LLST12:
 5485 01ee 00000000 		.4byte	.LVL80
 5486 01f2 5E000000 		.4byte	.LVL82
 5487 01f6 0100     		.2byte	0x1
 5488 01f8 50       		.byte	0x50
 5489 01f9 5E000000 		.4byte	.LVL82
 5490 01fd 00010000 		.4byte	.LVL101
 5491 0201 0100     		.2byte	0x1
 5492 0203 54       		.byte	0x54
 5493 0204 00010000 		.4byte	.LVL101
 5494 0208 02010000 		.4byte	.LVL102
 5495 020c 0100     		.2byte	0x1
 5496 020e 50       		.byte	0x50
 5497 020f 02010000 		.4byte	.LVL102
 5498 0213 A4010000 		.4byte	.LVL121
 5499 0217 0100     		.2byte	0x1
 5500 0219 54       		.byte	0x54
 5501 021a A4010000 		.4byte	.LVL121
 5502 021e A6010000 		.4byte	.LVL122
 5503 0222 0100     		.2byte	0x1
 5504 0224 50       		.byte	0x50
 5505 0225 A6010000 		.4byte	.LVL122
ARM GAS  C:\Users\ADMINI~1\AppData\Local\Temp\ccpQE0Fa.s 			page 109


 5506 0229 48020000 		.4byte	.LVL141
 5507 022d 0100     		.2byte	0x1
 5508 022f 54       		.byte	0x54
 5509 0230 48020000 		.4byte	.LVL141
 5510 0234 6E020000 		.4byte	.LVL142
 5511 0238 0100     		.2byte	0x1
 5512 023a 50       		.byte	0x50
 5513 023b 6E020000 		.4byte	.LVL142
 5514 023f 8C020000 		.4byte	.LVL146
 5515 0243 0100     		.2byte	0x1
 5516 0245 54       		.byte	0x54
 5517 0246 8C020000 		.4byte	.LVL146
 5518 024a BE020000 		.4byte	.LVL147
 5519 024e 0100     		.2byte	0x1
 5520 0250 50       		.byte	0x50
 5521 0251 BE020000 		.4byte	.LVL147
 5522 0255 C0020000 		.4byte	.LVL148
 5523 0259 0100     		.2byte	0x1
 5524 025b 54       		.byte	0x54
 5525 025c C0020000 		.4byte	.LVL148
 5526 0260 C2020000 		.4byte	.LVL149
 5527 0264 0100     		.2byte	0x1
 5528 0266 50       		.byte	0x50
 5529 0267 C2020000 		.4byte	.LVL149
 5530 026b C4020000 		.4byte	.LVL150
 5531 026f 0400     		.2byte	0x4
 5532 0271 F3       		.byte	0xf3
 5533 0272 01       		.uleb128 0x1
 5534 0273 50       		.byte	0x50
 5535 0274 9F       		.byte	0x9f
 5536 0275 C4020000 		.4byte	.LVL150
 5537 0279 C6020000 		.4byte	.LVL151
 5538 027d 0100     		.2byte	0x1
 5539 027f 50       		.byte	0x50
 5540 0280 C6020000 		.4byte	.LVL151
 5541 0284 C8020000 		.4byte	.LVL152
 5542 0288 0400     		.2byte	0x4
 5543 028a F3       		.byte	0xf3
 5544 028b 01       		.uleb128 0x1
 5545 028c 50       		.byte	0x50
 5546 028d 9F       		.byte	0x9f
 5547 028e C8020000 		.4byte	.LVL152
 5548 0292 CA020000 		.4byte	.LVL153
 5549 0296 0100     		.2byte	0x1
 5550 0298 50       		.byte	0x50
 5551 0299 CA020000 		.4byte	.LVL153
 5552 029d CC020000 		.4byte	.LVL154
 5553 02a1 0400     		.2byte	0x4
 5554 02a3 F3       		.byte	0xf3
 5555 02a4 01       		.uleb128 0x1
 5556 02a5 50       		.byte	0x50
 5557 02a6 9F       		.byte	0x9f
 5558 02a7 CC020000 		.4byte	.LVL154
 5559 02ab CE020000 		.4byte	.LVL155
 5560 02af 0100     		.2byte	0x1
 5561 02b1 50       		.byte	0x50
 5562 02b2 CE020000 		.4byte	.LVL155
ARM GAS  C:\Users\ADMINI~1\AppData\Local\Temp\ccpQE0Fa.s 			page 110


 5563 02b6 D0020000 		.4byte	.LVL156
 5564 02ba 0100     		.2byte	0x1
 5565 02bc 54       		.byte	0x54
 5566 02bd D0020000 		.4byte	.LVL156
 5567 02c1 24030000 		.4byte	.LFE72
 5568 02c5 0400     		.2byte	0x4
 5569 02c7 F3       		.byte	0xf3
 5570 02c8 01       		.uleb128 0x1
 5571 02c9 50       		.byte	0x50
 5572 02ca 9F       		.byte	0x9f
 5573 02cb 00000000 		.4byte	0
 5574 02cf 00000000 		.4byte	0
 5575              	.LLST13:
 5576 02d3 00000000 		.4byte	.LVL80
 5577 02d7 1C000000 		.4byte	.LVL81
 5578 02db 0100     		.2byte	0x1
 5579 02dd 51       		.byte	0x51
 5580 02de 1C000000 		.4byte	.LVL81
 5581 02e2 C0020000 		.4byte	.LVL148
 5582 02e6 0400     		.2byte	0x4
 5583 02e8 F3       		.byte	0xf3
 5584 02e9 01       		.uleb128 0x1
 5585 02ea 51       		.byte	0x51
 5586 02eb 9F       		.byte	0x9f
 5587 02ec C0020000 		.4byte	.LVL148
 5588 02f0 C8020000 		.4byte	.LVL152
 5589 02f4 0100     		.2byte	0x1
 5590 02f6 51       		.byte	0x51
 5591 02f7 C8020000 		.4byte	.LVL152
 5592 02fb 24030000 		.4byte	.LFE72
 5593 02ff 0400     		.2byte	0x4
 5594 0301 F3       		.byte	0xf3
 5595 0302 01       		.uleb128 0x1
 5596 0303 51       		.byte	0x51
 5597 0304 9F       		.byte	0x9f
 5598 0305 00000000 		.4byte	0
 5599 0309 00000000 		.4byte	0
 5600              	.LLST14:
 5601 030d 00000000 		.4byte	.LVL159
 5602 0311 06000000 		.4byte	.LVL160
 5603 0315 0100     		.2byte	0x1
 5604 0317 50       		.byte	0x50
 5605 0318 06000000 		.4byte	.LVL160
 5606 031c 14000000 		.4byte	.LFE73
 5607 0320 0100     		.2byte	0x1
 5608 0322 54       		.byte	0x54
 5609 0323 00000000 		.4byte	0
 5610 0327 00000000 		.4byte	0
 5611              	.LLST15:
 5612 032b 00000000 		.4byte	.LVL159
 5613 032f 08000000 		.4byte	.LVL161
 5614 0333 0100     		.2byte	0x1
 5615 0335 51       		.byte	0x51
 5616 0336 08000000 		.4byte	.LVL161
 5617 033a 14000000 		.4byte	.LFE73
 5618 033e 0400     		.2byte	0x4
 5619 0340 F3       		.byte	0xf3
ARM GAS  C:\Users\ADMINI~1\AppData\Local\Temp\ccpQE0Fa.s 			page 111


 5620 0341 01       		.uleb128 0x1
 5621 0342 51       		.byte	0x51
 5622 0343 9F       		.byte	0x9f
 5623 0344 00000000 		.4byte	0
 5624 0348 00000000 		.4byte	0
 5625              	.LLST16:
 5626 034c 00000000 		.4byte	.LVL159
 5627 0350 0B000000 		.4byte	.LVL162-1
 5628 0354 0100     		.2byte	0x1
 5629 0356 52       		.byte	0x52
 5630 0357 0B000000 		.4byte	.LVL162-1
 5631 035b 14000000 		.4byte	.LFE73
 5632 035f 0400     		.2byte	0x4
 5633 0361 F3       		.byte	0xf3
 5634 0362 01       		.uleb128 0x1
 5635 0363 52       		.byte	0x52
 5636 0364 9F       		.byte	0x9f
 5637 0365 00000000 		.4byte	0
 5638 0369 00000000 		.4byte	0
 5639              	.LLST17:
 5640 036d 00000000 		.4byte	.LVL164
 5641 0371 0E000000 		.4byte	.LVL165
 5642 0375 0100     		.2byte	0x1
 5643 0377 50       		.byte	0x50
 5644 0378 0E000000 		.4byte	.LVL165
 5645 037c 98000000 		.4byte	.LVL186
 5646 0380 0100     		.2byte	0x1
 5647 0382 57       		.byte	0x57
 5648 0383 98000000 		.4byte	.LVL186
 5649 0387 A8000000 		.4byte	.LFE74
 5650 038b 0400     		.2byte	0x4
 5651 038d F3       		.byte	0xf3
 5652 038e 01       		.uleb128 0x1
 5653 038f 50       		.byte	0x50
 5654 0390 9F       		.byte	0x9f
 5655 0391 00000000 		.4byte	0
 5656 0395 00000000 		.4byte	0
 5657              	.LLST18:
 5658 0399 00000000 		.4byte	.LVL164
 5659 039d 10000000 		.4byte	.LVL166
 5660 03a1 0100     		.2byte	0x1
 5661 03a3 51       		.byte	0x51
 5662 03a4 10000000 		.4byte	.LVL166
 5663 03a8 13000000 		.4byte	.LVL167-1
 5664 03ac 0100     		.2byte	0x1
 5665 03ae 50       		.byte	0x50
 5666 03af 13000000 		.4byte	.LVL167-1
 5667 03b3 2A000000 		.4byte	.LVL170
 5668 03b7 0100     		.2byte	0x1
 5669 03b9 54       		.byte	0x54
 5670 03ba 2A000000 		.4byte	.LVL170
 5671 03be A8000000 		.4byte	.LFE74
 5672 03c2 0600     		.2byte	0x6
 5673 03c4 F3       		.byte	0xf3
 5674 03c5 03       		.uleb128 0x3
 5675 03c6 F5       		.byte	0xf5
 5676 03c7 01       		.uleb128 0x1
ARM GAS  C:\Users\ADMINI~1\AppData\Local\Temp\ccpQE0Fa.s 			page 112


 5677 03c8 25       		.uleb128 0x25
 5678 03c9 9F       		.byte	0x9f
 5679 03ca 00000000 		.4byte	0
 5680 03ce 00000000 		.4byte	0
 5681              	.LLST19:
 5682 03d2 1C000000 		.4byte	.LVL168
 5683 03d6 98000000 		.4byte	.LVL186
 5684 03da 0100     		.2byte	0x1
 5685 03dc 55       		.byte	0x55
 5686 03dd 00000000 		.4byte	0
 5687 03e1 00000000 		.4byte	0
 5688              	.LLST20:
 5689 03e5 2A000000 		.4byte	.LVL170
 5690 03e9 98000000 		.4byte	.LVL186
 5691 03ed 0100     		.2byte	0x1
 5692 03ef 54       		.byte	0x54
 5693 03f0 00000000 		.4byte	0
 5694 03f4 00000000 		.4byte	0
 5695              	.LLST21:
 5696 03f8 32000000 		.4byte	.LVL172
 5697 03fc 35000000 		.4byte	.LVL173-1
 5698 0400 0100     		.2byte	0x1
 5699 0402 50       		.byte	0x50
 5700 0403 35000000 		.4byte	.LVL173-1
 5701 0407 98000000 		.4byte	.LVL186
 5702 040b 0100     		.2byte	0x1
 5703 040d 56       		.byte	0x56
 5704 040e 00000000 		.4byte	0
 5705 0412 00000000 		.4byte	0
 5706              	.LLST22:
 5707 0416 4E000000 		.4byte	.LVL177
 5708 041a 5E000000 		.4byte	.LVL178
 5709 041e 0100     		.2byte	0x1
 5710 0420 50       		.byte	0x50
 5711 0421 5E000000 		.4byte	.LVL178
 5712 0425 65000000 		.4byte	.LVL179-1
 5713 0429 0200     		.2byte	0x2
 5714 042b 7D       		.byte	0x7d
 5715 042c 00       		.sleb128 0
 5716 042d 68000000 		.4byte	.LVL180
 5717 0431 78000000 		.4byte	.LVL181
 5718 0435 0100     		.2byte	0x1
 5719 0437 50       		.byte	0x50
 5720 0438 78000000 		.4byte	.LVL181
 5721 043c 7F000000 		.4byte	.LVL182-1
 5722 0440 0200     		.2byte	0x2
 5723 0442 7D       		.byte	0x7d
 5724 0443 00       		.sleb128 0
 5725 0444 82000000 		.4byte	.LVL183
 5726 0448 8C000000 		.4byte	.LVL184
 5727 044c 0100     		.2byte	0x1
 5728 044e 50       		.byte	0x50
 5729 044f 00000000 		.4byte	0
 5730 0453 00000000 		.4byte	0
 5731              	.LLST23:
 5732 0457 00000000 		.4byte	.LVL187
 5733 045b 0B000000 		.4byte	.LVL188-1
ARM GAS  C:\Users\ADMINI~1\AppData\Local\Temp\ccpQE0Fa.s 			page 113


 5734 045f 0100     		.2byte	0x1
 5735 0461 50       		.byte	0x50
 5736 0462 0B000000 		.4byte	.LVL188-1
 5737 0466 44000000 		.4byte	.LVL193
 5738 046a 0100     		.2byte	0x1
 5739 046c 54       		.byte	0x54
 5740 046d 44000000 		.4byte	.LVL193
 5741 0471 88000000 		.4byte	.LFE77
 5742 0475 0600     		.2byte	0x6
 5743 0477 F3       		.byte	0xf3
 5744 0478 03       		.uleb128 0x3
 5745 0479 F5       		.byte	0xf5
 5746 047a 00       		.uleb128 0
 5747 047b 25       		.uleb128 0x25
 5748 047c 9F       		.byte	0x9f
 5749 047d 00000000 		.4byte	0
 5750 0481 00000000 		.4byte	0
 5751              		.section	.debug_aranges,"",%progbits
 5752 0000 AC000000 		.4byte	0xac
 5753 0004 0200     		.2byte	0x2
 5754 0006 00000000 		.4byte	.Ldebug_info0
 5755 000a 04       		.byte	0x4
 5756 000b 00       		.byte	0
 5757 000c 0000     		.2byte	0
 5758 000e 0000     		.2byte	0
 5759 0010 00000000 		.4byte	.LFB63
 5760 0014 16000000 		.4byte	.LFE63-.LFB63
 5761 0018 00000000 		.4byte	.LFB64
 5762 001c 16000000 		.4byte	.LFE64-.LFB64
 5763 0020 00000000 		.4byte	.LFB65
 5764 0024 16000000 		.4byte	.LFE65-.LFB65
 5765 0028 00000000 		.4byte	.LFB66
 5766 002c 16000000 		.4byte	.LFE66-.LFB66
 5767 0030 00000000 		.4byte	.LFB75
 5768 0034 AC000000 		.4byte	.LFE75-.LFB75
 5769 0038 00000000 		.4byte	.LFB67
 5770 003c 20000000 		.4byte	.LFE67-.LFB67
 5771 0040 00000000 		.4byte	.LFB68
 5772 0044 24000000 		.4byte	.LFE68-.LFB68
 5773 0048 00000000 		.4byte	.LFB69
 5774 004c 4C000000 		.4byte	.LFE69-.LFB69
 5775 0050 00000000 		.4byte	.LFB70
 5776 0054 44010000 		.4byte	.LFE70-.LFB70
 5777 0058 00000000 		.4byte	.LFB76
 5778 005c 70000000 		.4byte	.LFE76-.LFB76
 5779 0060 00000000 		.4byte	.LFB71
 5780 0064 70000000 		.4byte	.LFE71-.LFB71
 5781 0068 00000000 		.4byte	.LFB72
 5782 006c 24030000 		.4byte	.LFE72-.LFB72
 5783 0070 00000000 		.4byte	.LFB79
 5784 0074 9C000000 		.4byte	.LFE79-.LFB79
 5785 0078 00000000 		.4byte	.LFB73
 5786 007c 14000000 		.4byte	.LFE73-.LFB73
 5787 0080 00000000 		.4byte	.LFB74
 5788 0084 A8000000 		.4byte	.LFE74-.LFB74
 5789 0088 00000000 		.4byte	.LFB77
 5790 008c 88000000 		.4byte	.LFE77-.LFB77
ARM GAS  C:\Users\ADMINI~1\AppData\Local\Temp\ccpQE0Fa.s 			page 114


 5791 0090 00000000 		.4byte	.LFB78
 5792 0094 4C000000 		.4byte	.LFE78-.LFB78
 5793 0098 00000000 		.4byte	.LFB80
 5794 009c 94020000 		.4byte	.LFE80-.LFB80
 5795 00a0 00000000 		.4byte	.LFB81
 5796 00a4 EC000000 		.4byte	.LFE81-.LFB81
 5797 00a8 00000000 		.4byte	0
 5798 00ac 00000000 		.4byte	0
 5799              		.section	.debug_ranges,"",%progbits
 5800              	.Ldebug_ranges0:
 5801 0000 00000000 		.4byte	.LFB63
 5802 0004 16000000 		.4byte	.LFE63
 5803 0008 00000000 		.4byte	.LFB64
 5804 000c 16000000 		.4byte	.LFE64
 5805 0010 00000000 		.4byte	.LFB65
 5806 0014 16000000 		.4byte	.LFE65
 5807 0018 00000000 		.4byte	.LFB66
 5808 001c 16000000 		.4byte	.LFE66
 5809 0020 00000000 		.4byte	.LFB75
 5810 0024 AC000000 		.4byte	.LFE75
 5811 0028 00000000 		.4byte	.LFB67
 5812 002c 20000000 		.4byte	.LFE67
 5813 0030 00000000 		.4byte	.LFB68
 5814 0034 24000000 		.4byte	.LFE68
 5815 0038 00000000 		.4byte	.LFB69
 5816 003c 4C000000 		.4byte	.LFE69
 5817 0040 00000000 		.4byte	.LFB70
 5818 0044 44010000 		.4byte	.LFE70
 5819 0048 00000000 		.4byte	.LFB76
 5820 004c 70000000 		.4byte	.LFE76
 5821 0050 00000000 		.4byte	.LFB71
 5822 0054 70000000 		.4byte	.LFE71
 5823 0058 00000000 		.4byte	.LFB72
 5824 005c 24030000 		.4byte	.LFE72
 5825 0060 00000000 		.4byte	.LFB79
 5826 0064 9C000000 		.4byte	.LFE79
 5827 0068 00000000 		.4byte	.LFB73
 5828 006c 14000000 		.4byte	.LFE73
 5829 0070 00000000 		.4byte	.LFB74
 5830 0074 A8000000 		.4byte	.LFE74
 5831 0078 00000000 		.4byte	.LFB77
 5832 007c 88000000 		.4byte	.LFE77
 5833 0080 00000000 		.4byte	.LFB78
 5834 0084 4C000000 		.4byte	.LFE78
 5835 0088 00000000 		.4byte	.LFB80
 5836 008c 94020000 		.4byte	.LFE80
 5837 0090 00000000 		.4byte	.LFB81
 5838 0094 EC000000 		.4byte	.LFE81
 5839 0098 00000000 		.4byte	0
 5840 009c 00000000 		.4byte	0
 5841              		.section	.debug_line,"",%progbits
 5842              	.Ldebug_line0:
 5843 0000 D8050000 		.section	.debug_str,"MS",%progbits,1
 5843      02003702 
 5843      00000201 
 5843      FB0E0D00 
 5843      01010101 
ARM GAS  C:\Users\ADMINI~1\AppData\Local\Temp\ccpQE0Fa.s 			page 115


 5844              	.LASF97:
 5845 0000 43794465 		.ascii	"CyDelay\000"
 5845      6C617900 
 5846              	.LASF120:
 5847 0008 4465636F 		.ascii	"Decode_JY901_Data\000"
 5847      64655F4A 
 5847      59393031 
 5847      5F446174 
 5847      6100
 5848              	.LASF82:
 5849 001a 746D7032 		.ascii	"tmp2\000"
 5849      00
 5850              	.LASF35:
 5851 001f 4C43445F 		.ascii	"LCD_Disp\000"
 5851      44697370 
 5851      00
 5852              	.LASF90:
 5853 0028 746D7062 		.ascii	"tmpbuf\000"
 5853      756600
 5854              	.LASF66:
 5855 002f 4D61675A 		.ascii	"MagZ\000"
 5855      00
 5856              	.LASF51:
 5857 0034 70697463 		.ascii	"pitch_angle_offset\000"
 5857      685F616E 
 5857      676C655F 
 5857      6F666673 
 5857      657400
 5858              	.LASF118:
 5859 0047 443A5C73 		.ascii	"D:\\sjh\\10.11\\UAV_Control\\UAV_Control.cydsn\000"
 5859      6A685C31 
 5859      302E3131 
 5859      5C554156 
 5859      5F436F6E 
 5860              	.LASF91:
 5861 0072 50574D5F 		.ascii	"PWM_1_WriteCompare1\000"
 5861      315F5772 
 5861      69746543 
 5861      6F6D7061 
 5861      72653100 
 5862              	.LASF92:
 5863 0086 50574D5F 		.ascii	"PWM_1_WriteCompare2\000"
 5863      315F5772 
 5863      69746543 
 5863      6F6D7061 
 5863      72653200 
 5864              	.LASF9:
 5865 009a 756E7369 		.ascii	"unsigned int\000"
 5865      676E6564 
 5865      20696E74 
 5865      00
 5866              	.LASF95:
 5867 00a7 50574D5F 		.ascii	"PWM_1_Start\000"
 5867      315F5374 
 5867      61727400 
 5868              	.LASF37:
 5869 00b3 73796D62 		.ascii	"symbol\000"
ARM GAS  C:\Users\ADMINI~1\AppData\Local\Temp\ccpQE0Fa.s 			page 116


 5869      6F6C00
 5870              	.LASF10:
 5871 00ba 5F5F696E 		.ascii	"__int32_t\000"
 5871      7433325F 
 5871      7400
 5872              	.LASF62:
 5873 00c4 526F6C6C 		.ascii	"Roll\000"
 5873      00
 5874              	.LASF41:
 5875 00c9 4C43445F 		.ascii	"LCD_DisplayAngle\000"
 5875      44697370 
 5875      6C617941 
 5875      6E676C65 
 5875      00
 5876              	.LASF18:
 5877 00da 72656738 		.ascii	"reg8\000"
 5877      00
 5878              	.LASF80:
 5879 00df 4A593930 		.ascii	"JY901RxBuf\000"
 5879      31527842 
 5879      756600
 5880              	.LASF112:
 5881 00ea 6973725F 		.ascii	"isr_RX_StartEx\000"
 5881      52585F53 
 5881      74617274 
 5881      457800
 5882              	.LASF114:
 5883 00f9 55415254 		.ascii	"UART_JY901_Init\000"
 5883      5F4A5939 
 5883      30315F49 
 5883      6E697400 
 5884              	.LASF48:
 5885 0109 42545F50 		.ascii	"BT_Pitch\000"
 5885      69746368 
 5885      00
 5886              	.LASF24:
 5887 0112 73706565 		.ascii	"speed\000"
 5887      6400
 5888              	.LASF33:
 5889 0118 426C7565 		.ascii	"Bluetooth_RX_Interrupt_Handler\000"
 5889      746F6F74 
 5889      685F5258 
 5889      5F496E74 
 5889      65727275 
 5890              	.LASF68:
 5891 0137 48656967 		.ascii	"Height\000"
 5891      687400
 5892              	.LASF0:
 5893 013e 666C6F61 		.ascii	"float\000"
 5893      7400
 5894              	.LASF102:
 5895 0144 55534255 		.ascii	"USBUART_1_CDCIsReady\000"
 5895      4152545F 
 5895      315F4344 
 5895      43497352 
 5895      65616479 
 5896              	.LASF8:
ARM GAS  C:\Users\ADMINI~1\AppData\Local\Temp\ccpQE0Fa.s 			page 117


 5897 0159 6C6F6E67 		.ascii	"long long unsigned int\000"
 5897      206C6F6E 
 5897      6720756E 
 5897      7369676E 
 5897      65642069 
 5898              	.LASF109:
 5899 0170 55534255 		.ascii	"USBUART_1_CDC_Init\000"
 5899      4152545F 
 5899      315F4344 
 5899      435F496E 
 5899      697400
 5900              	.LASF63:
 5901 0183 50697463 		.ascii	"Pitch\000"
 5901      6800
 5902              	.LASF86:
 5903 0189 4C434442 		.ascii	"LCDBuffer\000"
 5903      75666665 
 5903      7200
 5904              	.LASF123:
 5905 0193 436F6E74 		.ascii	"Control_Main\000"
 5905      726F6C5F 
 5905      4D61696E 
 5905      00
 5906              	.LASF84:
 5907 01a0 666C6167 		.ascii	"flag_rec\000"
 5907      5F726563 
 5907      00
 5908              	.LASF50:
 5909 01a9 726F6C6C 		.ascii	"roll_angle_offset\000"
 5909      5F616E67 
 5909      6C655F6F 
 5909      66667365 
 5909      7400
 5910              	.LASF64:
 5911 01bb 4D616758 		.ascii	"MagX\000"
 5911      00
 5912              	.LASF65:
 5913 01c0 4D616759 		.ascii	"MagY\000"
 5913      00
 5914              	.LASF39:
 5915 01c5 666C6F61 		.ascii	"float_2part\000"
 5915      745F3270 
 5915      61727400 
 5916              	.LASF108:
 5917 01d1 55534255 		.ascii	"USBUART_1_GetConfiguration\000"
 5917      4152545F 
 5917      315F4765 
 5917      74436F6E 
 5917      66696775 
 5918              	.LASF52:
 5919 01ec 44657369 		.ascii	"Desire_angle_pitch\000"
 5919      72655F61 
 5919      6E676C65 
 5919      5F706974 
 5919      636800
 5920              	.LASF89:
 5921 01ff 44697370 		.ascii	"DisplayBuffer\000"
ARM GAS  C:\Users\ADMINI~1\AppData\Local\Temp\ccpQE0Fa.s 			page 118


 5921      6C617942 
 5921      75666665 
 5921      7200
 5922              	.LASF119:
 5923 020d 496E6974 		.ascii	"Init_JY901_Data\000"
 5923      5F4A5939 
 5923      30315F44 
 5923      61746100 
 5924              	.LASF23:
 5925 021d 5365745F 		.ascii	"Set_Motor_2_Speed\000"
 5925      4D6F746F 
 5925      725F325F 
 5925      53706565 
 5925      6400
 5926              	.LASF17:
 5927 022f 63686172 		.ascii	"char\000"
 5927      00
 5928              	.LASF81:
 5929 0234 4A593930 		.ascii	"JY901RxBufLen\000"
 5929      31527842 
 5929      75664C65 
 5929      6E00
 5930              	.LASF32:
 5931 0242 6275666C 		.ascii	"buflen\000"
 5931      656E00
 5932              	.LASF13:
 5933 0249 75696E74 		.ascii	"uint16\000"
 5933      313600
 5934              	.LASF69:
 5935 0250 4D6F746F 		.ascii	"Motor_v_1\000"
 5935      725F765F 
 5935      3100
 5936              	.LASF70:
 5937 025a 4D6F746F 		.ascii	"Motor_v_2\000"
 5937      725F765F 
 5937      3200
 5938              	.LASF71:
 5939 0264 4D6F746F 		.ascii	"Motor_v_3\000"
 5939      725F765F 
 5939      3300
 5940              	.LASF72:
 5941 026e 4D6F746F 		.ascii	"Motor_v_4\000"
 5941      725F765F 
 5941      3400
 5942              	.LASF16:
 5943 0278 63686172 		.ascii	"char8\000"
 5943      3800
 5944              	.LASF67:
 5945 027e 50726573 		.ascii	"Pressure\000"
 5945      73757265 
 5945      00
 5946              	.LASF88:
 5947 0287 665F746D 		.ascii	"f_tmp\000"
 5947      7000
 5948              	.LASF103:
 5949 028d 55534255 		.ascii	"USBUART_1_PutString\000"
 5949      4152545F 
ARM GAS  C:\Users\ADMINI~1\AppData\Local\Temp\ccpQE0Fa.s 			page 119


 5949      315F5075 
 5949      74537472 
 5949      696E6700 
 5950              	.LASF7:
 5951 02a1 6C6F6E67 		.ascii	"long long int\000"
 5951      206C6F6E 
 5951      6720696E 
 5951      7400
 5952              	.LASF85:
 5953 02af 6465636F 		.ascii	"decode_success\000"
 5953      64655F73 
 5953      75636365 
 5953      737300
 5954              	.LASF105:
 5955 02be 6973725F 		.ascii	"isr_Timer_1_StartEx\000"
 5955      54696D65 
 5955      725F315F 
 5955      53746172 
 5955      74457800 
 5956              	.LASF46:
 5957 02d2 42545F54 		.ascii	"BT_Throttle\000"
 5957      68726F74 
 5957      746C6500 
 5958              	.LASF26:
 5959 02de 5365745F 		.ascii	"Set_Motor_4_Speed\000"
 5959      4D6F746F 
 5959      725F345F 
 5959      53706565 
 5959      6400
 5960              	.LASF19:
 5961 02f0 63796973 		.ascii	"cyisraddress\000"
 5961      72616464 
 5961      72657373 
 5961      00
 5962              	.LASF110:
 5963 02fd 55415254 		.ascii	"UART_Bluetooth_Start\000"
 5963      5F426C75 
 5963      65746F6F 
 5963      74685F53 
 5963      74617274 
 5964              	.LASF14:
 5965 0312 75696E74 		.ascii	"uint32\000"
 5965      333200
 5966              	.LASF111:
 5967 0319 55415254 		.ascii	"UART_Bluetooth_Init\000"
 5967      5F426C75 
 5967      65746F6F 
 5967      74685F49 
 5967      6E697400 
 5968              	.LASF78:
 5969 032d 42545278 		.ascii	"BTRxBufLen\000"
 5969      4275664C 
 5969      656E00
 5970              	.LASF31:
 5971 0338 50726F63 		.ascii	"Process_Bluetooth_Message\000"
 5971      6573735F 
 5971      426C7565 
ARM GAS  C:\Users\ADMINI~1\AppData\Local\Temp\ccpQE0Fa.s 			page 120


 5971      746F6F74 
 5971      685F4D65 
 5972              	.LASF83:
 5973 0352 666C6167 		.ascii	"flag_55\000"
 5973      5F353500 
 5974              	.LASF49:
 5975 035a 42545F52 		.ascii	"BT_Roll\000"
 5975      6F6C6C00 
 5976              	.LASF61:
 5977 0362 54656D70 		.ascii	"Temperature\000"
 5977      65726174 
 5977      75726500 
 5978              	.LASF73:
 5979 036e 6C617374 		.ascii	"last_Motor_v_1\000"
 5979      5F4D6F74 
 5979      6F725F76 
 5979      5F3100
 5980              	.LASF74:
 5981 037d 6C617374 		.ascii	"last_Motor_v_2\000"
 5981      5F4D6F74 
 5981      6F725F76 
 5981      5F3200
 5982              	.LASF75:
 5983 038c 6C617374 		.ascii	"last_Motor_v_3\000"
 5983      5F4D6F74 
 5983      6F725F76 
 5983      5F3300
 5984              	.LASF76:
 5985 039b 6C617374 		.ascii	"last_Motor_v_4\000"
 5985      5F4D6F74 
 5985      6F725F76 
 5985      5F3400
 5986              	.LASF21:
 5987 03aa 6C6F6E67 		.ascii	"long double\000"
 5987      20646F75 
 5987      626C6500 
 5988              	.LASF121:
 5989 03b6 73707269 		.ascii	"sprintf\000"
 5989      6E746600 
 5990              	.LASF107:
 5991 03be 55534255 		.ascii	"USBUART_1_Start\000"
 5991      4152545F 
 5991      315F5374 
 5991      61727400 
 5992              	.LASF100:
 5993 03ce 4C43445F 		.ascii	"LCD_Position\000"
 5993      506F7369 
 5993      74696F6E 
 5993      00
 5994              	.LASF42:
 5995 03db 4A593930 		.ascii	"JY901_Debug_Display\000"
 5995      315F4465 
 5995      6275675F 
 5995      44697370 
 5995      6C617900 
 5996              	.LASF96:
 5997 03ef 50574D5F 		.ascii	"PWM_2_Start\000"
ARM GAS  C:\Users\ADMINI~1\AppData\Local\Temp\ccpQE0Fa.s 			page 121


 5997      325F5374 
 5997      61727400 
 5998              	.LASF3:
 5999 03fb 73686F72 		.ascii	"short int\000"
 5999      7420696E 
 5999      7400
 6000              	.LASF53:
 6001 0405 44657369 		.ascii	"Desire_angle_roll\000"
 6001      72655F61 
 6001      6E676C65 
 6001      5F726F6C 
 6001      6C00
 6002              	.LASF5:
 6003 0417 6C6F6E67 		.ascii	"long int\000"
 6003      20696E74 
 6003      00
 6004              	.LASF101:
 6005 0420 4C43445F 		.ascii	"LCD_PrintString\000"
 6005      5072696E 
 6005      74537472 
 6005      696E6700 
 6006              	.LASF113:
 6007 0430 55415254 		.ascii	"UART_JY901_Start\000"
 6007      5F4A5939 
 6007      30315F53 
 6007      74617274 
 6007      00
 6008              	.LASF45:
 6009 0441 49544D5F 		.ascii	"ITM_RxBuffer\000"
 6009      52784275 
 6009      66666572 
 6009      00
 6010              	.LASF36:
 6011 044e 436F6E76 		.ascii	"Convert_Float2String\000"
 6011      6572745F 
 6011      466C6F61 
 6011      74325374 
 6011      72696E67 
 6012              	.LASF79:
 6013 0463 666C6167 		.ascii	"flag\000"
 6013      00
 6014              	.LASF28:
 6015 0468 5365745F 		.ascii	"Set_All_Motors_Speed\000"
 6015      416C6C5F 
 6015      4D6F746F 
 6015      72735F53 
 6015      70656564 
 6016              	.LASF55:
 6017 047d 41636365 		.ascii	"AccelX\000"
 6017      6C5800
 6018              	.LASF56:
 6019 0484 41636365 		.ascii	"AccelY\000"
 6019      6C5900
 6020              	.LASF57:
 6021 048b 41636365 		.ascii	"AccelZ\000"
 6021      6C5A00
 6022              	.LASF47:
ARM GAS  C:\Users\ADMINI~1\AppData\Local\Temp\ccpQE0Fa.s 			page 122


 6023 0492 42545F59 		.ascii	"BT_Yaw\000"
 6023      617700
 6024              	.LASF87:
 6025 0499 666C6F61 		.ascii	"float2int_tmp\000"
 6025      7432696E 
 6025      745F746D 
 6025      7000
 6026              	.LASF104:
 6027 04a7 4C43445F 		.ascii	"LCD_Start\000"
 6027      53746172 
 6027      7400
 6028              	.LASF38:
 6029 04b1 696E745F 		.ascii	"int_part\000"
 6029      70617274 
 6029      00
 6030              	.LASF30:
 6031 04ba 4D6F746F 		.ascii	"Motor_Calibration\000"
 6031      725F4361 
 6031      6C696272 
 6031      6174696F 
 6031      6E00
 6032              	.LASF115:
 6033 04cc 6973725F 		.ascii	"isr_jyRX_StartEx\000"
 6033      6A795258 
 6033      5F537461 
 6033      72744578 
 6033      00
 6034              	.LASF44:
 6035 04dd 76656C6F 		.ascii	"velocity\000"
 6035      63697479 
 6035      00
 6036              	.LASF122:
 6037 04e6 436F6E74 		.ascii	"Control_Func_InitVariable\000"
 6037      726F6C5F 
 6037      46756E63 
 6037      5F496E69 
 6037      74566172 
 6038              	.LASF20:
 6039 0500 73697A65 		.ascii	"sizetype\000"
 6039      74797065 
 6039      00
 6040              	.LASF6:
 6041 0509 6C6F6E67 		.ascii	"long unsigned int\000"
 6041      20756E73 
 6041      69676E65 
 6041      6420696E 
 6041      7400
 6042              	.LASF77:
 6043 051b 42545278 		.ascii	"BTRxBuf\000"
 6043      42756600 
 6044              	.LASF11:
 6045 0523 696E7433 		.ascii	"int32_t\000"
 6045      325F7400 
 6046              	.LASF34:
 6047 052b 4A593930 		.ascii	"JY901_RX_Interrupt_Handler\000"
 6047      315F5258 
 6047      5F496E74 
ARM GAS  C:\Users\ADMINI~1\AppData\Local\Temp\ccpQE0Fa.s 			page 123


 6047      65727275 
 6047      70745F48 
 6048              	.LASF2:
 6049 0546 756E7369 		.ascii	"unsigned char\000"
 6049      676E6564 
 6049      20636861 
 6049      7200
 6050              	.LASF116:
 6051 0554 474E5520 		.ascii	"GNU C 4.9.3 20150303 (release) [ARM/embedded-4_9-br"
 6051      4320342E 
 6051      392E3320 
 6051      32303135 
 6051      30333033 
 6052 0587 616E6368 		.ascii	"anch revision 221220] -mcpu=cortex-m3 -mthumb -g -O"
 6052      20726576 
 6052      6973696F 
 6052      6E203232 
 6052      31323230 
 6053 05ba 67202D66 		.ascii	"g -ffunction-sections -ffat-lto-objects\000"
 6053      66756E63 
 6053      74696F6E 
 6053      2D736563 
 6053      74696F6E 
 6054              	.LASF27:
 6055 05e2 54696D65 		.ascii	"Timer_1_Interrupt_Handler\000"
 6055      725F315F 
 6055      496E7465 
 6055      72727570 
 6055      745F4861 
 6056              	.LASF22:
 6057 05fc 5365745F 		.ascii	"Set_Motor_1_Speed\000"
 6057      4D6F746F 
 6057      725F315F 
 6057      53706565 
 6057      6400
 6058              	.LASF98:
 6059 060e 55415254 		.ascii	"UART_Bluetooth_ReadRxData\000"
 6059      5F426C75 
 6059      65746F6F 
 6059      74685F52 
 6059      65616452 
 6060              	.LASF29:
 6061 0628 496E6974 		.ascii	"Initialize_All_PWM\000"
 6061      69616C69 
 6061      7A655F41 
 6061      6C6C5F50 
 6061      574D00
 6062              	.LASF58:
 6063 063b 4F6D6567 		.ascii	"OmegaX\000"
 6063      615800
 6064              	.LASF59:
 6065 0642 4F6D6567 		.ascii	"OmegaY\000"
 6065      615900
 6066              	.LASF60:
 6067 0649 4F6D6567 		.ascii	"OmegaZ\000"
 6067      615A00
 6068              	.LASF99:
ARM GAS  C:\Users\ADMINI~1\AppData\Local\Temp\ccpQE0Fa.s 			page 124


 6069 0650 55415254 		.ascii	"UART_JY901_ReadRxData\000"
 6069      5F4A5939 
 6069      30315F52 
 6069      65616452 
 6069      78446174 
 6070              	.LASF106:
 6071 0666 54696D65 		.ascii	"Timer_1_Start\000"
 6071      725F315F 
 6071      53746172 
 6071      7400
 6072              	.LASF1:
 6073 0674 7369676E 		.ascii	"signed char\000"
 6073      65642063 
 6073      68617200 
 6074              	.LASF54:
 6075 0680 44657369 		.ascii	"Desire_w_yaw\000"
 6075      72655F77 
 6075      5F796177 
 6075      00
 6076              	.LASF4:
 6077 068d 73686F72 		.ascii	"short unsigned int\000"
 6077      7420756E 
 6077      7369676E 
 6077      65642069 
 6077      6E7400
 6078              	.LASF43:
 6079 06a0 6D61696E 		.ascii	"main\000"
 6079      00
 6080              	.LASF12:
 6081 06a5 75696E74 		.ascii	"uint8\000"
 6081      3800
 6082              	.LASF15:
 6083 06ab 646F7562 		.ascii	"double\000"
 6083      6C6500
 6084              	.LASF93:
 6085 06b2 50574D5F 		.ascii	"PWM_2_WriteCompare1\000"
 6085      325F5772 
 6085      69746543 
 6085      6F6D7061 
 6085      72653100 
 6086              	.LASF94:
 6087 06c6 50574D5F 		.ascii	"PWM_2_WriteCompare2\000"
 6087      325F5772 
 6087      69746543 
 6087      6F6D7061 
 6087      72653200 
 6088              	.LASF25:
 6089 06da 5365745F 		.ascii	"Set_Motor_3_Speed\000"
 6089      4D6F746F 
 6089      725F335F 
 6089      53706565 
 6089      6400
 6090              	.LASF117:
 6091 06ec 2E5C6D61 		.ascii	".\\main.c\000"
 6091      696E2E63 
 6091      00
 6092              	.LASF40:
ARM GAS  C:\Users\ADMINI~1\AppData\Local\Temp\ccpQE0Fa.s 			page 125


 6093 06f5 466C6F61 		.ascii	"Float28Str\000"
 6093      74323853 
 6093      747200
 6094              		.ident	"GCC: (GNU Tools for ARM Embedded Processors) 4.9.3 20150303 (release) [ARM/embedded-4_9-br
