ARM GAS  C:\Users\ADMINI~1\AppData\Local\Temp\ccpQE0Fa.s 			page 1


   1              		.syntax unified
   2              		.cpu cortex-m3
   3              		.fpu softvfp
   4              		.eabi_attribute 20, 1
   5              		.eabi_attribute 21, 1
   6              		.eabi_attribute 23, 3
   7              		.eabi_attribute 24, 1
   8              		.eabi_attribute 25, 1
   9              		.eabi_attribute 26, 1
  10              		.eabi_attribute 30, 1
  11              		.eabi_attribute 34, 1
  12              		.eabi_attribute 18, 4
  13              		.thumb
  14              		.file	"main.c"
  15              		.text
  16              	.Ltext0:
  17              		.cfi_sections	.debug_frame
  18              		.section	.text.Set_Motor_1_Speed,"ax",%progbits
  19              		.align	2
  20              		.global	Set_Motor_1_Speed
  21              		.thumb
  22              		.thumb_func
  23              		.type	Set_Motor_1_Speed, %function
  24              	Set_Motor_1_Speed:
  25              	.LFB63:
  26              		.file 1 ".\\Motors.h"
   1:.\Motors.h    **** /*
   2:.\Motors.h    ****  *     4         3
   3:.\Motors.h    ****  *      \       /
   4:.\Motors.h    ****  *       \     /
   5:.\Motors.h    ****  *        \---/
   6:.\Motors.h    ****  *        |   |
   7:.\Motors.h    ****  *        /---\
   8:.\Motors.h    ****  *       /     \
   9:.\Motors.h    ****  *      / Front \
  10:.\Motors.h    ****  *     1         2
  11:.\Motors.h    ****  */
  12:.\Motors.h    **** 
  13:.\Motors.h    **** #ifndef MOTORS_H_
  14:.\Motors.h    **** #define MOTORS_H_
  15:.\Motors.h    **** 
  16:.\Motors.h    **** #include <project.h>
  17:.\Motors.h    **** 
  18:.\Motors.h    **** //Speed should be between 0 and 1000
  19:.\Motors.h    **** void Set_Motor_1_Speed(int speed) {
  27              		.loc 1 19 0
  28              		.cfi_startproc
  29              		@ args = 0, pretend = 0, frame = 0
  30              		@ frame_needed = 0, uses_anonymous_args = 0
  31              	.LVL0:
  20:.\Motors.h    ****     if(speed < 0 || speed > 1000)
  32              		.loc 1 20 0
  33 0000 B0F57A7F 		cmp	r0, #1000
  34 0004 06D8     		bhi	.L4
  19:.\Motors.h    ****     if(speed < 0 || speed > 1000)
  35              		.loc 1 19 0
  36 0006 08B5     		push	{r3, lr}
ARM GAS  C:\Users\ADMINI~1\AppData\Local\Temp\ccpQE0Fa.s 			page 2


  37              		.cfi_def_cfa_offset 8
  38              		.cfi_offset 3, -8
  39              		.cfi_offset 14, -4
  21:.\Motors.h    ****         return;
  22:.\Motors.h    ****     PWM_1_WriteCompare1(999 + speed);
  40              		.loc 1 22 0
  41 0008 00F2E730 		addw	r0, r0, #999
  42              	.LVL1:
  43 000c 80B2     		uxth	r0, r0
  44              	.LVL2:
  45 000e FFF7FEFF 		bl	PWM_1_WriteCompare1
  46              	.LVL3:
  47 0012 08BD     		pop	{r3, pc}
  48              	.LVL4:
  49              	.L4:
  50              		.cfi_def_cfa_offset 0
  51              		.cfi_restore 3
  52              		.cfi_restore 14
  53 0014 7047     		bx	lr
  54              		.cfi_endproc
  55              	.LFE63:
  56              		.size	Set_Motor_1_Speed, .-Set_Motor_1_Speed
  57 0016 00BF     		.section	.text.Set_Motor_2_Speed,"ax",%progbits
  58              		.align	2
  59              		.global	Set_Motor_2_Speed
  60              		.thumb
  61              		.thumb_func
  62              		.type	Set_Motor_2_Speed, %function
  63              	Set_Motor_2_Speed:
  64              	.LFB64:
  23:.\Motors.h    **** }
  24:.\Motors.h    **** 
  25:.\Motors.h    **** void Set_Motor_2_Speed(int speed) {
  65              		.loc 1 25 0
  66              		.cfi_startproc
  67              		@ args = 0, pretend = 0, frame = 0
  68              		@ frame_needed = 0, uses_anonymous_args = 0
  69              	.LVL5:
  26:.\Motors.h    ****     if(speed < 0 || speed > 1000)
  70              		.loc 1 26 0
  71 0000 B0F57A7F 		cmp	r0, #1000
  72 0004 06D8     		bhi	.L8
  25:.\Motors.h    ****     if(speed < 0 || speed > 1000)
  73              		.loc 1 25 0
  74 0006 08B5     		push	{r3, lr}
  75              		.cfi_def_cfa_offset 8
  76              		.cfi_offset 3, -8
  77              		.cfi_offset 14, -4
  27:.\Motors.h    ****         return;
  28:.\Motors.h    ****     PWM_1_WriteCompare2(999 + speed);
  78              		.loc 1 28 0
  79 0008 00F2E730 		addw	r0, r0, #999
  80              	.LVL6:
  81 000c 80B2     		uxth	r0, r0
  82              	.LVL7:
  83 000e FFF7FEFF 		bl	PWM_1_WriteCompare2
  84              	.LVL8:
ARM GAS  C:\Users\ADMINI~1\AppData\Local\Temp\ccpQE0Fa.s 			page 3


  85 0012 08BD     		pop	{r3, pc}
  86              	.LVL9:
  87              	.L8:
  88              		.cfi_def_cfa_offset 0
  89              		.cfi_restore 3
  90              		.cfi_restore 14
  91 0014 7047     		bx	lr
  92              		.cfi_endproc
  93              	.LFE64:
  94              		.size	Set_Motor_2_Speed, .-Set_Motor_2_Speed
  95 0016 00BF     		.section	.text.Set_Motor_3_Speed,"ax",%progbits
  96              		.align	2
  97              		.global	Set_Motor_3_Speed
  98              		.thumb
  99              		.thumb_func
 100              		.type	Set_Motor_3_Speed, %function
 101              	Set_Motor_3_Speed:
 102              	.LFB65:
  29:.\Motors.h    **** }
  30:.\Motors.h    **** 
  31:.\Motors.h    **** void Set_Motor_3_Speed(int speed) {
 103              		.loc 1 31 0
 104              		.cfi_startproc
 105              		@ args = 0, pretend = 0, frame = 0
 106              		@ frame_needed = 0, uses_anonymous_args = 0
 107              	.LVL10:
  32:.\Motors.h    ****     if(speed < 0 || speed > 1000)
 108              		.loc 1 32 0
 109 0000 B0F57A7F 		cmp	r0, #1000
 110 0004 06D8     		bhi	.L12
  31:.\Motors.h    ****     if(speed < 0 || speed > 1000)
 111              		.loc 1 31 0
 112 0006 08B5     		push	{r3, lr}
 113              		.cfi_def_cfa_offset 8
 114              		.cfi_offset 3, -8
 115              		.cfi_offset 14, -4
  33:.\Motors.h    ****         return;
  34:.\Motors.h    ****     PWM_2_WriteCompare1(999 + speed);
 116              		.loc 1 34 0
 117 0008 00F2E730 		addw	r0, r0, #999
 118              	.LVL11:
 119 000c 80B2     		uxth	r0, r0
 120              	.LVL12:
 121 000e FFF7FEFF 		bl	PWM_2_WriteCompare1
 122              	.LVL13:
 123 0012 08BD     		pop	{r3, pc}
 124              	.LVL14:
 125              	.L12:
 126              		.cfi_def_cfa_offset 0
 127              		.cfi_restore 3
 128              		.cfi_restore 14
 129 0014 7047     		bx	lr
 130              		.cfi_endproc
 131              	.LFE65:
 132              		.size	Set_Motor_3_Speed, .-Set_Motor_3_Speed
 133 0016 00BF     		.section	.text.Set_Motor_4_Speed,"ax",%progbits
 134              		.align	2
ARM GAS  C:\Users\ADMINI~1\AppData\Local\Temp\ccpQE0Fa.s 			page 4


 135              		.global	Set_Motor_4_Speed
 136              		.thumb
 137              		.thumb_func
 138              		.type	Set_Motor_4_Speed, %function
 139              	Set_Motor_4_Speed:
 140              	.LFB66:
  35:.\Motors.h    **** }
  36:.\Motors.h    **** 
  37:.\Motors.h    **** void Set_Motor_4_Speed(int speed) {
 141              		.loc 1 37 0
 142              		.cfi_startproc
 143              		@ args = 0, pretend = 0, frame = 0
 144              		@ frame_needed = 0, uses_anonymous_args = 0
 145              	.LVL15:
  38:.\Motors.h    ****     if(speed < 0 || speed > 1000)
 146              		.loc 1 38 0
 147 0000 B0F57A7F 		cmp	r0, #1000
 148 0004 06D8     		bhi	.L16
  37:.\Motors.h    ****     if(speed < 0 || speed > 1000)
 149              		.loc 1 37 0
 150 0006 08B5     		push	{r3, lr}
 151              		.cfi_def_cfa_offset 8
 152              		.cfi_offset 3, -8
 153              		.cfi_offset 14, -4
  39:.\Motors.h    ****         return;
  40:.\Motors.h    ****     PWM_2_WriteCompare2(999 + speed);
 154              		.loc 1 40 0
 155 0008 00F2E730 		addw	r0, r0, #999
 156              	.LVL16:
 157 000c 80B2     		uxth	r0, r0
 158              	.LVL17:
 159 000e FFF7FEFF 		bl	PWM_2_WriteCompare2
 160              	.LVL18:
 161 0012 08BD     		pop	{r3, pc}
 162              	.LVL19:
 163              	.L16:
 164              		.cfi_def_cfa_offset 0
 165              		.cfi_restore 3
 166              		.cfi_restore 14
 167 0014 7047     		bx	lr
 168              		.cfi_endproc
 169              	.LFE66:
 170              		.size	Set_Motor_4_Speed, .-Set_Motor_4_Speed
 171 0016 00BF     		.section	.text.Timer_1_Interrupt_Handler,"ax",%progbits
 172              		.align	2
 173              		.global	Timer_1_Interrupt_Handler
 174              		.thumb
 175              		.thumb_func
 176              		.type	Timer_1_Interrupt_Handler, %function
 177              	Timer_1_Interrupt_Handler:
 178              	.LFB75:
 179              		.file 2 ".\\main.c"
   1:.\main.c      **** /* ========================================
   2:.\main.c      ****  *
   3:.\main.c      ****  * Copyright YOUR COMPANY, THE YEAR
   4:.\main.c      ****  * All Rights Reserved
   5:.\main.c      ****  * UNPUBLISHED, LICENSED SOFTWARE.
ARM GAS  C:\Users\ADMINI~1\AppData\Local\Temp\ccpQE0Fa.s 			page 5


   6:.\main.c      ****  *
   7:.\main.c      ****  * CONFIDENTIAL AND PROPRIETARY INFORMATION
   8:.\main.c      ****  * WHICH IS THE PROPERTY OF your company.
   9:.\main.c      ****  *
  10:.\main.c      ****  * ========================================
  11:.\main.c      **** */
  12:.\main.c      **** #include <project.h>
  13:.\main.c      **** #include "Motors.h"
  14:.\main.c      **** #include "BlueTooth.h"
  15:.\main.c      **** #include "Control.h"
  16:.\main.c      **** #include <stdio.h>
  17:.\main.c      **** #include "math.h"
  18:.\main.c      **** #include "JY901.h"
  19:.\main.c      **** 
  20:.\main.c      **** //LCD显示
  21:.\main.c      **** void LCD_Disp(char *str, unsigned char row, unsigned char col) {
  22:.\main.c      ****     LCD_Position(row, col);
  23:.\main.c      ****     LCD_PrintString(str);
  24:.\main.c      **** }
  25:.\main.c      **** 
  26:.\main.c      **** #ifndef ABS
  27:.\main.c      ****     #define ABS(x) (((x)>0)?(x):(-(x)))
  28:.\main.c      **** #endif
  29:.\main.c      **** //小数显示（不知道为什么sprintf不能用%f）
  30:.\main.c      **** void Convert_Float2String(char *str, float x) {
  31:.\main.c      ****     uint8 symbol = (x > 0.0) ? 1 : 0;
  32:.\main.c      ****     float num = ABS(x);
  33:.\main.c      ****     int int_part = (int)num;
  34:.\main.c      ****     int float_2part = (int)((num - int_part)*100.0); //取两位小数
  35:.\main.c      ****     if(float_2part >= 10)
  36:.\main.c      ****         sprintf(str, "%c%d.%d", (symbol == 1)?'+':'-', int_part, float_2part);
  37:.\main.c      ****     else
  38:.\main.c      ****         if(float_2part > 0)
  39:.\main.c      ****             sprintf(str, "%c%d.0%d", (symbol == 1)?'+':'-', int_part, float_2part);
  40:.\main.c      ****         else
  41:.\main.c      ****             sprintf(str, "%c%d.00", (symbol == 1)?'+':'-', int_part);
  42:.\main.c      **** }
  43:.\main.c      **** 
  44:.\main.c      **** //电机速度控制
  45:.\main.c      **** volatile int Motor_v_1, Motor_v_2,  Motor_v_3,  Motor_v_4;
  46:.\main.c      **** int last_Motor_v_1, last_Motor_v_2, last_Motor_v_3, last_Motor_v_4;
  47:.\main.c      **** 
  48:.\main.c      **** CY_ISR(Timer_1_Interrupt_Handler) {
 180              		.loc 2 48 0
 181              		.cfi_startproc
 182              		@ args = 0, pretend = 0, frame = 0
 183              		@ frame_needed = 0, uses_anonymous_args = 0
 184 0000 10B5     		push	{r4, lr}
 185              		.cfi_def_cfa_offset 8
 186              		.cfi_offset 4, -8
 187              		.cfi_offset 14, -4
  49:.\main.c      ****     Timer_1_STATUS;
 188              		.loc 2 49 0
 189 0002 214B     		ldr	r3, .L27
 190 0004 1B78     		ldrb	r3, [r3]	@ zero_extendqisi2
  50:.\main.c      ****     if(Motor_v_1 != last_Motor_v_1 || Motor_v_1 == 0) {
 191              		.loc 2 50 0
ARM GAS  C:\Users\ADMINI~1\AppData\Local\Temp\ccpQE0Fa.s 			page 6


 192 0006 214B     		ldr	r3, .L27+4
 193 0008 1A68     		ldr	r2, [r3]
 194 000a 214B     		ldr	r3, .L27+8
 195 000c 1B68     		ldr	r3, [r3]
 196 000e 9A42     		cmp	r2, r3
 197 0010 02D1     		bne	.L18
 198              		.loc 2 50 0 is_stmt 0 discriminator 1
 199 0012 1E4B     		ldr	r3, .L27+4
 200 0014 1B68     		ldr	r3, [r3]
 201 0016 33B9     		cbnz	r3, .L19
 202              	.L18:
  51:.\main.c      ****         Set_Motor_1_Speed(Motor_v_1);
 203              		.loc 2 51 0 is_stmt 1
 204 0018 1C4C     		ldr	r4, .L27+4
 205 001a 2068     		ldr	r0, [r4]
 206 001c FFF7FEFF 		bl	Set_Motor_1_Speed
 207              	.LVL20:
  52:.\main.c      ****         last_Motor_v_1 = Motor_v_1;
 208              		.loc 2 52 0
 209 0020 2268     		ldr	r2, [r4]
 210 0022 1B4B     		ldr	r3, .L27+8
 211 0024 1A60     		str	r2, [r3]
 212              	.L19:
  53:.\main.c      ****     }
  54:.\main.c      ****     if(Motor_v_2 != last_Motor_v_2 || Motor_v_2 == 0) {
 213              		.loc 2 54 0
 214 0026 1B4B     		ldr	r3, .L27+12
 215 0028 1A68     		ldr	r2, [r3]
 216 002a 1B4B     		ldr	r3, .L27+16
 217 002c 1B68     		ldr	r3, [r3]
 218 002e 9A42     		cmp	r2, r3
 219 0030 02D1     		bne	.L20
 220              		.loc 2 54 0 is_stmt 0 discriminator 1
 221 0032 184B     		ldr	r3, .L27+12
 222 0034 1B68     		ldr	r3, [r3]
 223 0036 33B9     		cbnz	r3, .L21
 224              	.L20:
  55:.\main.c      ****         Set_Motor_2_Speed(Motor_v_2);
 225              		.loc 2 55 0 is_stmt 1
 226 0038 164C     		ldr	r4, .L27+12
 227 003a 2068     		ldr	r0, [r4]
 228 003c FFF7FEFF 		bl	Set_Motor_2_Speed
 229              	.LVL21:
  56:.\main.c      ****         last_Motor_v_2 = Motor_v_2;
 230              		.loc 2 56 0
 231 0040 2268     		ldr	r2, [r4]
 232 0042 154B     		ldr	r3, .L27+16
 233 0044 1A60     		str	r2, [r3]
 234              	.L21:
  57:.\main.c      ****     }
  58:.\main.c      ****     if(Motor_v_3 != last_Motor_v_3 || Motor_v_3 == 0) {
 235              		.loc 2 58 0
 236 0046 154B     		ldr	r3, .L27+20
 237 0048 1A68     		ldr	r2, [r3]
 238 004a 154B     		ldr	r3, .L27+24
 239 004c 1B68     		ldr	r3, [r3]
 240 004e 9A42     		cmp	r2, r3
ARM GAS  C:\Users\ADMINI~1\AppData\Local\Temp\ccpQE0Fa.s 			page 7


 241 0050 02D1     		bne	.L22
 242              		.loc 2 58 0 is_stmt 0 discriminator 1
 243 0052 124B     		ldr	r3, .L27+20
 244 0054 1B68     		ldr	r3, [r3]
 245 0056 33B9     		cbnz	r3, .L23
 246              	.L22:
  59:.\main.c      ****         Set_Motor_3_Speed(Motor_v_3);
 247              		.loc 2 59 0 is_stmt 1
 248 0058 104C     		ldr	r4, .L27+20
 249 005a 2068     		ldr	r0, [r4]
 250 005c FFF7FEFF 		bl	Set_Motor_3_Speed
 251              	.LVL22:
  60:.\main.c      ****         last_Motor_v_3 = Motor_v_3;
 252              		.loc 2 60 0
 253 0060 2268     		ldr	r2, [r4]
 254 0062 0F4B     		ldr	r3, .L27+24
 255 0064 1A60     		str	r2, [r3]
 256              	.L23:
  61:.\main.c      ****     }
  62:.\main.c      ****     if(Motor_v_4 != last_Motor_v_4 || Motor_v_4 == 0) {
 257              		.loc 2 62 0
 258 0066 0F4B     		ldr	r3, .L27+28
 259 0068 1A68     		ldr	r2, [r3]
 260 006a 0F4B     		ldr	r3, .L27+32
 261 006c 1B68     		ldr	r3, [r3]
 262 006e 9A42     		cmp	r2, r3
 263 0070 02D1     		bne	.L24
 264              		.loc 2 62 0 is_stmt 0 discriminator 1
 265 0072 0C4B     		ldr	r3, .L27+28
 266 0074 1B68     		ldr	r3, [r3]
 267 0076 33B9     		cbnz	r3, .L17
 268              	.L24:
  63:.\main.c      ****         Set_Motor_4_Speed(Motor_v_4);
 269              		.loc 2 63 0 is_stmt 1
 270 0078 0A4C     		ldr	r4, .L27+28
 271 007a 2068     		ldr	r0, [r4]
 272 007c FFF7FEFF 		bl	Set_Motor_4_Speed
 273              	.LVL23:
  64:.\main.c      ****         last_Motor_v_4 = Motor_v_4;
 274              		.loc 2 64 0
 275 0080 2268     		ldr	r2, [r4]
 276 0082 094B     		ldr	r3, .L27+32
 277 0084 1A60     		str	r2, [r3]
 278              	.L17:
 279 0086 10BD     		pop	{r4, pc}
 280              	.L28:
 281              		.align	2
 282              	.L27:
 283 0088 65650040 		.word	1073767781
 284 008c 00000000 		.word	Motor_v_1
 285 0090 00000000 		.word	last_Motor_v_1
 286 0094 00000000 		.word	Motor_v_2
 287 0098 00000000 		.word	last_Motor_v_2
 288 009c 00000000 		.word	Motor_v_3
 289 00a0 00000000 		.word	last_Motor_v_3
 290 00a4 00000000 		.word	Motor_v_4
 291 00a8 00000000 		.word	last_Motor_v_4
ARM GAS  C:\Users\ADMINI~1\AppData\Local\Temp\ccpQE0Fa.s 			page 8


 292              		.cfi_endproc
 293              	.LFE75:
 294              		.size	Timer_1_Interrupt_Handler, .-Timer_1_Interrupt_Handler
 295              		.section	.text.Set_All_Motors_Speed,"ax",%progbits
 296              		.align	2
 297              		.global	Set_All_Motors_Speed
 298              		.thumb
 299              		.thumb_func
 300              		.type	Set_All_Motors_Speed, %function
 301              	Set_All_Motors_Speed:
 302              	.LFB67:
  41:.\Motors.h    **** }
  42:.\Motors.h    **** 
  43:.\Motors.h    **** void Set_All_Motors_Speed(int p1, int p2, int p3, int p4) {
 303              		.loc 1 43 0
 304              		.cfi_startproc
 305              		@ args = 0, pretend = 0, frame = 0
 306              		@ frame_needed = 0, uses_anonymous_args = 0
 307              	.LVL24:
 308 0000 70B5     		push	{r4, r5, r6, lr}
 309              		.cfi_def_cfa_offset 16
 310              		.cfi_offset 4, -16
 311              		.cfi_offset 5, -12
 312              		.cfi_offset 6, -8
 313              		.cfi_offset 14, -4
 314 0002 0E46     		mov	r6, r1
 315 0004 1546     		mov	r5, r2
 316 0006 1C46     		mov	r4, r3
  44:.\Motors.h    ****     Set_Motor_1_Speed(p1);
 317              		.loc 1 44 0
 318 0008 FFF7FEFF 		bl	Set_Motor_1_Speed
 319              	.LVL25:
  45:.\Motors.h    ****     Set_Motor_2_Speed(p2);
 320              		.loc 1 45 0
 321 000c 3046     		mov	r0, r6
 322 000e FFF7FEFF 		bl	Set_Motor_2_Speed
 323              	.LVL26:
  46:.\Motors.h    ****     Set_Motor_3_Speed(p3);
 324              		.loc 1 46 0
 325 0012 2846     		mov	r0, r5
 326 0014 FFF7FEFF 		bl	Set_Motor_3_Speed
 327              	.LVL27:
  47:.\Motors.h    ****     Set_Motor_4_Speed(p4);
 328              		.loc 1 47 0
 329 0018 2046     		mov	r0, r4
 330 001a FFF7FEFF 		bl	Set_Motor_4_Speed
 331              	.LVL28:
 332 001e 70BD     		pop	{r4, r5, r6, pc}
 333              		.cfi_endproc
 334              	.LFE67:
 335              		.size	Set_All_Motors_Speed, .-Set_All_Motors_Speed
 336              		.section	.text.Initialize_All_PWM,"ax",%progbits
 337              		.align	2
 338              		.global	Initialize_All_PWM
 339              		.thumb
 340              		.thumb_func
 341              		.type	Initialize_All_PWM, %function
ARM GAS  C:\Users\ADMINI~1\AppData\Local\Temp\ccpQE0Fa.s 			page 9


 342              	Initialize_All_PWM:
 343              	.LFB68:
  48:.\Motors.h    **** }
  49:.\Motors.h    **** 
  50:.\Motors.h    **** void Initialize_All_PWM() {
 344              		.loc 1 50 0
 345              		.cfi_startproc
 346              		@ args = 0, pretend = 0, frame = 0
 347              		@ frame_needed = 0, uses_anonymous_args = 0
 348 0000 08B5     		push	{r3, lr}
 349              		.cfi_def_cfa_offset 8
 350              		.cfi_offset 3, -8
 351              		.cfi_offset 14, -4
  51:.\Motors.h    ****     PWM_1_Start();
 352              		.loc 1 51 0
 353 0002 FFF7FEFF 		bl	PWM_1_Start
 354              	.LVL29:
  52:.\Motors.h    ****     PWM_2_Start();
 355              		.loc 1 52 0
 356 0006 FFF7FEFF 		bl	PWM_2_Start
 357              	.LVL30:
  53:.\Motors.h    ****     PWM_1_WriteCompare1(0);
 358              		.loc 1 53 0
 359 000a 0020     		movs	r0, #0
 360 000c FFF7FEFF 		bl	PWM_1_WriteCompare1
 361              	.LVL31:
  54:.\Motors.h    ****     PWM_1_WriteCompare2(0);
 362              		.loc 1 54 0
 363 0010 0020     		movs	r0, #0
 364 0012 FFF7FEFF 		bl	PWM_1_WriteCompare2
 365              	.LVL32:
  55:.\Motors.h    ****     PWM_2_WriteCompare1(0);
 366              		.loc 1 55 0
 367 0016 0020     		movs	r0, #0
 368 0018 FFF7FEFF 		bl	PWM_2_WriteCompare1
 369              	.LVL33:
  56:.\Motors.h    ****     PWM_2_WriteCompare2(0);
 370              		.loc 1 56 0
 371 001c 0020     		movs	r0, #0
 372 001e FFF7FEFF 		bl	PWM_2_WriteCompare2
 373              	.LVL34:
 374 0022 08BD     		pop	{r3, pc}
 375              		.cfi_endproc
 376              	.LFE68:
 377              		.size	Initialize_All_PWM, .-Initialize_All_PWM
 378              		.section	.text.Motor_Calibration,"ax",%progbits
 379              		.align	2
 380              		.global	Motor_Calibration
 381              		.thumb
 382              		.thumb_func
 383              		.type	Motor_Calibration, %function
 384              	Motor_Calibration:
 385              	.LFB69:
  57:.\Motors.h    **** }
  58:.\Motors.h    **** 
  59:.\Motors.h    **** void Motor_Calibration() {
 386              		.loc 1 59 0
ARM GAS  C:\Users\ADMINI~1\AppData\Local\Temp\ccpQE0Fa.s 			page 10


 387              		.cfi_startproc
 388              		@ args = 0, pretend = 0, frame = 0
 389              		@ frame_needed = 0, uses_anonymous_args = 0
 390 0000 08B5     		push	{r3, lr}
 391              		.cfi_def_cfa_offset 8
 392              		.cfi_offset 3, -8
 393              		.cfi_offset 14, -4
  60:.\Motors.h    ****     Set_Motor_1_Speed(1000);
 394              		.loc 1 60 0
 395 0002 4FF47A70 		mov	r0, #1000
 396 0006 FFF7FEFF 		bl	Set_Motor_1_Speed
 397              	.LVL35:
  61:.\Motors.h    ****     Set_Motor_2_Speed(1000);
 398              		.loc 1 61 0
 399 000a 4FF47A70 		mov	r0, #1000
 400 000e FFF7FEFF 		bl	Set_Motor_2_Speed
 401              	.LVL36:
  62:.\Motors.h    ****     Set_Motor_3_Speed(1000);
 402              		.loc 1 62 0
 403 0012 4FF47A70 		mov	r0, #1000
 404 0016 FFF7FEFF 		bl	Set_Motor_3_Speed
 405              	.LVL37:
  63:.\Motors.h    ****     Set_Motor_4_Speed(1000);
 406              		.loc 1 63 0
 407 001a 4FF47A70 		mov	r0, #1000
 408 001e FFF7FEFF 		bl	Set_Motor_4_Speed
 409              	.LVL38:
  64:.\Motors.h    ****     CyDelay(2000);
 410              		.loc 1 64 0
 411 0022 4FF4FA60 		mov	r0, #2000
 412 0026 FFF7FEFF 		bl	CyDelay
 413              	.LVL39:
  65:.\Motors.h    ****     Set_Motor_1_Speed(0);
 414              		.loc 1 65 0
 415 002a 0020     		movs	r0, #0
 416 002c FFF7FEFF 		bl	Set_Motor_1_Speed
 417              	.LVL40:
  66:.\Motors.h    ****     Set_Motor_2_Speed(0);
 418              		.loc 1 66 0
 419 0030 0020     		movs	r0, #0
 420 0032 FFF7FEFF 		bl	Set_Motor_2_Speed
 421              	.LVL41:
  67:.\Motors.h    ****     Set_Motor_3_Speed(0);
 422              		.loc 1 67 0
 423 0036 0020     		movs	r0, #0
 424 0038 FFF7FEFF 		bl	Set_Motor_3_Speed
 425              	.LVL42:
  68:.\Motors.h    ****     Set_Motor_4_Speed(0);
 426              		.loc 1 68 0
 427 003c 0020     		movs	r0, #0
 428 003e FFF7FEFF 		bl	Set_Motor_4_Speed
 429              	.LVL43:
  69:.\Motors.h    ****     CyDelay(1000);
 430              		.loc 1 69 0
 431 0042 4FF47A70 		mov	r0, #1000
 432 0046 FFF7FEFF 		bl	CyDelay
 433              	.LVL44:
ARM GAS  C:\Users\ADMINI~1\AppData\Local\Temp\ccpQE0Fa.s 			page 11


 434 004a 08BD     		pop	{r3, pc}
 435              		.cfi_endproc
 436              	.LFE69:
 437              		.size	Motor_Calibration, .-Motor_Calibration
 438              		.global	__aeabi_i2d
 439              		.global	__aeabi_ddiv
 440              		.global	__aeabi_d2f
 441              		.global	__aeabi_i2f
 442              		.global	__aeabi_f2d
 443              		.global	__aeabi_dsub
 444              		.global	__aeabi_dmul
 445              		.section	.text.Process_Bluetooth_Message,"ax",%progbits
 446              		.align	2
 447              		.global	Process_Bluetooth_Message
 448              		.thumb
 449              		.thumb_func
 450              		.type	Process_Bluetooth_Message, %function
 451              	Process_Bluetooth_Message:
 452              	.LFB70:
 453              		.file 3 ".\\BlueTooth.h"
   1:.\BlueTooth.h **** #ifndef BLUETOOTH_H_
   2:.\BlueTooth.h **** #define BLUETOOTh_H_
   3:.\BlueTooth.h ****     
   4:.\BlueTooth.h **** #include <project.h>
   5:.\BlueTooth.h **** #include "Motors.h"
   6:.\BlueTooth.h **** #include <stdio.h>
   7:.\BlueTooth.h **** #include <string.h>
   8:.\BlueTooth.h ****     
   9:.\BlueTooth.h **** volatile int BT_Throttle = 0, BT_Yaw = 0, BT_Pitch = 0, BT_Roll = 0;
  10:.\BlueTooth.h **** volatile float roll_angle_offset, pitch_angle_offset;
  11:.\BlueTooth.h **** volatile float Desire_angle_pitch, Desire_angle_roll, Desire_w_yaw;
  12:.\BlueTooth.h ****     
  13:.\BlueTooth.h **** void Process_Bluetooth_Message(uint8 buf[], uint8 buflen) {
 454              		.loc 3 13 0
 455              		.cfi_startproc
 456              		@ args = 0, pretend = 0, frame = 0
 457              		@ frame_needed = 0, uses_anonymous_args = 0
 458              	.LVL45:
 459 0000 38B5     		push	{r3, r4, r5, lr}
 460              		.cfi_def_cfa_offset 16
 461              		.cfi_offset 3, -16
 462              		.cfi_offset 4, -12
 463              		.cfi_offset 5, -8
 464              		.cfi_offset 14, -4
 465              	.LVL46:
  14:.\BlueTooth.h ****     int sum = 0;
  15:.\BlueTooth.h ****     int j;
  16:.\BlueTooth.h ****     for(j = 0; j < 13; j++) //利用校验位进行校验
 466              		.loc 3 16 0
 467 0002 0023     		movs	r3, #0
  14:.\BlueTooth.h ****     int sum = 0;
 468              		.loc 3 14 0
 469 0004 1A46     		mov	r2, r3
 470              		.loc 3 16 0
 471 0006 02E0     		b	.L36
 472              	.LVL47:
 473              	.L37:
ARM GAS  C:\Users\ADMINI~1\AppData\Local\Temp\ccpQE0Fa.s 			page 12


  17:.\BlueTooth.h ****         sum += buf[j];
 474              		.loc 3 17 0 discriminator 3
 475 0008 C15C     		ldrb	r1, [r0, r3]	@ zero_extendqisi2
 476 000a 0A44     		add	r2, r2, r1
 477              	.LVL48:
  16:.\BlueTooth.h ****         sum += buf[j];
 478              		.loc 3 16 0 discriminator 3
 479 000c 0133     		adds	r3, r3, #1
 480              	.LVL49:
 481              	.L36:
  16:.\BlueTooth.h ****         sum += buf[j];
 482              		.loc 3 16 0 is_stmt 0 discriminator 1
 483 000e 0C2B     		cmp	r3, #12
 484 0010 FADD     		ble	.L37
  18:.\BlueTooth.h ****     if((sum & 0x00ff) != buf[14]) //如果校验失败则直接退出
 485              		.loc 3 18 0 is_stmt 1
 486 0012 D2B2     		uxtb	r2, r2
 487              	.LVL50:
 488 0014 837B     		ldrb	r3, [r0, #14]	@ zero_extendqisi2
 489              	.LVL51:
 490 0016 9A42     		cmp	r2, r3
 491 0018 7BD1     		bne	.L35
 492 001a 0446     		mov	r4, r0
  19:.\BlueTooth.h ****         return;
  20:.\BlueTooth.h ****     
  21:.\BlueTooth.h ****     //通过蓝牙获得的遥控器控制量
  22:.\BlueTooth.h ****     BT_Throttle = (int)buf[2] + ((int)buf[3] << 8);       //油门大小，0-1024
 493              		.loc 3 22 0
 494 001c 8378     		ldrb	r3, [r0, #2]	@ zero_extendqisi2
 495 001e C278     		ldrb	r2, [r0, #3]	@ zero_extendqisi2
 496 0020 03EB0223 		add	r3, r3, r2, lsl #8
 497 0024 3E4D     		ldr	r5, .L40+8
 498 0026 2B60     		str	r3, [r5]
  23:.\BlueTooth.h ****     BT_Yaw = (int)buf[4] + ((int)buf[5] << 8);            //目标偏航角，0-1024
 499              		.loc 3 23 0
 500 0028 0379     		ldrb	r3, [r0, #4]	@ zero_extendqisi2
 501 002a 4279     		ldrb	r2, [r0, #5]	@ zero_extendqisi2
 502 002c 03EB0223 		add	r3, r3, r2, lsl #8
 503 0030 6B60     		str	r3, [r5, #4]
  24:.\BlueTooth.h ****     BT_Roll = 1024 - ((int)buf[6] + ((int)buf[7] << 8));  //目标滚转角，0-1024
 504              		.loc 3 24 0
 505 0032 8379     		ldrb	r3, [r0, #6]	@ zero_extendqisi2
 506 0034 C279     		ldrb	r2, [r0, #7]	@ zero_extendqisi2
 507 0036 03EB0223 		add	r3, r3, r2, lsl #8
 508 003a C3F58063 		rsb	r3, r3, #1024
 509 003e AB60     		str	r3, [r5, #8]
  25:.\BlueTooth.h ****     BT_Pitch = 1024 - ((int)buf[8] + ((int)buf[9] << 8)); //目标俯仰角，0-1024
 510              		.loc 3 25 0
 511 0040 037A     		ldrb	r3, [r0, #8]	@ zero_extendqisi2
 512 0042 427A     		ldrb	r2, [r0, #9]	@ zero_extendqisi2
 513 0044 03EB0223 		add	r3, r3, r2, lsl #8
 514 0048 C3F58063 		rsb	r3, r3, #1024
 515 004c EB60     		str	r3, [r5, #12]
  26:.\BlueTooth.h ****     roll_angle_offset = (buf[12] - 120) / 15.01;          //滚转角偏置
 516              		.loc 3 26 0
 517 004e 007B     		ldrb	r0, [r0, #12]	@ zero_extendqisi2
 518              	.LVL52:
ARM GAS  C:\Users\ADMINI~1\AppData\Local\Temp\ccpQE0Fa.s 			page 13


 519 0050 7838     		subs	r0, r0, #120
 520 0052 FFF7FEFF 		bl	__aeabi_i2d
 521              	.LVL53:
 522 0056 30A3     		adr	r3, .L40
 523 0058 D3E90023 		ldrd	r2, [r3]
 524 005c FFF7FEFF 		bl	__aeabi_ddiv
 525              	.LVL54:
 526 0060 FFF7FEFF 		bl	__aeabi_d2f
 527              	.LVL55:
 528 0064 2F4B     		ldr	r3, .L40+12
 529 0066 1860     		str	r0, [r3]	@ float
  27:.\BlueTooth.h ****     pitch_angle_offset = -(buf[11] - 120) / 15.01;        //俯仰角偏置
 530              		.loc 3 27 0
 531 0068 E07A     		ldrb	r0, [r4, #11]	@ zero_extendqisi2
 532 006a C0F17800 		rsb	r0, r0, #120
 533 006e FFF7FEFF 		bl	__aeabi_i2d
 534              	.LVL56:
 535 0072 29A3     		adr	r3, .L40
 536 0074 D3E90023 		ldrd	r2, [r3]
 537 0078 FFF7FEFF 		bl	__aeabi_ddiv
 538              	.LVL57:
 539 007c FFF7FEFF 		bl	__aeabi_d2f
 540              	.LVL58:
 541 0080 294B     		ldr	r3, .L40+16
 542 0082 1860     		str	r0, [r3]	@ float
  28:.\BlueTooth.h ****     
  29:.\BlueTooth.h ****     /*LCD_Position(1, 8);
  30:.\BlueTooth.h ****     LCD_PrintDecUint16(BT_Throttle);*/
  31:.\BlueTooth.h ****     
  32:.\BlueTooth.h ****     /*
  33:.\BlueTooth.h ****     //设定油门大小
  34:.\BlueTooth.h ****     set_speed_1 = BT_Throttle * 900 / 1024;
  35:.\BlueTooth.h ****     set_speed_2 = BT_Throttle * 900 / 1024;
  36:.\BlueTooth.h ****     set_speed_3 = BT_Throttle * 900 / 1024;
  37:.\BlueTooth.h ****     set_speed_4 = BT_Throttle * 900 / 1024;
  38:.\BlueTooth.h ****     */
  39:.\BlueTooth.h ****     
  40:.\BlueTooth.h ****     //遥控器控制的偏转（设定期望角度数据），上限角度30度，角速度40rad/s
  41:.\BlueTooth.h ****     Desire_angle_pitch = -((float)BT_Pitch - 512.0) * 30.0 / 512.0;
 543              		.loc 3 41 0
 544 0084 E868     		ldr	r0, [r5, #12]
 545 0086 FFF7FEFF 		bl	__aeabi_i2f
 546              	.LVL59:
 547 008a FFF7FEFF 		bl	__aeabi_f2d
 548              	.LVL60:
 549 008e 0022     		movs	r2, #0
 550 0090 4FF08143 		mov	r3, #1082130432
 551 0094 FFF7FEFF 		bl	__aeabi_dsub
 552              	.LVL61:
 553 0098 0246     		mov	r2, r0
 554 009a 0B46     		mov	r3, r1
 555 009c 1046     		mov	r0, r2
 556 009e 03F10041 		add	r1, r3, #-2147483648
 557 00a2 0022     		movs	r2, #0
 558 00a4 214B     		ldr	r3, .L40+20
 559 00a6 FFF7FEFF 		bl	__aeabi_dmul
 560              	.LVL62:
ARM GAS  C:\Users\ADMINI~1\AppData\Local\Temp\ccpQE0Fa.s 			page 14


 561 00aa 0022     		movs	r2, #0
 562 00ac 204B     		ldr	r3, .L40+24
 563 00ae FFF7FEFF 		bl	__aeabi_dmul
 564              	.LVL63:
 565 00b2 FFF7FEFF 		bl	__aeabi_d2f
 566              	.LVL64:
 567 00b6 1F4B     		ldr	r3, .L40+28
 568 00b8 1860     		str	r0, [r3]	@ float
  42:.\BlueTooth.h ****     Desire_angle_roll = ((float)BT_Roll - 512.0) * 30.0 / 512.0;
 569              		.loc 3 42 0
 570 00ba A868     		ldr	r0, [r5, #8]
 571 00bc FFF7FEFF 		bl	__aeabi_i2f
 572              	.LVL65:
 573 00c0 FFF7FEFF 		bl	__aeabi_f2d
 574              	.LVL66:
 575 00c4 0022     		movs	r2, #0
 576 00c6 4FF08143 		mov	r3, #1082130432
 577 00ca FFF7FEFF 		bl	__aeabi_dsub
 578              	.LVL67:
 579 00ce 0022     		movs	r2, #0
 580 00d0 164B     		ldr	r3, .L40+20
 581 00d2 FFF7FEFF 		bl	__aeabi_dmul
 582              	.LVL68:
 583 00d6 0022     		movs	r2, #0
 584 00d8 154B     		ldr	r3, .L40+24
 585 00da FFF7FEFF 		bl	__aeabi_dmul
 586              	.LVL69:
 587 00de FFF7FEFF 		bl	__aeabi_d2f
 588              	.LVL70:
 589 00e2 154B     		ldr	r3, .L40+32
 590 00e4 1860     		str	r0, [r3]	@ float
  43:.\BlueTooth.h ****     Desire_w_yaw = ((float)BT_Yaw - 512.0) * 40.0 / 512.0;
 591              		.loc 3 43 0
 592 00e6 6868     		ldr	r0, [r5, #4]
 593 00e8 FFF7FEFF 		bl	__aeabi_i2f
 594              	.LVL71:
 595 00ec FFF7FEFF 		bl	__aeabi_f2d
 596              	.LVL72:
 597 00f0 0022     		movs	r2, #0
 598 00f2 4FF08143 		mov	r3, #1082130432
 599 00f6 FFF7FEFF 		bl	__aeabi_dsub
 600              	.LVL73:
 601 00fa 0022     		movs	r2, #0
 602 00fc 0F4B     		ldr	r3, .L40+36
 603 00fe FFF7FEFF 		bl	__aeabi_dmul
 604              	.LVL74:
 605 0102 0022     		movs	r2, #0
 606 0104 0A4B     		ldr	r3, .L40+24
 607 0106 FFF7FEFF 		bl	__aeabi_dmul
 608              	.LVL75:
 609 010a FFF7FEFF 		bl	__aeabi_d2f
 610              	.LVL76:
 611 010e 0C4B     		ldr	r3, .L40+40
 612 0110 1860     		str	r0, [r3]	@ float
 613              	.LVL77:
 614              	.L35:
 615 0112 38BD     		pop	{r3, r4, r5, pc}
ARM GAS  C:\Users\ADMINI~1\AppData\Local\Temp\ccpQE0Fa.s 			page 15


 616              	.L41:
 617 0114 AFF30080 		.align	3
 618              	.L40:
 619 0118 85EB51B8 		.word	-1202590843
 620 011c 1E052E40 		.word	1076757790
 621 0120 00000000 		.word	.LANCHOR0
 622 0124 00000000 		.word	roll_angle_offset
 623 0128 00000000 		.word	pitch_angle_offset
 624 012c 00003E40 		.word	1077805056
 625 0130 0000603F 		.word	1063256064
 626 0134 00000000 		.word	Desire_angle_pitch
 627 0138 00000000 		.word	Desire_angle_roll
 628 013c 00004440 		.word	1078198272
 629 0140 00000000 		.word	Desire_w_yaw
 630              		.cfi_endproc
 631              	.LFE70:
 632              		.size	Process_Bluetooth_Message, .-Process_Bluetooth_Message
 633 0144 AFF30080 		.section	.text.Bluetooth_RX_Interrupt_Handler,"ax",%progbits
 634              		.align	2
 635              		.global	Bluetooth_RX_Interrupt_Handler
 636              		.thumb
 637              		.thumb_func
 638              		.type	Bluetooth_RX_Interrupt_Handler, %function
 639              	Bluetooth_RX_Interrupt_Handler:
 640              	.LFB76:
  65:.\main.c      ****     }
  66:.\main.c      **** }
  67:.\main.c      **** 
  68:.\main.c      **** //蓝牙接收与解码
  69:.\main.c      **** uint8 BTRxBuf[64];
  70:.\main.c      **** uint8 BTRxBufLen;
  71:.\main.c      **** uint8 tmp;
  72:.\main.c      **** int flag = 0;
  73:.\main.c      **** 
  74:.\main.c      **** CY_ISR(Bluetooth_RX_Interrupt_Handler) {
 641              		.loc 2 74 0
 642              		.cfi_startproc
 643              		@ args = 0, pretend = 0, frame = 0
 644              		@ frame_needed = 0, uses_anonymous_args = 0
 645 0000 08B5     		push	{r3, lr}
 646              		.cfi_def_cfa_offset 8
 647              		.cfi_offset 3, -8
 648              		.cfi_offset 14, -4
  75:.\main.c      ****     tmp = UART_Bluetooth_ReadRxData();
 649              		.loc 2 75 0
 650 0002 FFF7FEFF 		bl	UART_Bluetooth_ReadRxData
 651              	.LVL78:
 652 0006 164B     		ldr	r3, .L47
 653 0008 1870     		strb	r0, [r3]
  76:.\main.c      ****     //LCD_Disp("Ha", 1, 14);
  77:.\main.c      ****     if(tmp == 0xa5 && flag == 0) { //遇到起始位，开始接收
 654              		.loc 2 77 0
 655 000a A528     		cmp	r0, #165
 656 000c 0BD1     		bne	.L43
 657              		.loc 2 77 0 is_stmt 0 discriminator 1
 658 000e 154B     		ldr	r3, .L47+4
 659 0010 1B69     		ldr	r3, [r3, #16]
ARM GAS  C:\Users\ADMINI~1\AppData\Local\Temp\ccpQE0Fa.s 			page 16


 660 0012 43B9     		cbnz	r3, .L43
  78:.\main.c      ****         BTRxBuf[0] = 0xa5;
 661              		.loc 2 78 0 is_stmt 1
 662 0014 A522     		movs	r2, #165
 663 0016 144B     		ldr	r3, .L47+8
 664 0018 1A70     		strb	r2, [r3]
  79:.\main.c      ****         BTRxBufLen = 1;
 665              		.loc 2 79 0
 666 001a 0123     		movs	r3, #1
 667 001c 134A     		ldr	r2, .L47+12
 668 001e 1370     		strb	r3, [r2]
  80:.\main.c      ****         flag = 1;
 669              		.loc 2 80 0
 670 0020 104A     		ldr	r2, .L47+4
 671 0022 1361     		str	r3, [r2, #16]
 672 0024 08BD     		pop	{r3, pc}
 673              	.L43:
  81:.\main.c      ****     }
  82:.\main.c      ****     else 
  83:.\main.c      ****         if(flag == 1 && BTRxBufLen < 15) { //固定接收起始位之后的15个字节
 674              		.loc 2 83 0
 675 0026 0F4B     		ldr	r3, .L47+4
 676 0028 1B69     		ldr	r3, [r3, #16]
 677 002a 012B     		cmp	r3, #1
 678 002c 09D1     		bne	.L45
 679              		.loc 2 83 0 is_stmt 0 discriminator 1
 680 002e 0F4A     		ldr	r2, .L47+12
 681 0030 1278     		ldrb	r2, [r2]	@ zero_extendqisi2
 682 0032 0E2A     		cmp	r2, #14
 683 0034 05D8     		bhi	.L45
  84:.\main.c      ****             BTRxBuf[BTRxBufLen] = tmp;
 684              		.loc 2 84 0 is_stmt 1
 685 0036 0C4B     		ldr	r3, .L47+8
 686 0038 9854     		strb	r0, [r3, r2]
  85:.\main.c      ****             BTRxBufLen++;
 687              		.loc 2 85 0
 688 003a 0132     		adds	r2, r2, #1
 689 003c 0B4B     		ldr	r3, .L47+12
 690 003e 1A70     		strb	r2, [r3]
 691 0040 08BD     		pop	{r3, pc}
 692              	.L45:
  86:.\main.c      ****         }
  87:.\main.c      ****         else
  88:.\main.c      ****             if(flag == 1 && BTRxBufLen == 15) {
 693              		.loc 2 88 0
 694 0042 012B     		cmp	r3, #1
 695 0044 0BD1     		bne	.L42
 696              		.loc 2 88 0 is_stmt 0 discriminator 1
 697 0046 094B     		ldr	r3, .L47+12
 698 0048 1978     		ldrb	r1, [r3]	@ zero_extendqisi2
 699 004a 0F29     		cmp	r1, #15
 700 004c 07D1     		bne	.L42
  89:.\main.c      ****                 //LCD_Disp("GetData!", 1, 8); //输出提示信息
  90:.\main.c      ****                 Process_Bluetooth_Message(BTRxBuf, BTRxBufLen); //转入解码函数
 701              		.loc 2 90 0 is_stmt 1
 702 004e 0648     		ldr	r0, .L47+8
 703 0050 FFF7FEFF 		bl	Process_Bluetooth_Message
ARM GAS  C:\Users\ADMINI~1\AppData\Local\Temp\ccpQE0Fa.s 			page 17


 704              	.LVL79:
  91:.\main.c      ****                 BTRxBufLen = 0; //清空缓冲区
 705              		.loc 2 91 0
 706 0054 0023     		movs	r3, #0
 707 0056 054A     		ldr	r2, .L47+12
 708 0058 1370     		strb	r3, [r2]
  92:.\main.c      ****                 flag = 0;
 709              		.loc 2 92 0
 710 005a 024A     		ldr	r2, .L47+4
 711 005c 1361     		str	r3, [r2, #16]
 712              	.L42:
 713 005e 08BD     		pop	{r3, pc}
 714              	.L48:
 715              		.align	2
 716              	.L47:
 717 0060 00000000 		.word	tmp
 718 0064 00000000 		.word	.LANCHOR0
 719 0068 00000000 		.word	BTRxBuf
 720 006c 00000000 		.word	BTRxBufLen
 721              		.cfi_endproc
 722              	.LFE76:
 723              		.size	Bluetooth_RX_Interrupt_Handler, .-Bluetooth_RX_Interrupt_Handler
 724              		.section	.text.Init_JY901_Data,"ax",%progbits
 725              		.align	2
 726              		.global	Init_JY901_Data
 727              		.thumb
 728              		.thumb_func
 729              		.type	Init_JY901_Data, %function
 730              	Init_JY901_Data:
 731              	.LFB71:
 732              		.file 4 ".\\JY901.h"
   1:.\JY901.h     **** #ifndef JY901_H_
   2:.\JY901.h     **** #define JY901_H_
   3:.\JY901.h     ****     
   4:.\JY901.h     **** #include <project.h>
   5:.\JY901.h     ****     
   6:.\JY901.h     **** #ifndef ABS
   7:.\JY901.h     ****     #define ABS(x) (((x)>0)?(x):(-(x)))
   8:.\JY901.h     **** #endif
   9:.\JY901.h     **** 
  10:.\JY901.h     **** volatile float AccelX, AccelY, AccelZ;     //三轴加速度，单位为g
  11:.\JY901.h     **** volatile float OmegaX, OmegaY, OmegaZ;     //三轴角速度，单位为°/s
  12:.\JY901.h     **** volatile float Temperature;                //测量温度
  13:.\JY901.h     **** volatile float Roll, Pitch, Yaw;           //三轴角度，单位为°
  14:.\JY901.h     **** /* 
  15:.\JY901.h     ****  *  角度正方向定义：
  16:.\JY901.h     ****  *  抬机头Pitch正
  17:.\JY901.h     ****  *  左滚转Roll正
  18:.\JY901.h     ****  *  俯视逆时针转Yaw增大
  19:.\JY901.h     ****  */
  20:.\JY901.h     **** volatile int MagX, MagY, MagZ;             //三轴磁场
  21:.\JY901.h     **** volatile int Pressure, Height;             //气压和高度，单位为Pa和cm
  22:.\JY901.h     **** int i, sum;
  23:.\JY901.h     ****     
  24:.\JY901.h     **** void Init_JY901_Data() {
 733              		.loc 4 24 0
 734              		.cfi_startproc
ARM GAS  C:\Users\ADMINI~1\AppData\Local\Temp\ccpQE0Fa.s 			page 18


 735              		@ args = 0, pretend = 0, frame = 0
 736              		@ frame_needed = 0, uses_anonymous_args = 0
 737              		@ link register save eliminated.
  25:.\JY901.h     ****     AccelX = AccelY = AccelZ = 0.0;
 738              		.loc 4 25 0
 739 0000 0023     		movs	r3, #0
 740 0002 0E4A     		ldr	r2, .L50
 741 0004 1360     		str	r3, [r2]	@ float
 742 0006 0E4A     		ldr	r2, .L50+4
 743 0008 1360     		str	r3, [r2]	@ float
 744 000a 0E4A     		ldr	r2, .L50+8
 745 000c 1360     		str	r3, [r2]	@ float
  26:.\JY901.h     ****     OmegaX = OmegaY = OmegaZ = 0.0;
 746              		.loc 4 26 0
 747 000e 0E4A     		ldr	r2, .L50+12
 748 0010 1360     		str	r3, [r2]	@ float
 749 0012 0E4A     		ldr	r2, .L50+16
 750 0014 1360     		str	r3, [r2]	@ float
 751 0016 0E4A     		ldr	r2, .L50+20
 752 0018 1360     		str	r3, [r2]	@ float
  27:.\JY901.h     ****     Temperature = 0.0;
 753              		.loc 4 27 0
 754 001a 0E4A     		ldr	r2, .L50+24
 755 001c 1360     		str	r3, [r2]	@ float
  28:.\JY901.h     ****     Roll = Pitch = Yaw = 0.0;
 756              		.loc 4 28 0
 757 001e 0E4A     		ldr	r2, .L50+28
 758 0020 1360     		str	r3, [r2]	@ float
 759 0022 0E4A     		ldr	r2, .L50+32
 760 0024 1360     		str	r3, [r2]	@ float
 761 0026 0E4A     		ldr	r2, .L50+36
 762 0028 1360     		str	r3, [r2]	@ float
  29:.\JY901.h     ****     MagX = MagY = MagZ = 0.0;
 763              		.loc 4 29 0
 764 002a 0023     		movs	r3, #0
 765 002c 0D4A     		ldr	r2, .L50+40
 766 002e 1360     		str	r3, [r2]
 767 0030 0D4A     		ldr	r2, .L50+44
 768 0032 1360     		str	r3, [r2]
 769 0034 0D4A     		ldr	r2, .L50+48
 770 0036 1360     		str	r3, [r2]
 771 0038 7047     		bx	lr
 772              	.L51:
 773 003a 00BF     		.align	2
 774              	.L50:
 775 003c 00000000 		.word	AccelZ
 776 0040 00000000 		.word	AccelY
 777 0044 00000000 		.word	AccelX
 778 0048 00000000 		.word	OmegaZ
 779 004c 00000000 		.word	OmegaY
 780 0050 00000000 		.word	OmegaX
 781 0054 00000000 		.word	Temperature
 782 0058 00000000 		.word	Yaw
 783 005c 00000000 		.word	Pitch
 784 0060 00000000 		.word	Roll
 785 0064 00000000 		.word	MagZ
 786 0068 00000000 		.word	MagY
ARM GAS  C:\Users\ADMINI~1\AppData\Local\Temp\ccpQE0Fa.s 			page 19


 787 006c 00000000 		.word	MagX
 788              		.cfi_endproc
 789              	.LFE71:
 790              		.size	Init_JY901_Data, .-Init_JY901_Data
 791              		.section	.text.Decode_JY901_Data,"ax",%progbits
 792              		.align	2
 793              		.global	Decode_JY901_Data
 794              		.thumb
 795              		.thumb_func
 796              		.type	Decode_JY901_Data, %function
 797              	Decode_JY901_Data:
 798              	.LFB72:
  30:.\JY901.h     **** }
  31:.\JY901.h     ****     
  32:.\JY901.h     **** int Decode_JY901_Data(uint8 *buf, int len) {
 799              		.loc 4 32 0
 800              		.cfi_startproc
 801              		@ args = 0, pretend = 0, frame = 0
 802              		@ frame_needed = 0, uses_anonymous_args = 0
 803              	.LVL80:
  33:.\JY901.h     ****     if(len != 11 || buf[0] != 0x55)
 804              		.loc 4 33 0
 805 0000 0B29     		cmp	r1, #11
 806 0002 40F05D81 		bne	.L62
 807              		.loc 4 33 0 is_stmt 0 discriminator 1
 808 0006 0378     		ldrb	r3, [r0]	@ zero_extendqisi2
 809 0008 552B     		cmp	r3, #85
 810 000a 40F05B81 		bne	.L63
  32:.\JY901.h     ****     if(len != 11 || buf[0] != 0x55)
 811              		.loc 4 32 0 is_stmt 1
 812 000e 10B5     		push	{r4, lr}
 813              		.cfi_def_cfa_offset 8
 814              		.cfi_offset 4, -8
 815              		.cfi_offset 14, -4
  34:.\JY901.h     ****         return 0; //无效数据错误
  35:.\JY901.h     ****     /*if(buf[1] == 0x51) {
  36:.\JY901.h     ****     for(i = 0; i < 8; i++) {
  37:.\JY901.h     ****         LCD_Position(0, i*2);
  38:.\JY901.h     ****         LCD_PrintHexUint8(buf[i]);
  39:.\JY901.h     ****     }
  40:.\JY901.h     ****     for(i = 0; i < 3; i++) {
  41:.\JY901.h     ****         LCD_Position(1, i*2);
  42:.\JY901.h     ****         LCD_PrintHexUint8(buf[i + 8]);
  43:.\JY901.h     ****     }
  44:.\JY901.h     ****     }*/
  45:.\JY901.h     ****     sum = 0;
 816              		.loc 4 45 0
 817 0010 0023     		movs	r3, #0
 818 0012 AF4A     		ldr	r2, .L68
 819 0014 1360     		str	r3, [r2]
  46:.\JY901.h     ****     for(i = 0; i < 10; i++)
 820              		.loc 4 46 0
 821 0016 AF4A     		ldr	r2, .L68+4
 822 0018 1360     		str	r3, [r2]
 823 001a 07E0     		b	.L54
 824              	.LVL81:
 825              	.L55:
ARM GAS  C:\Users\ADMINI~1\AppData\Local\Temp\ccpQE0Fa.s 			page 20


  47:.\JY901.h     ****         sum += buf[i];
 826              		.loc 4 47 0 discriminator 3
 827 001c C45C     		ldrb	r4, [r0, r3]	@ zero_extendqisi2
 828 001e AC49     		ldr	r1, .L68
 829 0020 0A68     		ldr	r2, [r1]
 830 0022 2244     		add	r2, r2, r4
 831 0024 0A60     		str	r2, [r1]
  46:.\JY901.h     ****     for(i = 0; i < 10; i++)
 832              		.loc 4 46 0 discriminator 3
 833 0026 0133     		adds	r3, r3, #1
 834 0028 AA4A     		ldr	r2, .L68+4
 835 002a 1360     		str	r3, [r2]
 836              	.L54:
  46:.\JY901.h     ****     for(i = 0; i < 10; i++)
 837              		.loc 4 46 0 is_stmt 0 discriminator 1
 838 002c A94B     		ldr	r3, .L68+4
 839 002e 1B68     		ldr	r3, [r3]
 840 0030 092B     		cmp	r3, #9
 841 0032 F3DD     		ble	.L55
  48:.\JY901.h     ****     if(buf[10] != (sum & 0xff))
 842              		.loc 4 48 0 is_stmt 1
 843 0034 827A     		ldrb	r2, [r0, #10]	@ zero_extendqisi2
 844 0036 A64B     		ldr	r3, .L68
 845 0038 1B78     		ldrb	r3, [r3]	@ zero_extendqisi2
 846 003a 9A42     		cmp	r2, r3
 847 003c 40F04481 		bne	.L64
 848 0040 0446     		mov	r4, r0
  49:.\JY901.h     ****         return 1; //校验无效错误
  50:.\JY901.h     ****     
  51:.\JY901.h     ****     /*if(buf[1] == 0x52) {
  52:.\JY901.h     ****         LCD_Position(0, 0);
  53:.\JY901.h     ****         LCD_PrintHexUint8(buf[2]);
  54:.\JY901.h     ****         LCD_Position(0, 2);
  55:.\JY901.h     ****         LCD_PrintHexUint8(buf[3]);
  56:.\JY901.h     ****         LCD_Position(0, 5);
  57:.\JY901.h     ****         LCD_PrintHexUint8(buf[4]);
  58:.\JY901.h     ****         LCD_Position(0, 7);
  59:.\JY901.h     ****         LCD_PrintHexUint8(buf[5]);
  60:.\JY901.h     ****         LCD_Position(0, 10);
  61:.\JY901.h     ****         LCD_PrintHexUint8(buf[6]);
  62:.\JY901.h     ****         LCD_Position(0, 12);
  63:.\JY901.h     ****         LCD_PrintHexUint8(buf[7]);
  64:.\JY901.h     ****     }*/
  65:.\JY901.h     ****     
  66:.\JY901.h     ****     switch(buf[1]) {
 849              		.loc 4 66 0
 850 0042 4378     		ldrb	r3, [r0, #1]	@ zero_extendqisi2
 851 0044 513B     		subs	r3, r3, #81
 852 0046 052B     		cmp	r3, #5
 853 0048 00F24081 		bhi	.L65
 854 004c DFE813F0 		tbh	[pc, r3, lsl #1]
 855              	.L57:
 856 0050 0600     		.2byte	(.L56-.L57)/2
 857 0052 5800     		.2byte	(.L58-.L57)/2
 858 0054 AA00     		.2byte	(.L59-.L57)/2
 859 0056 FC00     		.2byte	(.L60-.L57)/2
 860 0058 3E01     		.2byte	(.L65-.L57)/2
ARM GAS  C:\Users\ADMINI~1\AppData\Local\Temp\ccpQE0Fa.s 			page 21


 861 005a 1E01     		.2byte	(.L61-.L57)/2
 862              		.p2align 1
 863              	.L56:
  67:.\JY901.h     ****         case 0x51: {
  68:.\JY901.h     ****             AccelX = (float)((short)((buf[3] << 8) | buf[2]))/32768.0*16.0;
 864              		.loc 4 68 0
 865 005c C078     		ldrb	r0, [r0, #3]	@ zero_extendqisi2
 866              	.LVL82:
 867 005e A378     		ldrb	r3, [r4, #2]	@ zero_extendqisi2
 868 0060 43EA0020 		orr	r0, r3, r0, lsl #8
 869 0064 00B2     		sxth	r0, r0
 870 0066 FFF7FEFF 		bl	__aeabi_i2f
 871              	.LVL83:
 872 006a FFF7FEFF 		bl	__aeabi_f2d
 873              	.LVL84:
 874 006e 0022     		movs	r2, #0
 875 0070 4FF07C53 		mov	r3, #1056964608
 876 0074 FFF7FEFF 		bl	__aeabi_dmul
 877              	.LVL85:
 878 0078 0022     		movs	r2, #0
 879 007a 974B     		ldr	r3, .L68+8
 880 007c FFF7FEFF 		bl	__aeabi_dmul
 881              	.LVL86:
 882 0080 FFF7FEFF 		bl	__aeabi_d2f
 883              	.LVL87:
 884 0084 954B     		ldr	r3, .L68+12
 885 0086 1860     		str	r0, [r3]	@ float
  69:.\JY901.h     ****             AccelY = (float)((short)((buf[5] << 8) | buf[4]))/32768.0*16.0;
 886              		.loc 4 69 0
 887 0088 6079     		ldrb	r0, [r4, #5]	@ zero_extendqisi2
 888 008a 2379     		ldrb	r3, [r4, #4]	@ zero_extendqisi2
 889 008c 43EA0020 		orr	r0, r3, r0, lsl #8
 890 0090 00B2     		sxth	r0, r0
 891 0092 FFF7FEFF 		bl	__aeabi_i2f
 892              	.LVL88:
 893 0096 FFF7FEFF 		bl	__aeabi_f2d
 894              	.LVL89:
 895 009a 0022     		movs	r2, #0
 896 009c 4FF07C53 		mov	r3, #1056964608
 897 00a0 FFF7FEFF 		bl	__aeabi_dmul
 898              	.LVL90:
 899 00a4 0022     		movs	r2, #0
 900 00a6 8C4B     		ldr	r3, .L68+8
 901 00a8 FFF7FEFF 		bl	__aeabi_dmul
 902              	.LVL91:
 903 00ac FFF7FEFF 		bl	__aeabi_d2f
 904              	.LVL92:
 905 00b0 8B4B     		ldr	r3, .L68+16
 906 00b2 1860     		str	r0, [r3]	@ float
  70:.\JY901.h     ****             AccelZ = (float)((short)((buf[7] << 8) | buf[6]))/32768.0*16.0;
 907              		.loc 4 70 0
 908 00b4 E079     		ldrb	r0, [r4, #7]	@ zero_extendqisi2
 909 00b6 A379     		ldrb	r3, [r4, #6]	@ zero_extendqisi2
 910 00b8 43EA0020 		orr	r0, r3, r0, lsl #8
 911 00bc 00B2     		sxth	r0, r0
 912 00be FFF7FEFF 		bl	__aeabi_i2f
 913              	.LVL93:
ARM GAS  C:\Users\ADMINI~1\AppData\Local\Temp\ccpQE0Fa.s 			page 22


 914 00c2 FFF7FEFF 		bl	__aeabi_f2d
 915              	.LVL94:
 916 00c6 0022     		movs	r2, #0
 917 00c8 4FF07C53 		mov	r3, #1056964608
 918 00cc FFF7FEFF 		bl	__aeabi_dmul
 919              	.LVL95:
 920 00d0 0022     		movs	r2, #0
 921 00d2 814B     		ldr	r3, .L68+8
 922 00d4 FFF7FEFF 		bl	__aeabi_dmul
 923              	.LVL96:
 924 00d8 FFF7FEFF 		bl	__aeabi_d2f
 925              	.LVL97:
 926 00dc 814B     		ldr	r3, .L68+20
 927 00de 1860     		str	r0, [r3]	@ float
  71:.\JY901.h     ****             Temperature = ((buf[9] << 8) | buf[8])/100.0;
 928              		.loc 4 71 0
 929 00e0 607A     		ldrb	r0, [r4, #9]	@ zero_extendqisi2
 930 00e2 237A     		ldrb	r3, [r4, #8]	@ zero_extendqisi2
 931 00e4 43EA0020 		orr	r0, r3, r0, lsl #8
 932 00e8 FFF7FEFF 		bl	__aeabi_i2d
 933              	.LVL98:
 934 00ec 0022     		movs	r2, #0
 935 00ee 7E4B     		ldr	r3, .L68+24
 936 00f0 FFF7FEFF 		bl	__aeabi_ddiv
 937              	.LVL99:
 938 00f4 FFF7FEFF 		bl	__aeabi_d2f
 939              	.LVL100:
 940 00f8 7C4B     		ldr	r3, .L68+28
 941 00fa 1860     		str	r0, [r3]	@ float
  72:.\JY901.h     ****             /*LCD_Position(1, 0);
  73:.\JY901.h     ****             LCD_PrintString("          ");
  74:.\JY901.h     ****             LCD_Position(1, 0);
  75:.\JY901.h     ****             LCD_PrintDecUint16((int)(AccelZ*1000.0));*/     
  76:.\JY901.h     ****             return 0x51;
 942              		.loc 4 76 0
 943 00fc 5120     		movs	r0, #81
 944 00fe 10BD     		pop	{r4, pc}
 945              	.LVL101:
 946              	.L58:
  77:.\JY901.h     ****             break;
  78:.\JY901.h     ****         }
  79:.\JY901.h     ****         case 0x52: {
  80:.\JY901.h     ****             OmegaX = (float)((short)((buf[3] << 8) | buf[2]))/32768.0*2000.0;
 947              		.loc 4 80 0
 948 0100 C078     		ldrb	r0, [r0, #3]	@ zero_extendqisi2
 949              	.LVL102:
 950 0102 A378     		ldrb	r3, [r4, #2]	@ zero_extendqisi2
 951 0104 43EA0020 		orr	r0, r3, r0, lsl #8
 952 0108 00B2     		sxth	r0, r0
 953 010a FFF7FEFF 		bl	__aeabi_i2f
 954              	.LVL103:
 955 010e FFF7FEFF 		bl	__aeabi_f2d
 956              	.LVL104:
 957 0112 0022     		movs	r2, #0
 958 0114 4FF07C53 		mov	r3, #1056964608
 959 0118 FFF7FEFF 		bl	__aeabi_dmul
 960              	.LVL105:
ARM GAS  C:\Users\ADMINI~1\AppData\Local\Temp\ccpQE0Fa.s 			page 23


 961 011c 0022     		movs	r2, #0
 962 011e 744B     		ldr	r3, .L68+32
 963 0120 FFF7FEFF 		bl	__aeabi_dmul
 964              	.LVL106:
 965 0124 FFF7FEFF 		bl	__aeabi_d2f
 966              	.LVL107:
 967 0128 724B     		ldr	r3, .L68+36
 968 012a 1860     		str	r0, [r3]	@ float
  81:.\JY901.h     ****             OmegaY = (float)((short)((buf[5] << 8) | buf[4]))/32768.0*2000.0;
 969              		.loc 4 81 0
 970 012c 6079     		ldrb	r0, [r4, #5]	@ zero_extendqisi2
 971 012e 2379     		ldrb	r3, [r4, #4]	@ zero_extendqisi2
 972 0130 43EA0020 		orr	r0, r3, r0, lsl #8
 973 0134 00B2     		sxth	r0, r0
 974 0136 FFF7FEFF 		bl	__aeabi_i2f
 975              	.LVL108:
 976 013a FFF7FEFF 		bl	__aeabi_f2d
 977              	.LVL109:
 978 013e 0022     		movs	r2, #0
 979 0140 4FF07C53 		mov	r3, #1056964608
 980 0144 FFF7FEFF 		bl	__aeabi_dmul
 981              	.LVL110:
 982 0148 0022     		movs	r2, #0
 983 014a 694B     		ldr	r3, .L68+32
 984 014c FFF7FEFF 		bl	__aeabi_dmul
 985              	.LVL111:
 986 0150 FFF7FEFF 		bl	__aeabi_d2f
 987              	.LVL112:
 988 0154 684B     		ldr	r3, .L68+40
 989 0156 1860     		str	r0, [r3]	@ float
  82:.\JY901.h     ****             OmegaZ = (float)((short)((buf[7] << 8) | buf[6]))/32768.0*2000.0;
 990              		.loc 4 82 0
 991 0158 E079     		ldrb	r0, [r4, #7]	@ zero_extendqisi2
 992 015a A379     		ldrb	r3, [r4, #6]	@ zero_extendqisi2
 993 015c 43EA0020 		orr	r0, r3, r0, lsl #8
 994 0160 00B2     		sxth	r0, r0
 995 0162 FFF7FEFF 		bl	__aeabi_i2f
 996              	.LVL113:
 997 0166 FFF7FEFF 		bl	__aeabi_f2d
 998              	.LVL114:
 999 016a 0022     		movs	r2, #0
 1000 016c 4FF07C53 		mov	r3, #1056964608
 1001 0170 FFF7FEFF 		bl	__aeabi_dmul
 1002              	.LVL115:
 1003 0174 0022     		movs	r2, #0
 1004 0176 5E4B     		ldr	r3, .L68+32
 1005 0178 FFF7FEFF 		bl	__aeabi_dmul
 1006              	.LVL116:
 1007 017c FFF7FEFF 		bl	__aeabi_d2f
 1008              	.LVL117:
 1009 0180 5E4B     		ldr	r3, .L68+44
 1010 0182 1860     		str	r0, [r3]	@ float
  83:.\JY901.h     ****             Temperature = ((buf[9] << 8) | buf[8])/100.0;
 1011              		.loc 4 83 0
 1012 0184 607A     		ldrb	r0, [r4, #9]	@ zero_extendqisi2
 1013 0186 237A     		ldrb	r3, [r4, #8]	@ zero_extendqisi2
 1014 0188 43EA0020 		orr	r0, r3, r0, lsl #8
ARM GAS  C:\Users\ADMINI~1\AppData\Local\Temp\ccpQE0Fa.s 			page 24


 1015 018c FFF7FEFF 		bl	__aeabi_i2d
 1016              	.LVL118:
 1017 0190 0022     		movs	r2, #0
 1018 0192 554B     		ldr	r3, .L68+24
 1019 0194 FFF7FEFF 		bl	__aeabi_ddiv
 1020              	.LVL119:
 1021 0198 FFF7FEFF 		bl	__aeabi_d2f
 1022              	.LVL120:
 1023 019c 534B     		ldr	r3, .L68+28
 1024 019e 1860     		str	r0, [r3]	@ float
  84:.\JY901.h     ****             
  85:.\JY901.h     ****             /*LCD_Position(1, 0);
  86:.\JY901.h     ****                     LCD_PrintDecUint16((int)(ABS(OmegaX)*10.0));
  87:.\JY901.h     ****                     LCD_Position(1, 5);
  88:.\JY901.h     ****                     LCD_PrintDecUint16((int)(ABS(OmegaY)*10.0));
  89:.\JY901.h     ****                     LCD_Position(1, 10);
  90:.\JY901.h     ****                     LCD_PrintDecUint16((int)(ABS(OmegaZ)*10.0));*/
  91:.\JY901.h     ****             
  92:.\JY901.h     ****             return 0x52;
 1025              		.loc 4 92 0
 1026 01a0 5220     		movs	r0, #82
 1027 01a2 10BD     		pop	{r4, pc}
 1028              	.LVL121:
 1029              	.L59:
  93:.\JY901.h     ****             break;
  94:.\JY901.h     ****         }
  95:.\JY901.h     ****         case 0x53: {
  96:.\JY901.h     ****             Roll  = (float)((short)((buf[3] << 8) | buf[2]))/32768.0*180.0;
 1030              		.loc 4 96 0
 1031 01a4 C078     		ldrb	r0, [r0, #3]	@ zero_extendqisi2
 1032              	.LVL122:
 1033 01a6 A378     		ldrb	r3, [r4, #2]	@ zero_extendqisi2
 1034 01a8 43EA0020 		orr	r0, r3, r0, lsl #8
 1035 01ac 00B2     		sxth	r0, r0
 1036 01ae FFF7FEFF 		bl	__aeabi_i2f
 1037              	.LVL123:
 1038 01b2 FFF7FEFF 		bl	__aeabi_f2d
 1039              	.LVL124:
 1040 01b6 0022     		movs	r2, #0
 1041 01b8 4FF07C53 		mov	r3, #1056964608
 1042 01bc FFF7FEFF 		bl	__aeabi_dmul
 1043              	.LVL125:
 1044 01c0 0022     		movs	r2, #0
 1045 01c2 4F4B     		ldr	r3, .L68+48
 1046 01c4 FFF7FEFF 		bl	__aeabi_dmul
 1047              	.LVL126:
 1048 01c8 FFF7FEFF 		bl	__aeabi_d2f
 1049              	.LVL127:
 1050 01cc 4D4B     		ldr	r3, .L68+52
 1051 01ce 1860     		str	r0, [r3]	@ float
  97:.\JY901.h     ****             Pitch = (float)((short)((buf[5] << 8) | buf[4]))/32768.0*180.0;
 1052              		.loc 4 97 0
 1053 01d0 6079     		ldrb	r0, [r4, #5]	@ zero_extendqisi2
 1054 01d2 2379     		ldrb	r3, [r4, #4]	@ zero_extendqisi2
 1055 01d4 43EA0020 		orr	r0, r3, r0, lsl #8
 1056 01d8 00B2     		sxth	r0, r0
 1057 01da FFF7FEFF 		bl	__aeabi_i2f
ARM GAS  C:\Users\ADMINI~1\AppData\Local\Temp\ccpQE0Fa.s 			page 25


 1058              	.LVL128:
 1059 01de FFF7FEFF 		bl	__aeabi_f2d
 1060              	.LVL129:
 1061 01e2 0022     		movs	r2, #0
 1062 01e4 4FF07C53 		mov	r3, #1056964608
 1063 01e8 FFF7FEFF 		bl	__aeabi_dmul
 1064              	.LVL130:
 1065 01ec 0022     		movs	r2, #0
 1066 01ee 444B     		ldr	r3, .L68+48
 1067 01f0 FFF7FEFF 		bl	__aeabi_dmul
 1068              	.LVL131:
 1069 01f4 FFF7FEFF 		bl	__aeabi_d2f
 1070              	.LVL132:
 1071 01f8 434B     		ldr	r3, .L68+56
 1072 01fa 1860     		str	r0, [r3]	@ float
  98:.\JY901.h     ****             Yaw   = (float)((short)((buf[7] << 8) | buf[6]))/32768.0*180.0;
 1073              		.loc 4 98 0
 1074 01fc E079     		ldrb	r0, [r4, #7]	@ zero_extendqisi2
 1075 01fe A379     		ldrb	r3, [r4, #6]	@ zero_extendqisi2
 1076 0200 43EA0020 		orr	r0, r3, r0, lsl #8
 1077 0204 00B2     		sxth	r0, r0
 1078 0206 FFF7FEFF 		bl	__aeabi_i2f
 1079              	.LVL133:
 1080 020a FFF7FEFF 		bl	__aeabi_f2d
 1081              	.LVL134:
 1082 020e 0022     		movs	r2, #0
 1083 0210 4FF07C53 		mov	r3, #1056964608
 1084 0214 FFF7FEFF 		bl	__aeabi_dmul
 1085              	.LVL135:
 1086 0218 0022     		movs	r2, #0
 1087 021a 394B     		ldr	r3, .L68+48
 1088 021c FFF7FEFF 		bl	__aeabi_dmul
 1089              	.LVL136:
 1090 0220 FFF7FEFF 		bl	__aeabi_d2f
 1091              	.LVL137:
 1092 0224 394B     		ldr	r3, .L68+60
 1093 0226 1860     		str	r0, [r3]	@ float
  99:.\JY901.h     ****             Temperature = ((buf[9] << 8) | buf[8])/100.0;
 1094              		.loc 4 99 0
 1095 0228 607A     		ldrb	r0, [r4, #9]	@ zero_extendqisi2
 1096 022a 237A     		ldrb	r3, [r4, #8]	@ zero_extendqisi2
 1097 022c 43EA0020 		orr	r0, r3, r0, lsl #8
 1098 0230 FFF7FEFF 		bl	__aeabi_i2d
 1099              	.LVL138:
 1100 0234 0022     		movs	r2, #0
 1101 0236 2C4B     		ldr	r3, .L68+24
 1102 0238 FFF7FEFF 		bl	__aeabi_ddiv
 1103              	.LVL139:
 1104 023c FFF7FEFF 		bl	__aeabi_d2f
 1105              	.LVL140:
 1106 0240 2A4B     		ldr	r3, .L68+28
 1107 0242 1860     		str	r0, [r3]	@ float
 100:.\JY901.h     ****             
 101:.\JY901.h     ****             /*LCD_Position(0, 0);
 102:.\JY901.h     ****             LCD_PrintDecUint16((int)Roll);
 103:.\JY901.h     ****             LCD_PrintString("     ");
 104:.\JY901.h     ****             LCD_Position(0, 5);
ARM GAS  C:\Users\ADMINI~1\AppData\Local\Temp\ccpQE0Fa.s 			page 26


 105:.\JY901.h     ****             LCD_PrintDecUint16((int)Pitch);
 106:.\JY901.h     ****             LCD_PrintString("     ");
 107:.\JY901.h     ****             LCD_Position(0, 10);
 108:.\JY901.h     ****             LCD_PrintDecUint16((int)Yaw);
 109:.\JY901.h     ****             LCD_PrintString("     ");*/
 110:.\JY901.h     ****                     
 111:.\JY901.h     ****             return 0x53;
 1108              		.loc 4 111 0
 1109 0244 5320     		movs	r0, #83
 1110 0246 10BD     		pop	{r4, pc}
 1111              	.LVL141:
 1112              	.L60:
 112:.\JY901.h     ****             break;
 113:.\JY901.h     ****         }
 114:.\JY901.h     ****         case 0x54: {
 115:.\JY901.h     ****             MagX = ((buf[3] << 8) | buf[2]);
 1113              		.loc 4 115 0
 1114 0248 C278     		ldrb	r2, [r0, #3]	@ zero_extendqisi2
 1115 024a 8378     		ldrb	r3, [r0, #2]	@ zero_extendqisi2
 1116 024c 43EA0223 		orr	r3, r3, r2, lsl #8
 1117 0250 2F4A     		ldr	r2, .L68+64
 1118 0252 1360     		str	r3, [r2]
 116:.\JY901.h     ****             MagY = ((buf[5] << 8) | buf[4]);
 1119              		.loc 4 116 0
 1120 0254 4279     		ldrb	r2, [r0, #5]	@ zero_extendqisi2
 1121 0256 0379     		ldrb	r3, [r0, #4]	@ zero_extendqisi2
 1122 0258 43EA0223 		orr	r3, r3, r2, lsl #8
 1123 025c 2D4A     		ldr	r2, .L68+68
 1124 025e 1360     		str	r3, [r2]
 117:.\JY901.h     ****             MagZ = ((buf[7] << 8) | buf[6]);
 1125              		.loc 4 117 0
 1126 0260 C279     		ldrb	r2, [r0, #7]	@ zero_extendqisi2
 1127 0262 8379     		ldrb	r3, [r0, #6]	@ zero_extendqisi2
 1128 0264 43EA0223 		orr	r3, r3, r2, lsl #8
 1129 0268 2B4A     		ldr	r2, .L68+72
 1130 026a 1360     		str	r3, [r2]
 118:.\JY901.h     ****             Temperature = ((buf[9] << 8) | buf[8])/100.0;
 1131              		.loc 4 118 0
 1132 026c 407A     		ldrb	r0, [r0, #9]	@ zero_extendqisi2
 1133              	.LVL142:
 1134 026e 237A     		ldrb	r3, [r4, #8]	@ zero_extendqisi2
 1135 0270 43EA0020 		orr	r0, r3, r0, lsl #8
 1136 0274 FFF7FEFF 		bl	__aeabi_i2d
 1137              	.LVL143:
 1138 0278 0022     		movs	r2, #0
 1139 027a 1B4B     		ldr	r3, .L68+24
 1140 027c FFF7FEFF 		bl	__aeabi_ddiv
 1141              	.LVL144:
 1142 0280 FFF7FEFF 		bl	__aeabi_d2f
 1143              	.LVL145:
 1144 0284 194B     		ldr	r3, .L68+28
 1145 0286 1860     		str	r0, [r3]	@ float
 119:.\JY901.h     ****             return 0x54;
 1146              		.loc 4 119 0
 1147 0288 5420     		movs	r0, #84
 1148 028a 10BD     		pop	{r4, pc}
 1149              	.LVL146:
ARM GAS  C:\Users\ADMINI~1\AppData\Local\Temp\ccpQE0Fa.s 			page 27


 1150              	.L61:
 120:.\JY901.h     ****             break;
 121:.\JY901.h     ****         }
 122:.\JY901.h     ****         case 0x56: {
 123:.\JY901.h     ****             Pressure = (buf[5] << 24) | (buf[4] << 16) | (buf[3] << 8) | buf[2];
 1151              		.loc 4 123 0
 1152 028c 4279     		ldrb	r2, [r0, #5]	@ zero_extendqisi2
 1153 028e 0379     		ldrb	r3, [r0, #4]	@ zero_extendqisi2
 1154 0290 1B04     		lsls	r3, r3, #16
 1155 0292 43EA0263 		orr	r3, r3, r2, lsl #24
 1156 0296 C278     		ldrb	r2, [r0, #3]	@ zero_extendqisi2
 1157 0298 43EA0223 		orr	r3, r3, r2, lsl #8
 1158 029c 8278     		ldrb	r2, [r0, #2]	@ zero_extendqisi2
 1159 029e 1343     		orrs	r3, r3, r2
 1160 02a0 1E4A     		ldr	r2, .L68+76
 1161 02a2 1360     		str	r3, [r2]
 124:.\JY901.h     ****             Height = (buf[9] << 24) | (buf[8] << 16) | (buf[7] << 8) | buf[6];
 1162              		.loc 4 124 0
 1163 02a4 427A     		ldrb	r2, [r0, #9]	@ zero_extendqisi2
 1164 02a6 037A     		ldrb	r3, [r0, #8]	@ zero_extendqisi2
 1165 02a8 1B04     		lsls	r3, r3, #16
 1166 02aa 43EA0263 		orr	r3, r3, r2, lsl #24
 1167 02ae C279     		ldrb	r2, [r0, #7]	@ zero_extendqisi2
 1168 02b0 43EA0223 		orr	r3, r3, r2, lsl #8
 1169 02b4 8279     		ldrb	r2, [r0, #6]	@ zero_extendqisi2
 1170 02b6 1343     		orrs	r3, r3, r2
 1171 02b8 194A     		ldr	r2, .L68+80
 1172 02ba 1360     		str	r3, [r2]
 125:.\JY901.h     ****             return 0x56;
 1173              		.loc 4 125 0
 1174 02bc 5620     		movs	r0, #86
 1175              	.LVL147:
 1176 02be 10BD     		pop	{r4, pc}
 1177              	.LVL148:
 1178              	.L62:
 1179              		.cfi_def_cfa_offset 0
 1180              		.cfi_restore 4
 1181              		.cfi_restore 14
  34:.\JY901.h     ****     /*if(buf[1] == 0x51) {
 1182              		.loc 4 34 0
 1183 02c0 0020     		movs	r0, #0
 1184              	.LVL149:
 126:.\JY901.h     ****             break;
 127:.\JY901.h     ****         }
 128:.\JY901.h     ****         default: {
 129:.\JY901.h     ****             return 0;
 130:.\JY901.h     ****             break;
 131:.\JY901.h     ****         }
 132:.\JY901.h     ****     }
 133:.\JY901.h     ****     return 0;
 134:.\JY901.h     **** }
 1185              		.loc 4 134 0
 1186 02c2 7047     		bx	lr
 1187              	.LVL150:
 1188              	.L63:
  34:.\JY901.h     ****     /*if(buf[1] == 0x51) {
 1189              		.loc 4 34 0
ARM GAS  C:\Users\ADMINI~1\AppData\Local\Temp\ccpQE0Fa.s 			page 28


 1190 02c4 0020     		movs	r0, #0
 1191              	.LVL151:
 1192 02c6 7047     		bx	lr
 1193              	.LVL152:
 1194              	.L64:
 1195              		.cfi_def_cfa_offset 8
 1196              		.cfi_offset 4, -8
 1197              		.cfi_offset 14, -4
  49:.\JY901.h     ****     
 1198              		.loc 4 49 0
 1199 02c8 0120     		movs	r0, #1
 1200              	.LVL153:
 1201 02ca 10BD     		pop	{r4, pc}
 1202              	.LVL154:
 1203              	.L65:
 129:.\JY901.h     ****             break;
 1204              		.loc 4 129 0
 1205 02cc 0020     		movs	r0, #0
 1206              	.LVL155:
 1207              		.loc 4 134 0
 1208 02ce 10BD     		pop	{r4, pc}
 1209              	.LVL156:
 1210              	.L69:
 1211              		.align	2
 1212              	.L68:
 1213 02d0 00000000 		.word	sum
 1214 02d4 00000000 		.word	i
 1215 02d8 00003040 		.word	1076887552
 1216 02dc 00000000 		.word	AccelX
 1217 02e0 00000000 		.word	AccelY
 1218 02e4 00000000 		.word	AccelZ
 1219 02e8 00005940 		.word	1079574528
 1220 02ec 00000000 		.word	Temperature
 1221 02f0 00409F40 		.word	1084178432
 1222 02f4 00000000 		.word	OmegaX
 1223 02f8 00000000 		.word	OmegaY
 1224 02fc 00000000 		.word	OmegaZ
 1225 0300 00806640 		.word	1080459264
 1226 0304 00000000 		.word	Roll
 1227 0308 00000000 		.word	Pitch
 1228 030c 00000000 		.word	Yaw
 1229 0310 00000000 		.word	MagX
 1230 0314 00000000 		.word	MagY
 1231 0318 00000000 		.word	MagZ
 1232 031c 00000000 		.word	Pressure
 1233 0320 00000000 		.word	Height
 1234              		.cfi_endproc
 1235              	.LFE72:
 1236              		.size	Decode_JY901_Data, .-Decode_JY901_Data
 1237              		.section	.text.JY901_RX_Interrupt_Handler,"ax",%progbits
 1238              		.align	2
 1239              		.global	JY901_RX_Interrupt_Handler
 1240              		.thumb
 1241              		.thumb_func
 1242              		.type	JY901_RX_Interrupt_Handler, %function
 1243              	JY901_RX_Interrupt_Handler:
 1244              	.LFB79:
ARM GAS  C:\Users\ADMINI~1\AppData\Local\Temp\ccpQE0Fa.s 			page 29


  93:.\main.c      ****             }
  94:.\main.c      **** }
  95:.\main.c      **** 
  96:.\main.c      **** //JY901串口接收与解码
  97:.\main.c      **** uint8 JY901RxBuf[64];
  98:.\main.c      **** uint8 JY901RxBufLen;
  99:.\main.c      **** uint8 tmp2;
 100:.\main.c      **** int flag_55 = 0;
 101:.\main.c      **** int flag_rec = 0;
 102:.\main.c      **** int decode_success;
 103:.\main.c      **** 
 104:.\main.c      **** //在LCD屏上显示角度
 105:.\main.c      **** char LCDBuffer[16];
 106:.\main.c      **** int float2int_tmp;
 107:.\main.c      **** char symbol;
 108:.\main.c      **** float f_tmp;
 109:.\main.c      **** void Float28Str(float f) {
 110:.\main.c      ****     f_tmp = f;
 111:.\main.c      ****     symbol = (f_tmp < 0) ? '-' : ' ';
 112:.\main.c      ****     f_tmp = (f_tmp < 0) ? (-f_tmp) : f_tmp;
 113:.\main.c      ****     float2int_tmp = (int)(f_tmp*1000.0);
 114:.\main.c      ****     sprintf(LCDBuffer, "%c%3d.%d", symbol, float2int_tmp/1000, float2int_tmp%1000);
 115:.\main.c      ****     LCDBuffer[8] = '\0';
 116:.\main.c      **** }
 117:.\main.c      **** 
 118:.\main.c      **** void LCD_DisplayAngle() {
 119:.\main.c      ****     Float28Str(Roll);
 120:.\main.c      ****     LCD_Disp(LCDBuffer, 0, 0);
 121:.\main.c      ****     Float28Str(Pitch);
 122:.\main.c      ****     LCD_Disp(LCDBuffer, 0, 8);
 123:.\main.c      ****     Float28Str(Yaw);
 124:.\main.c      ****     LCD_Disp(LCDBuffer, 1, 0);
 125:.\main.c      **** }
 126:.\main.c      **** 
 127:.\main.c      **** CY_ISR(JY901_RX_Interrupt_Handler) {
 1245              		.loc 2 127 0
 1246              		.cfi_startproc
 1247              		@ args = 0, pretend = 0, frame = 0
 1248              		@ frame_needed = 0, uses_anonymous_args = 0
 1249 0000 08B5     		push	{r3, lr}
 1250              		.cfi_def_cfa_offset 8
 1251              		.cfi_offset 3, -8
 1252              		.cfi_offset 14, -4
 128:.\main.c      ****     tmp2 = UART_JY901_ReadRxData();
 1253              		.loc 2 128 0
 1254 0002 FFF7FEFF 		bl	UART_JY901_ReadRxData
 1255              	.LVL157:
 1256 0006 204B     		ldr	r3, .L76
 1257 0008 1870     		strb	r0, [r3]
 129:.\main.c      ****     
 130:.\main.c      ****     if(tmp2 == 0x55 && flag_55 == 0) //接收到数据起始位
 1258              		.loc 2 130 0
 1259 000a 5528     		cmp	r0, #85
 1260 000c 06D1     		bne	.L71
 1261              		.loc 2 130 0 is_stmt 0 discriminator 1
 1262 000e 1F4B     		ldr	r3, .L76+4
 1263 0010 5B69     		ldr	r3, [r3, #20]
ARM GAS  C:\Users\ADMINI~1\AppData\Local\Temp\ccpQE0Fa.s 			page 30


 1264 0012 1BB9     		cbnz	r3, .L71
 131:.\main.c      ****         flag_55 = 1;
 1265              		.loc 2 131 0 is_stmt 1
 1266 0014 0122     		movs	r2, #1
 1267 0016 1D4B     		ldr	r3, .L76+4
 1268 0018 5A61     		str	r2, [r3, #20]
 1269 001a 08BD     		pop	{r3, pc}
 1270              	.L71:
 132:.\main.c      ****     else
 133:.\main.c      ****         if(tmp2 >= 0x51 && tmp2 <= 0x54 && flag_55 == 1 && flag_rec == 0) { //接收到数据类型
 1271              		.loc 2 133 0
 1272 001c A0F15103 		sub	r3, r0, #81
 1273 0020 DBB2     		uxtb	r3, r3
 1274 0022 032B     		cmp	r3, #3
 1275 0024 12D8     		bhi	.L73
 1276              		.loc 2 133 0 is_stmt 0 discriminator 1
 1277 0026 194B     		ldr	r3, .L76+4
 1278 0028 5B69     		ldr	r3, [r3, #20]
 1279 002a 012B     		cmp	r3, #1
 1280 002c 0ED1     		bne	.L73
 1281              		.loc 2 133 0 discriminator 2
 1282 002e 174B     		ldr	r3, .L76+4
 1283 0030 9B69     		ldr	r3, [r3, #24]
 1284 0032 5BB9     		cbnz	r3, .L73
 134:.\main.c      ****             JY901RxBuf[0] = 0x55;
 1285              		.loc 2 134 0 is_stmt 1
 1286 0034 164B     		ldr	r3, .L76+8
 1287 0036 5522     		movs	r2, #85
 1288 0038 1A70     		strb	r2, [r3]
 135:.\main.c      ****             JY901RxBuf[1] = tmp2;
 1289              		.loc 2 135 0
 1290 003a 5870     		strb	r0, [r3, #1]
 136:.\main.c      ****             JY901RxBufLen = 2;
 1291              		.loc 2 136 0
 1292 003c 0222     		movs	r2, #2
 1293 003e 154B     		ldr	r3, .L76+12
 1294 0040 1A70     		strb	r2, [r3]
 137:.\main.c      ****             flag_rec = 1;
 1295              		.loc 2 137 0
 1296 0042 124B     		ldr	r3, .L76+4
 1297 0044 0122     		movs	r2, #1
 1298 0046 9A61     		str	r2, [r3, #24]
 138:.\main.c      ****             flag_55 = 1;
 1299              		.loc 2 138 0
 1300 0048 5A61     		str	r2, [r3, #20]
 1301 004a 08BD     		pop	{r3, pc}
 1302              	.L73:
 139:.\main.c      ****         }
 140:.\main.c      ****         else
 141:.\main.c      ****             if(flag_rec == 1) { //储存特定长度的数据
 1303              		.loc 2 141 0
 1304 004c 0F4B     		ldr	r3, .L76+4
 1305 004e 9B69     		ldr	r3, [r3, #24]
 1306 0050 012B     		cmp	r3, #1
 1307 0052 14D1     		bne	.L74
 142:.\main.c      ****                 JY901RxBuf[JY901RxBufLen++] = tmp2;
 1308              		.loc 2 142 0
ARM GAS  C:\Users\ADMINI~1\AppData\Local\Temp\ccpQE0Fa.s 			page 31


 1309 0054 0F4A     		ldr	r2, .L76+12
 1310 0056 1378     		ldrb	r3, [r2]	@ zero_extendqisi2
 1311 0058 591C     		adds	r1, r3, #1
 1312 005a C9B2     		uxtb	r1, r1
 1313 005c 1170     		strb	r1, [r2]
 1314 005e 0C4A     		ldr	r2, .L76+8
 1315 0060 D054     		strb	r0, [r2, r3]
 143:.\main.c      ****                 if(JY901RxBufLen == 11) { //接收完一段完整数据
 1316              		.loc 2 143 0
 1317 0062 0B29     		cmp	r1, #11
 1318 0064 0FD1     		bne	.L70
 144:.\main.c      ****                     decode_success = Decode_JY901_Data(JY901RxBuf, JY901RxBufLen);
 1319              		.loc 2 144 0
 1320 0066 1046     		mov	r0, r2
 1321 0068 FFF7FEFF 		bl	Decode_JY901_Data
 1322              	.LVL158:
 1323 006c 0A4B     		ldr	r3, .L76+16
 1324 006e 1860     		str	r0, [r3]
 145:.\main.c      ****                     JY901RxBufLen = 0;
 1325              		.loc 2 145 0
 1326 0070 0023     		movs	r3, #0
 1327 0072 084A     		ldr	r2, .L76+12
 1328 0074 1370     		strb	r3, [r2]
 146:.\main.c      ****                     flag_rec = 0;
 1329              		.loc 2 146 0
 1330 0076 054A     		ldr	r2, .L76+4
 1331 0078 9361     		str	r3, [r2, #24]
 147:.\main.c      ****                     flag_55 = 0;
 1332              		.loc 2 147 0
 1333 007a 5361     		str	r3, [r2, #20]
 1334 007c 08BD     		pop	{r3, pc}
 1335              	.L74:
 148:.\main.c      ****                 }
 149:.\main.c      ****             }
 150:.\main.c      ****             else
 151:.\main.c      ****                 flag_55 = flag_rec = 0; //其他情况清空标志位
 1336              		.loc 2 151 0
 1337 007e 034B     		ldr	r3, .L76+4
 1338 0080 0022     		movs	r2, #0
 1339 0082 9A61     		str	r2, [r3, #24]
 1340 0084 5A61     		str	r2, [r3, #20]
 1341              	.L70:
 1342 0086 08BD     		pop	{r3, pc}
 1343              	.L77:
 1344              		.align	2
 1345              	.L76:
 1346 0088 00000000 		.word	tmp2
 1347 008c 00000000 		.word	.LANCHOR0
 1348 0090 00000000 		.word	JY901RxBuf
 1349 0094 00000000 		.word	JY901RxBufLen
 1350 0098 00000000 		.word	decode_success
 1351              		.cfi_endproc
 1352              	.LFE79:
 1353              		.size	JY901_RX_Interrupt_Handler, .-JY901_RX_Interrupt_Handler
 1354              		.section	.text.LCD_Disp,"ax",%progbits
 1355              		.align	2
 1356              		.global	LCD_Disp
ARM GAS  C:\Users\ADMINI~1\AppData\Local\Temp\ccpQE0Fa.s 			page 32


 1357              		.thumb
 1358              		.thumb_func
 1359              		.type	LCD_Disp, %function
 1360              	LCD_Disp:
 1361              	.LFB73:
  21:.\main.c      ****     LCD_Position(row, col);
 1362              		.loc 2 21 0
 1363              		.cfi_startproc
 1364              		@ args = 0, pretend = 0, frame = 0
 1365              		@ frame_needed = 0, uses_anonymous_args = 0
 1366              	.LVL159:
 1367 0000 10B5     		push	{r4, lr}
 1368              		.cfi_def_cfa_offset 8
 1369              		.cfi_offset 4, -8
 1370              		.cfi_offset 14, -4
 1371 0002 0446     		mov	r4, r0
  22:.\main.c      ****     LCD_PrintString(str);
 1372              		.loc 2 22 0
 1373 0004 0846     		mov	r0, r1
 1374              	.LVL160:
 1375 0006 1146     		mov	r1, r2
 1376              	.LVL161:
 1377 0008 FFF7FEFF 		bl	LCD_Position
 1378              	.LVL162:
  23:.\main.c      **** }
 1379              		.loc 2 23 0
 1380 000c 2046     		mov	r0, r4
 1381 000e FFF7FEFF 		bl	LCD_PrintString
 1382              	.LVL163:
 1383 0012 10BD     		pop	{r4, pc}
 1384              		.cfi_endproc
 1385              	.LFE73:
 1386              		.size	LCD_Disp, .-LCD_Disp
 1387              		.global	__aeabi_fcmpgt
 1388              		.global	__aeabi_f2iz
 1389              		.global	__aeabi_fsub
 1390              		.global	__aeabi_d2iz
 1391              		.section	.text.Convert_Float2String,"ax",%progbits
 1392              		.align	2
 1393              		.global	Convert_Float2String
 1394              		.thumb
 1395              		.thumb_func
 1396              		.type	Convert_Float2String, %function
 1397              	Convert_Float2String:
 1398              	.LFB74:
  30:.\main.c      ****     uint8 symbol = (x > 0.0) ? 1 : 0;
 1399              		.loc 2 30 0
 1400              		.cfi_startproc
 1401              		@ args = 0, pretend = 0, frame = 0
 1402              		@ frame_needed = 0, uses_anonymous_args = 0
 1403              	.LVL164:
 1404 0000 F0B5     		push	{r4, r5, r6, r7, lr}
 1405              		.cfi_def_cfa_offset 20
 1406              		.cfi_offset 4, -20
 1407              		.cfi_offset 5, -16
 1408              		.cfi_offset 6, -12
 1409              		.cfi_offset 7, -8
ARM GAS  C:\Users\ADMINI~1\AppData\Local\Temp\ccpQE0Fa.s 			page 33


 1410              		.cfi_offset 14, -4
 1411 0002 83B0     		sub	sp, sp, #12
 1412              		.cfi_def_cfa_offset 32
 1413 0004 0746     		mov	r7, r0
 1414 0006 0C46     		mov	r4, r1
  31:.\main.c      ****     float num = ABS(x);
 1415              		.loc 2 31 0
 1416 0008 4FF00105 		mov	r5, #1
 1417 000c 0846     		mov	r0, r1
 1418              	.LVL165:
 1419 000e 0021     		movs	r1, #0
 1420              	.LVL166:
 1421 0010 FFF7FEFF 		bl	__aeabi_fcmpgt
 1422              	.LVL167:
 1423 0014 08B9     		cbnz	r0, .L81
 1424 0016 4FF00005 		mov	r5, #0
 1425              	.L81:
 1426 001a EDB2     		uxtb	r5, r5
 1427              	.LVL168:
  32:.\main.c      ****     int int_part = (int)num;
 1428              		.loc 2 32 0
 1429 001c 2046     		mov	r0, r4
 1430 001e 0021     		movs	r1, #0
 1431 0020 FFF7FEFF 		bl	__aeabi_fcmpgt
 1432              	.LVL169:
 1433 0024 08B9     		cbnz	r0, .L82
  32:.\main.c      ****     int int_part = (int)num;
 1434              		.loc 2 32 0 is_stmt 0 discriminator 2
 1435 0026 04F10044 		add	r4, r4, #-2147483648
 1436              	.LVL170:
 1437              	.L82:
  33:.\main.c      ****     int float_2part = (int)((num - int_part)*100.0); //取两位小数
 1438              		.loc 2 33 0 is_stmt 1 discriminator 4
 1439 002a 2046     		mov	r0, r4
 1440 002c FFF7FEFF 		bl	__aeabi_f2iz
 1441              	.LVL171:
 1442 0030 0646     		mov	r6, r0
 1443              	.LVL172:
  34:.\main.c      ****     if(float_2part >= 10)
 1444              		.loc 2 34 0 discriminator 4
 1445 0032 FFF7FEFF 		bl	__aeabi_i2f
 1446              	.LVL173:
 1447 0036 0146     		mov	r1, r0
 1448 0038 2046     		mov	r0, r4
 1449 003a FFF7FEFF 		bl	__aeabi_fsub
 1450              	.LVL174:
 1451 003e FFF7FEFF 		bl	__aeabi_f2d
 1452              	.LVL175:
 1453 0042 0022     		movs	r2, #0
 1454 0044 144B     		ldr	r3, .L93
 1455 0046 FFF7FEFF 		bl	__aeabi_dmul
 1456              	.LVL176:
 1457 004a FFF7FEFF 		bl	__aeabi_d2iz
 1458              	.LVL177:
  35:.\main.c      ****         sprintf(str, "%c%d.%d", (symbol == 1)?'+':'-', int_part, float_2part);
 1459              		.loc 2 35 0 discriminator 4
 1460 004e 0928     		cmp	r0, #9
ARM GAS  C:\Users\ADMINI~1\AppData\Local\Temp\ccpQE0Fa.s 			page 34


 1461 0050 0ADD     		ble	.L83
  36:.\main.c      ****     else
 1462              		.loc 2 36 0
 1463 0052 0DB1     		cbz	r5, .L89
 1464 0054 2B22     		movs	r2, #43
 1465 0056 00E0     		b	.L84
 1466              	.L89:
 1467 0058 2D22     		movs	r2, #45
 1468              	.L84:
  36:.\main.c      ****     else
 1469              		.loc 2 36 0 is_stmt 0 discriminator 4
 1470 005a 0090     		str	r0, [sp]
 1471 005c 3846     		mov	r0, r7
 1472              	.LVL178:
 1473 005e 0F49     		ldr	r1, .L93+4
 1474 0060 3346     		mov	r3, r6
 1475 0062 FFF7FEFF 		bl	sprintf
 1476              	.LVL179:
 1477 0066 15E0     		b	.L80
 1478              	.LVL180:
 1479              	.L83:
  38:.\main.c      ****             sprintf(str, "%c%d.0%d", (symbol == 1)?'+':'-', int_part, float_2part);
 1480              		.loc 2 38 0 is_stmt 1
 1481 0068 0028     		cmp	r0, #0
 1482 006a 0ADD     		ble	.L86
  39:.\main.c      ****         else
 1483              		.loc 2 39 0
 1484 006c 0DB1     		cbz	r5, .L90
 1485 006e 2B22     		movs	r2, #43
 1486 0070 00E0     		b	.L87
 1487              	.L90:
 1488 0072 2D22     		movs	r2, #45
 1489              	.L87:
  39:.\main.c      ****         else
 1490              		.loc 2 39 0 is_stmt 0 discriminator 4
 1491 0074 0090     		str	r0, [sp]
 1492 0076 3846     		mov	r0, r7
 1493              	.LVL181:
 1494 0078 0949     		ldr	r1, .L93+8
 1495 007a 3346     		mov	r3, r6
 1496 007c FFF7FEFF 		bl	sprintf
 1497              	.LVL182:
 1498 0080 08E0     		b	.L80
 1499              	.LVL183:
 1500              	.L86:
  41:.\main.c      **** }
 1501              		.loc 2 41 0 is_stmt 1
 1502 0082 0DB1     		cbz	r5, .L91
 1503 0084 2B22     		movs	r2, #43
 1504 0086 00E0     		b	.L88
 1505              	.L91:
 1506 0088 2D22     		movs	r2, #45
 1507              	.L88:
  41:.\main.c      **** }
 1508              		.loc 2 41 0 is_stmt 0 discriminator 4
 1509 008a 3846     		mov	r0, r7
 1510              	.LVL184:
ARM GAS  C:\Users\ADMINI~1\AppData\Local\Temp\ccpQE0Fa.s 			page 35


 1511 008c 0549     		ldr	r1, .L93+12
 1512 008e 3346     		mov	r3, r6
 1513 0090 FFF7FEFF 		bl	sprintf
 1514              	.LVL185:
 1515              	.L80:
  42:.\main.c      **** 
 1516              		.loc 2 42 0 is_stmt 1
 1517 0094 03B0     		add	sp, sp, #12
 1518              		.cfi_def_cfa_offset 20
 1519              		@ sp needed
 1520 0096 F0BD     		pop	{r4, r5, r6, r7, pc}
 1521              	.LVL186:
 1522              	.L94:
 1523              		.align	2
 1524              	.L93:
 1525 0098 00005940 		.word	1079574528
 1526 009c 00000000 		.word	.LC0
 1527 00a0 08000000 		.word	.LC1
 1528 00a4 14000000 		.word	.LC2
 1529              		.cfi_endproc
 1530              	.LFE74:
 1531              		.size	Convert_Float2String, .-Convert_Float2String
 1532              		.global	__aeabi_fcmplt
 1533              		.section	.text.Float28Str,"ax",%progbits
 1534              		.align	2
 1535              		.global	Float28Str
 1536              		.thumb
 1537              		.thumb_func
 1538              		.type	Float28Str, %function
 1539              	Float28Str:
 1540              	.LFB77:
 109:.\main.c      ****     f_tmp = f;
 1541              		.loc 2 109 0
 1542              		.cfi_startproc
 1543              		@ args = 0, pretend = 0, frame = 0
 1544              		@ frame_needed = 0, uses_anonymous_args = 0
 1545              	.LVL187:
 1546 0000 30B5     		push	{r4, r5, lr}
 1547              		.cfi_def_cfa_offset 12
 1548              		.cfi_offset 4, -12
 1549              		.cfi_offset 5, -8
 1550              		.cfi_offset 14, -4
 1551 0002 83B0     		sub	sp, sp, #12
 1552              		.cfi_def_cfa_offset 24
 1553 0004 0446     		mov	r4, r0
 111:.\main.c      ****     f_tmp = (f_tmp < 0) ? (-f_tmp) : f_tmp;
 1554              		.loc 2 111 0
 1555 0006 0021     		movs	r1, #0
 1556 0008 FFF7FEFF 		bl	__aeabi_fcmplt
 1557              	.LVL188:
 1558 000c 08B1     		cbz	r0, .L104
 1559 000e 2D25     		movs	r5, #45
 1560 0010 00E0     		b	.L96
 1561              	.L104:
 1562 0012 2025     		movs	r5, #32
 1563              	.L96:
 111:.\main.c      ****     f_tmp = (f_tmp < 0) ? (-f_tmp) : f_tmp;
ARM GAS  C:\Users\ADMINI~1\AppData\Local\Temp\ccpQE0Fa.s 			page 36


 1564              		.loc 2 111 0 is_stmt 0 discriminator 4
 1565 0014 154B     		ldr	r3, .L107
 1566 0016 1D70     		strb	r5, [r3]
 112:.\main.c      ****     float2int_tmp = (int)(f_tmp*1000.0);
 1567              		.loc 2 112 0 is_stmt 1 discriminator 4
 1568 0018 2046     		mov	r0, r4
 1569 001a 0021     		movs	r1, #0
 1570 001c FFF7FEFF 		bl	__aeabi_fcmplt
 1571              	.LVL189:
 1572 0020 10B1     		cbz	r0, .L105
 112:.\main.c      ****     float2int_tmp = (int)(f_tmp*1000.0);
 1573              		.loc 2 112 0 is_stmt 0 discriminator 1
 1574 0022 04F10040 		add	r0, r4, #-2147483648
 1575 0026 00E0     		b	.L98
 1576              	.L105:
 112:.\main.c      ****     float2int_tmp = (int)(f_tmp*1000.0);
 1577              		.loc 2 112 0
 1578 0028 2046     		mov	r0, r4
 1579              	.L98:
 112:.\main.c      ****     float2int_tmp = (int)(f_tmp*1000.0);
 1580              		.loc 2 112 0 discriminator 4
 1581 002a 114B     		ldr	r3, .L107+4
 1582 002c 1860     		str	r0, [r3]	@ float
 113:.\main.c      ****     sprintf(LCDBuffer, "%c%3d.%d", symbol, float2int_tmp/1000, float2int_tmp%1000);
 1583              		.loc 2 113 0 is_stmt 1 discriminator 4
 1584 002e FFF7FEFF 		bl	__aeabi_f2d
 1585              	.LVL190:
 1586 0032 0022     		movs	r2, #0
 1587 0034 0F4B     		ldr	r3, .L107+8
 1588 0036 FFF7FEFF 		bl	__aeabi_dmul
 1589              	.LVL191:
 1590 003a FFF7FEFF 		bl	__aeabi_d2iz
 1591              	.LVL192:
 1592 003e 0E4B     		ldr	r3, .L107+12
 1593 0040 1860     		str	r0, [r3]
 114:.\main.c      ****     LCDBuffer[8] = '\0';
 1594              		.loc 2 114 0 discriminator 4
 1595 0042 0E4C     		ldr	r4, .L107+16
 1596              	.LVL193:
 1597 0044 0E4B     		ldr	r3, .L107+20
 1598 0046 83FB0023 		smull	r2, r3, r3, r0
 1599 004a C217     		asrs	r2, r0, #31
 1600 004c C2EBA313 		rsb	r3, r2, r3, asr #6
 1601 0050 4FF47A72 		mov	r2, #1000
 1602 0054 02FB1300 		mls	r0, r2, r3, r0
 1603 0058 0090     		str	r0, [sp]
 1604 005a 2046     		mov	r0, r4
 1605 005c 0949     		ldr	r1, .L107+24
 1606 005e 2A46     		mov	r2, r5
 1607 0060 FFF7FEFF 		bl	sprintf
 1608              	.LVL194:
 115:.\main.c      **** }
 1609              		.loc 2 115 0 discriminator 4
 1610 0064 0023     		movs	r3, #0
 1611 0066 2372     		strb	r3, [r4, #8]
 116:.\main.c      **** 
 1612              		.loc 2 116 0 discriminator 4
ARM GAS  C:\Users\ADMINI~1\AppData\Local\Temp\ccpQE0Fa.s 			page 37


 1613 0068 03B0     		add	sp, sp, #12
 1614              		.cfi_def_cfa_offset 12
 1615              		@ sp needed
 1616 006a 30BD     		pop	{r4, r5, pc}
 1617              	.L108:
 1618              		.align	2
 1619              	.L107:
 1620 006c 00000000 		.word	symbol
 1621 0070 00000000 		.word	f_tmp
 1622 0074 00408F40 		.word	1083129856
 1623 0078 00000000 		.word	float2int_tmp
 1624 007c 00000000 		.word	LCDBuffer
 1625 0080 D34D6210 		.word	274877907
 1626 0084 1C000000 		.word	.LC3
 1627              		.cfi_endproc
 1628              	.LFE77:
 1629              		.size	Float28Str, .-Float28Str
 1630              		.section	.text.LCD_DisplayAngle,"ax",%progbits
 1631              		.align	2
 1632              		.global	LCD_DisplayAngle
 1633              		.thumb
 1634              		.thumb_func
 1635              		.type	LCD_DisplayAngle, %function
 1636              	LCD_DisplayAngle:
 1637              	.LFB78:
 118:.\main.c      ****     Float28Str(Roll);
 1638              		.loc 2 118 0
 1639              		.cfi_startproc
 1640              		@ args = 0, pretend = 0, frame = 0
 1641              		@ frame_needed = 0, uses_anonymous_args = 0
 1642 0000 10B5     		push	{r4, lr}
 1643              		.cfi_def_cfa_offset 8
 1644              		.cfi_offset 4, -8
 1645              		.cfi_offset 14, -4
 119:.\main.c      ****     LCD_Disp(LCDBuffer, 0, 0);
 1646              		.loc 2 119 0
 1647 0002 0E4B     		ldr	r3, .L111
 1648 0004 1868     		ldr	r0, [r3]	@ float
 1649 0006 FFF7FEFF 		bl	Float28Str
 1650              	.LVL195:
 120:.\main.c      ****     Float28Str(Pitch);
 1651              		.loc 2 120 0
 1652 000a 0D4C     		ldr	r4, .L111+4
 1653 000c 2046     		mov	r0, r4
 1654 000e 0021     		movs	r1, #0
 1655 0010 0A46     		mov	r2, r1
 1656 0012 FFF7FEFF 		bl	LCD_Disp
 1657              	.LVL196:
 121:.\main.c      ****     LCD_Disp(LCDBuffer, 0, 8);
 1658              		.loc 2 121 0
 1659 0016 0B4B     		ldr	r3, .L111+8
 1660 0018 1868     		ldr	r0, [r3]	@ float
 1661 001a FFF7FEFF 		bl	Float28Str
 1662              	.LVL197:
 122:.\main.c      ****     Float28Str(Yaw);
 1663              		.loc 2 122 0
 1664 001e 2046     		mov	r0, r4
ARM GAS  C:\Users\ADMINI~1\AppData\Local\Temp\ccpQE0Fa.s 			page 38


 1665 0020 0021     		movs	r1, #0
 1666 0022 0822     		movs	r2, #8
 1667 0024 FFF7FEFF 		bl	LCD_Disp
 1668              	.LVL198:
 123:.\main.c      ****     LCD_Disp(LCDBuffer, 1, 0);
 1669              		.loc 2 123 0
 1670 0028 074B     		ldr	r3, .L111+12
 1671 002a 1868     		ldr	r0, [r3]	@ float
 1672 002c FFF7FEFF 		bl	Float28Str
 1673              	.LVL199:
 124:.\main.c      **** }
 1674              		.loc 2 124 0
 1675 0030 2046     		mov	r0, r4
 1676 0032 0121     		movs	r1, #1
 1677 0034 0022     		movs	r2, #0
 1678 0036 FFF7FEFF 		bl	LCD_Disp
 1679              	.LVL200:
 1680 003a 10BD     		pop	{r4, pc}
 1681              	.L112:
 1682              		.align	2
 1683              	.L111:
 1684 003c 00000000 		.word	Roll
 1685 0040 00000000 		.word	LCDBuffer
 1686 0044 00000000 		.word	Pitch
 1687 0048 00000000 		.word	Yaw
 1688              		.cfi_endproc
 1689              	.LFE78:
 1690              		.size	LCD_DisplayAngle, .-LCD_DisplayAngle
 1691              		.section	.text.JY901_Debug_Display,"ax",%progbits
 1692              		.align	2
 1693              		.global	JY901_Debug_Display
 1694              		.thumb
 1695              		.thumb_func
 1696              		.type	JY901_Debug_Display, %function
 1697              	JY901_Debug_Display:
 1698              	.LFB80:
 152:.\main.c      **** }
 153:.\main.c      **** 
 154:.\main.c      **** char DisplayBuffer[128];
 155:.\main.c      **** CY_ISR(JY901_Debug_Display) {
 1699              		.loc 2 155 0
 1700              		.cfi_startproc
 1701              		@ args = 0, pretend = 0, frame = 0
 1702              		@ frame_needed = 0, uses_anonymous_args = 0
 1703 0000 08B5     		push	{r3, lr}
 1704              		.cfi_def_cfa_offset 8
 1705              		.cfi_offset 3, -8
 1706              		.cfi_offset 14, -4
 1707              	.L114:
 156:.\main.c      ****     while(USBUART_1_CDCIsReady() == 0u);
 1708              		.loc 2 156 0 discriminator 1
 1709 0002 FFF7FEFF 		bl	USBUART_1_CDCIsReady
 1710              	.LVL201:
 1711 0006 0028     		cmp	r0, #0
 1712 0008 FBD0     		beq	.L114
 157:.\main.c      ****     USBUART_1_PutString("===== Debug Data =====\n");
 1713              		.loc 2 157 0
ARM GAS  C:\Users\ADMINI~1\AppData\Local\Temp\ccpQE0Fa.s 			page 39


 1714 000a 8548     		ldr	r0, .L143
 1715 000c FFF7FEFF 		bl	USBUART_1_PutString
 1716              	.LVL202:
 1717              	.L115:
 158:.\main.c      ****     while(USBUART_1_CDCIsReady() == 0u);
 1718              		.loc 2 158 0 discriminator 1
 1719 0010 FFF7FEFF 		bl	USBUART_1_CDCIsReady
 1720              	.LVL203:
 1721 0014 0028     		cmp	r0, #0
 1722 0016 FBD0     		beq	.L115
 159:.\main.c      ****     USBUART_1_PutString("AccelX=");
 1723              		.loc 2 159 0
 1724 0018 8248     		ldr	r0, .L143+4
 1725 001a FFF7FEFF 		bl	USBUART_1_PutString
 1726              	.LVL204:
 160:.\main.c      ****     Convert_Float2String(DisplayBuffer, AccelX);
 1727              		.loc 2 160 0
 1728 001e 824B     		ldr	r3, .L143+8
 1729 0020 1968     		ldr	r1, [r3]	@ float
 1730 0022 8248     		ldr	r0, .L143+12
 1731 0024 FFF7FEFF 		bl	Convert_Float2String
 1732              	.LVL205:
 1733              	.L116:
 161:.\main.c      ****     while(USBUART_1_CDCIsReady() == 0u);
 1734              		.loc 2 161 0 discriminator 1
 1735 0028 FFF7FEFF 		bl	USBUART_1_CDCIsReady
 1736              	.LVL206:
 1737 002c 0028     		cmp	r0, #0
 1738 002e FBD0     		beq	.L116
 162:.\main.c      ****     USBUART_1_PutString(DisplayBuffer);
 1739              		.loc 2 162 0
 1740 0030 7E48     		ldr	r0, .L143+12
 1741 0032 FFF7FEFF 		bl	USBUART_1_PutString
 1742              	.LVL207:
 1743              	.L117:
 163:.\main.c      ****     while(USBUART_1_CDCIsReady() == 0u);
 1744              		.loc 2 163 0 discriminator 1
 1745 0036 FFF7FEFF 		bl	USBUART_1_CDCIsReady
 1746              	.LVL208:
 1747 003a 0028     		cmp	r0, #0
 1748 003c FBD0     		beq	.L117
 164:.\main.c      ****     USBUART_1_PutString(", AccelY=");
 1749              		.loc 2 164 0
 1750 003e 7C48     		ldr	r0, .L143+16
 1751 0040 FFF7FEFF 		bl	USBUART_1_PutString
 1752              	.LVL209:
 165:.\main.c      ****     Convert_Float2String(DisplayBuffer, AccelY);
 1753              		.loc 2 165 0
 1754 0044 7B4B     		ldr	r3, .L143+20
 1755 0046 1968     		ldr	r1, [r3]	@ float
 1756 0048 7848     		ldr	r0, .L143+12
 1757 004a FFF7FEFF 		bl	Convert_Float2String
 1758              	.LVL210:
 1759              	.L118:
 166:.\main.c      ****     while(USBUART_1_CDCIsReady() == 0u);
 1760              		.loc 2 166 0 discriminator 1
 1761 004e FFF7FEFF 		bl	USBUART_1_CDCIsReady
ARM GAS  C:\Users\ADMINI~1\AppData\Local\Temp\ccpQE0Fa.s 			page 40


 1762              	.LVL211:
 1763 0052 0028     		cmp	r0, #0
 1764 0054 FBD0     		beq	.L118
 167:.\main.c      ****     USBUART_1_PutString(DisplayBuffer);
 1765              		.loc 2 167 0
 1766 0056 7548     		ldr	r0, .L143+12
 1767 0058 FFF7FEFF 		bl	USBUART_1_PutString
 1768              	.LVL212:
 1769              	.L119:
 168:.\main.c      ****     while(USBUART_1_CDCIsReady() == 0u);
 1770              		.loc 2 168 0 discriminator 1
 1771 005c FFF7FEFF 		bl	USBUART_1_CDCIsReady
 1772              	.LVL213:
 1773 0060 0028     		cmp	r0, #0
 1774 0062 FBD0     		beq	.L119
 169:.\main.c      ****     USBUART_1_PutString(", AccelZ=");
 1775              		.loc 2 169 0
 1776 0064 7448     		ldr	r0, .L143+24
 1777 0066 FFF7FEFF 		bl	USBUART_1_PutString
 1778              	.LVL214:
 170:.\main.c      ****     Convert_Float2String(DisplayBuffer, AccelZ);
 1779              		.loc 2 170 0
 1780 006a 744B     		ldr	r3, .L143+28
 1781 006c 1968     		ldr	r1, [r3]	@ float
 1782 006e 6F48     		ldr	r0, .L143+12
 1783 0070 FFF7FEFF 		bl	Convert_Float2String
 1784              	.LVL215:
 1785              	.L120:
 171:.\main.c      ****     while(USBUART_1_CDCIsReady() == 0u);
 1786              		.loc 2 171 0 discriminator 1
 1787 0074 FFF7FEFF 		bl	USBUART_1_CDCIsReady
 1788              	.LVL216:
 1789 0078 0028     		cmp	r0, #0
 1790 007a FBD0     		beq	.L120
 172:.\main.c      ****     USBUART_1_PutString(DisplayBuffer);
 1791              		.loc 2 172 0
 1792 007c 6B48     		ldr	r0, .L143+12
 1793 007e FFF7FEFF 		bl	USBUART_1_PutString
 1794              	.LVL217:
 1795              	.L121:
 173:.\main.c      ****     
 174:.\main.c      ****     while(USBUART_1_CDCIsReady() == 0u);
 1796              		.loc 2 174 0 discriminator 1
 1797 0082 FFF7FEFF 		bl	USBUART_1_CDCIsReady
 1798              	.LVL218:
 1799 0086 0028     		cmp	r0, #0
 1800 0088 FBD0     		beq	.L121
 175:.\main.c      ****     USBUART_1_PutString("\nOmegaX=");
 1801              		.loc 2 175 0
 1802 008a 6D48     		ldr	r0, .L143+32
 1803 008c FFF7FEFF 		bl	USBUART_1_PutString
 1804              	.LVL219:
 176:.\main.c      ****     Convert_Float2String(DisplayBuffer, OmegaX);
 1805              		.loc 2 176 0
 1806 0090 6C4B     		ldr	r3, .L143+36
 1807 0092 1968     		ldr	r1, [r3]	@ float
 1808 0094 6548     		ldr	r0, .L143+12
ARM GAS  C:\Users\ADMINI~1\AppData\Local\Temp\ccpQE0Fa.s 			page 41


 1809 0096 FFF7FEFF 		bl	Convert_Float2String
 1810              	.LVL220:
 1811              	.L122:
 177:.\main.c      ****     while(USBUART_1_CDCIsReady() == 0u);
 1812              		.loc 2 177 0 discriminator 1
 1813 009a FFF7FEFF 		bl	USBUART_1_CDCIsReady
 1814              	.LVL221:
 1815 009e 0028     		cmp	r0, #0
 1816 00a0 FBD0     		beq	.L122
 178:.\main.c      ****     USBUART_1_PutString(DisplayBuffer);
 1817              		.loc 2 178 0
 1818 00a2 6248     		ldr	r0, .L143+12
 1819 00a4 FFF7FEFF 		bl	USBUART_1_PutString
 1820              	.LVL222:
 1821              	.L123:
 179:.\main.c      ****     while(USBUART_1_CDCIsReady() == 0u);
 1822              		.loc 2 179 0 discriminator 1
 1823 00a8 FFF7FEFF 		bl	USBUART_1_CDCIsReady
 1824              	.LVL223:
 1825 00ac 0028     		cmp	r0, #0
 1826 00ae FBD0     		beq	.L123
 180:.\main.c      ****     USBUART_1_PutString(", OmegaY=");
 1827              		.loc 2 180 0
 1828 00b0 6548     		ldr	r0, .L143+40
 1829 00b2 FFF7FEFF 		bl	USBUART_1_PutString
 1830              	.LVL224:
 181:.\main.c      ****     Convert_Float2String(DisplayBuffer, OmegaY);
 1831              		.loc 2 181 0
 1832 00b6 654B     		ldr	r3, .L143+44
 1833 00b8 1968     		ldr	r1, [r3]	@ float
 1834 00ba 5C48     		ldr	r0, .L143+12
 1835 00bc FFF7FEFF 		bl	Convert_Float2String
 1836              	.LVL225:
 1837              	.L124:
 182:.\main.c      ****     while(USBUART_1_CDCIsReady() == 0u);
 1838              		.loc 2 182 0 discriminator 1
 1839 00c0 FFF7FEFF 		bl	USBUART_1_CDCIsReady
 1840              	.LVL226:
 1841 00c4 0028     		cmp	r0, #0
 1842 00c6 FBD0     		beq	.L124
 183:.\main.c      ****     USBUART_1_PutString(DisplayBuffer);
 1843              		.loc 2 183 0
 1844 00c8 5848     		ldr	r0, .L143+12
 1845 00ca FFF7FEFF 		bl	USBUART_1_PutString
 1846              	.LVL227:
 1847              	.L125:
 184:.\main.c      ****     while(USBUART_1_CDCIsReady() == 0u);
 1848              		.loc 2 184 0 discriminator 1
 1849 00ce FFF7FEFF 		bl	USBUART_1_CDCIsReady
 1850              	.LVL228:
 1851 00d2 0028     		cmp	r0, #0
 1852 00d4 FBD0     		beq	.L125
 185:.\main.c      ****     USBUART_1_PutString(", OmegaZ=");
 1853              		.loc 2 185 0
 1854 00d6 5E48     		ldr	r0, .L143+48
 1855 00d8 FFF7FEFF 		bl	USBUART_1_PutString
 1856              	.LVL229:
ARM GAS  C:\Users\ADMINI~1\AppData\Local\Temp\ccpQE0Fa.s 			page 42


 186:.\main.c      ****     Convert_Float2String(DisplayBuffer, OmegaZ);
 1857              		.loc 2 186 0
 1858 00dc 5D4B     		ldr	r3, .L143+52
 1859 00de 1968     		ldr	r1, [r3]	@ float
 1860 00e0 5248     		ldr	r0, .L143+12
 1861 00e2 FFF7FEFF 		bl	Convert_Float2String
 1862              	.LVL230:
 1863              	.L126:
 187:.\main.c      ****     while(USBUART_1_CDCIsReady() == 0u);
 1864              		.loc 2 187 0 discriminator 1
 1865 00e6 FFF7FEFF 		bl	USBUART_1_CDCIsReady
 1866              	.LVL231:
 1867 00ea 0028     		cmp	r0, #0
 1868 00ec FBD0     		beq	.L126
 188:.\main.c      ****     USBUART_1_PutString(DisplayBuffer);
 1869              		.loc 2 188 0
 1870 00ee 4F48     		ldr	r0, .L143+12
 1871 00f0 FFF7FEFF 		bl	USBUART_1_PutString
 1872              	.LVL232:
 1873              	.L127:
 189:.\main.c      ****     
 190:.\main.c      ****     while(USBUART_1_CDCIsReady() == 0u);
 1874              		.loc 2 190 0 discriminator 1
 1875 00f4 FFF7FEFF 		bl	USBUART_1_CDCIsReady
 1876              	.LVL233:
 1877 00f8 0028     		cmp	r0, #0
 1878 00fa FBD0     		beq	.L127
 191:.\main.c      ****     USBUART_1_PutString("\nRoll=");
 1879              		.loc 2 191 0
 1880 00fc 5648     		ldr	r0, .L143+56
 1881 00fe FFF7FEFF 		bl	USBUART_1_PutString
 1882              	.LVL234:
 192:.\main.c      ****     Convert_Float2String(DisplayBuffer, Roll);
 1883              		.loc 2 192 0
 1884 0102 564B     		ldr	r3, .L143+60
 1885 0104 1968     		ldr	r1, [r3]	@ float
 1886 0106 4948     		ldr	r0, .L143+12
 1887 0108 FFF7FEFF 		bl	Convert_Float2String
 1888              	.LVL235:
 1889              	.L128:
 193:.\main.c      ****     while(USBUART_1_CDCIsReady() == 0u);
 1890              		.loc 2 193 0 discriminator 1
 1891 010c FFF7FEFF 		bl	USBUART_1_CDCIsReady
 1892              	.LVL236:
 1893 0110 0028     		cmp	r0, #0
 1894 0112 FBD0     		beq	.L128
 194:.\main.c      ****     USBUART_1_PutString(DisplayBuffer);
 1895              		.loc 2 194 0
 1896 0114 4548     		ldr	r0, .L143+12
 1897 0116 FFF7FEFF 		bl	USBUART_1_PutString
 1898              	.LVL237:
 1899              	.L129:
 195:.\main.c      ****     while(USBUART_1_CDCIsReady() == 0u);
 1900              		.loc 2 195 0 discriminator 1
 1901 011a FFF7FEFF 		bl	USBUART_1_CDCIsReady
 1902              	.LVL238:
 1903 011e 0028     		cmp	r0, #0
ARM GAS  C:\Users\ADMINI~1\AppData\Local\Temp\ccpQE0Fa.s 			page 43


 1904 0120 FBD0     		beq	.L129
 196:.\main.c      ****     USBUART_1_PutString(", Pitch=");
 1905              		.loc 2 196 0
 1906 0122 4F48     		ldr	r0, .L143+64
 1907 0124 FFF7FEFF 		bl	USBUART_1_PutString
 1908              	.LVL239:
 197:.\main.c      ****     Convert_Float2String(DisplayBuffer, Pitch);
 1909              		.loc 2 197 0
 1910 0128 4E4B     		ldr	r3, .L143+68
 1911 012a 1968     		ldr	r1, [r3]	@ float
 1912 012c 3F48     		ldr	r0, .L143+12
 1913 012e FFF7FEFF 		bl	Convert_Float2String
 1914              	.LVL240:
 1915              	.L130:
 198:.\main.c      ****     while(USBUART_1_CDCIsReady() == 0u);
 1916              		.loc 2 198 0 discriminator 1
 1917 0132 FFF7FEFF 		bl	USBUART_1_CDCIsReady
 1918              	.LVL241:
 1919 0136 0028     		cmp	r0, #0
 1920 0138 FBD0     		beq	.L130
 199:.\main.c      ****     USBUART_1_PutString(DisplayBuffer);
 1921              		.loc 2 199 0
 1922 013a 3C48     		ldr	r0, .L143+12
 1923 013c FFF7FEFF 		bl	USBUART_1_PutString
 1924              	.LVL242:
 1925              	.L131:
 200:.\main.c      ****     while(USBUART_1_CDCIsReady() == 0u);
 1926              		.loc 2 200 0 discriminator 1
 1927 0140 FFF7FEFF 		bl	USBUART_1_CDCIsReady
 1928              	.LVL243:
 1929 0144 0028     		cmp	r0, #0
 1930 0146 FBD0     		beq	.L131
 201:.\main.c      ****     USBUART_1_PutString(", Yaw=");
 1931              		.loc 2 201 0
 1932 0148 4748     		ldr	r0, .L143+72
 1933 014a FFF7FEFF 		bl	USBUART_1_PutString
 1934              	.LVL244:
 202:.\main.c      ****     Convert_Float2String(DisplayBuffer, Yaw);
 1935              		.loc 2 202 0
 1936 014e 474B     		ldr	r3, .L143+76
 1937 0150 1968     		ldr	r1, [r3]	@ float
 1938 0152 3648     		ldr	r0, .L143+12
 1939 0154 FFF7FEFF 		bl	Convert_Float2String
 1940              	.LVL245:
 1941              	.L132:
 203:.\main.c      ****     while(USBUART_1_CDCIsReady() == 0u);
 1942              		.loc 2 203 0 discriminator 1
 1943 0158 FFF7FEFF 		bl	USBUART_1_CDCIsReady
 1944              	.LVL246:
 1945 015c 0028     		cmp	r0, #0
 1946 015e FBD0     		beq	.L132
 204:.\main.c      ****     USBUART_1_PutString(DisplayBuffer);
 1947              		.loc 2 204 0
 1948 0160 3248     		ldr	r0, .L143+12
 1949 0162 FFF7FEFF 		bl	USBUART_1_PutString
 1950              	.LVL247:
 1951              	.L133:
ARM GAS  C:\Users\ADMINI~1\AppData\Local\Temp\ccpQE0Fa.s 			page 44


 205:.\main.c      ****     
 206:.\main.c      ****     while(USBUART_1_CDCIsReady() == 0u);
 1952              		.loc 2 206 0 discriminator 1
 1953 0166 FFF7FEFF 		bl	USBUART_1_CDCIsReady
 1954              	.LVL248:
 1955 016a 0028     		cmp	r0, #0
 1956 016c FBD0     		beq	.L133
 207:.\main.c      ****     USBUART_1_PutString("\nHx=");
 1957              		.loc 2 207 0
 1958 016e 4048     		ldr	r0, .L143+80
 1959 0170 FFF7FEFF 		bl	USBUART_1_PutString
 1960              	.LVL249:
 208:.\main.c      ****     Convert_Float2String(DisplayBuffer, MagX);
 1961              		.loc 2 208 0
 1962 0174 3F4B     		ldr	r3, .L143+84
 1963 0176 1868     		ldr	r0, [r3]
 1964 0178 FFF7FEFF 		bl	__aeabi_i2f
 1965              	.LVL250:
 1966 017c 0146     		mov	r1, r0
 1967 017e 2B48     		ldr	r0, .L143+12
 1968 0180 FFF7FEFF 		bl	Convert_Float2String
 1969              	.LVL251:
 1970              	.L134:
 209:.\main.c      ****     while(USBUART_1_CDCIsReady() == 0u);
 1971              		.loc 2 209 0 discriminator 1
 1972 0184 FFF7FEFF 		bl	USBUART_1_CDCIsReady
 1973              	.LVL252:
 1974 0188 0028     		cmp	r0, #0
 1975 018a FBD0     		beq	.L134
 210:.\main.c      ****     USBUART_1_PutString(DisplayBuffer);
 1976              		.loc 2 210 0
 1977 018c 2748     		ldr	r0, .L143+12
 1978 018e FFF7FEFF 		bl	USBUART_1_PutString
 1979              	.LVL253:
 1980              	.L135:
 211:.\main.c      ****     while(USBUART_1_CDCIsReady() == 0u);
 1981              		.loc 2 211 0 discriminator 1
 1982 0192 FFF7FEFF 		bl	USBUART_1_CDCIsReady
 1983              	.LVL254:
 1984 0196 0028     		cmp	r0, #0
 1985 0198 FBD0     		beq	.L135
 212:.\main.c      ****     USBUART_1_PutString(", Hy=");
 1986              		.loc 2 212 0
 1987 019a 3748     		ldr	r0, .L143+88
 1988 019c FFF7FEFF 		bl	USBUART_1_PutString
 1989              	.LVL255:
 213:.\main.c      ****     Convert_Float2String(DisplayBuffer, MagY);
 1990              		.loc 2 213 0
 1991 01a0 364B     		ldr	r3, .L143+92
 1992 01a2 1868     		ldr	r0, [r3]
 1993 01a4 FFF7FEFF 		bl	__aeabi_i2f
 1994              	.LVL256:
 1995 01a8 0146     		mov	r1, r0
 1996 01aa 2048     		ldr	r0, .L143+12
 1997 01ac FFF7FEFF 		bl	Convert_Float2String
 1998              	.LVL257:
 1999              	.L136:
ARM GAS  C:\Users\ADMINI~1\AppData\Local\Temp\ccpQE0Fa.s 			page 45


 214:.\main.c      ****     while(USBUART_1_CDCIsReady() == 0u);
 2000              		.loc 2 214 0 discriminator 1
 2001 01b0 FFF7FEFF 		bl	USBUART_1_CDCIsReady
 2002              	.LVL258:
 2003 01b4 0028     		cmp	r0, #0
 2004 01b6 FBD0     		beq	.L136
 215:.\main.c      ****     USBUART_1_PutString(DisplayBuffer);
 2005              		.loc 2 215 0
 2006 01b8 1C48     		ldr	r0, .L143+12
 2007 01ba FFF7FEFF 		bl	USBUART_1_PutString
 2008              	.LVL259:
 2009              	.L137:
 216:.\main.c      ****     while(USBUART_1_CDCIsReady() == 0u);
 2010              		.loc 2 216 0 discriminator 1
 2011 01be FFF7FEFF 		bl	USBUART_1_CDCIsReady
 2012              	.LVL260:
 2013 01c2 0028     		cmp	r0, #0
 2014 01c4 FBD0     		beq	.L137
 217:.\main.c      ****     USBUART_1_PutString(", Hz=");
 2015              		.loc 2 217 0
 2016 01c6 2E48     		ldr	r0, .L143+96
 2017 01c8 FFF7FEFF 		bl	USBUART_1_PutString
 2018              	.LVL261:
 218:.\main.c      ****     Convert_Float2String(DisplayBuffer, MagZ);
 2019              		.loc 2 218 0
 2020 01cc 2D4B     		ldr	r3, .L143+100
 2021 01ce 1868     		ldr	r0, [r3]
 2022 01d0 FFF7FEFF 		bl	__aeabi_i2f
 2023              	.LVL262:
 2024 01d4 0146     		mov	r1, r0
 2025 01d6 1548     		ldr	r0, .L143+12
 2026 01d8 FFF7FEFF 		bl	Convert_Float2String
 2027              	.LVL263:
 2028              	.L138:
 219:.\main.c      ****     while(USBUART_1_CDCIsReady() == 0u);
 2029              		.loc 2 219 0 discriminator 1
 2030 01dc FFF7FEFF 		bl	USBUART_1_CDCIsReady
 2031              	.LVL264:
 2032 01e0 0028     		cmp	r0, #0
 2033 01e2 FBD0     		beq	.L138
 220:.\main.c      ****     USBUART_1_PutString(DisplayBuffer);
 2034              		.loc 2 220 0
 2035 01e4 1148     		ldr	r0, .L143+12
 2036 01e6 FFF7FEFF 		bl	USBUART_1_PutString
 2037              	.LVL265:
 2038              	.L139:
 221:.\main.c      ****     
 222:.\main.c      ****     while(USBUART_1_CDCIsReady() == 0u);
 2039              		.loc 2 222 0 discriminator 1
 2040 01ea FFF7FEFF 		bl	USBUART_1_CDCIsReady
 2041              	.LVL266:
 2042 01ee 0028     		cmp	r0, #0
 2043 01f0 FBD0     		beq	.L139
 223:.\main.c      ****     USBUART_1_PutString("\nTemp=");
 2044              		.loc 2 223 0
 2045 01f2 2548     		ldr	r0, .L143+104
 2046 01f4 FFF7FEFF 		bl	USBUART_1_PutString
ARM GAS  C:\Users\ADMINI~1\AppData\Local\Temp\ccpQE0Fa.s 			page 46


 2047              	.LVL267:
 224:.\main.c      ****     Convert_Float2String(DisplayBuffer, Temperature);
 2048              		.loc 2 224 0
 2049 01f8 244B     		ldr	r3, .L143+108
 2050 01fa 1968     		ldr	r1, [r3]	@ float
 2051 01fc 0B48     		ldr	r0, .L143+12
 2052 01fe FFF7FEFF 		bl	Convert_Float2String
 2053              	.LVL268:
 2054              	.L140:
 225:.\main.c      ****     while(USBUART_1_CDCIsReady() == 0u);
 2055              		.loc 2 225 0 discriminator 1
 2056 0202 FFF7FEFF 		bl	USBUART_1_CDCIsReady
 2057              	.LVL269:
 2058 0206 0028     		cmp	r0, #0
 2059 0208 FBD0     		beq	.L140
 226:.\main.c      ****     USBUART_1_PutString(DisplayBuffer);
 2060              		.loc 2 226 0
 2061 020a 0848     		ldr	r0, .L143+12
 2062 020c FFF7FEFF 		bl	USBUART_1_PutString
 2063              	.LVL270:
 2064              	.L141:
 227:.\main.c      ****     while(USBUART_1_CDCIsReady() == 0u);
 2065              		.loc 2 227 0 discriminator 1
 2066 0210 FFF7FEFF 		bl	USBUART_1_CDCIsReady
 2067              	.LVL271:
 2068 0214 0028     		cmp	r0, #0
 2069 0216 FBD0     		beq	.L141
 228:.\main.c      ****     USBUART_1_PutString("\n\n");
 2070              		.loc 2 228 0
 2071 0218 1D48     		ldr	r0, .L143+112
 2072 021a FFF7FEFF 		bl	USBUART_1_PutString
 2073              	.LVL272:
 2074 021e 08BD     		pop	{r3, pc}
 2075              	.L144:
 2076              		.align	2
 2077              	.L143:
 2078 0220 28000000 		.word	.LC4
 2079 0224 40000000 		.word	.LC5
 2080 0228 00000000 		.word	AccelX
 2081 022c 00000000 		.word	DisplayBuffer
 2082 0230 48000000 		.word	.LC6
 2083 0234 00000000 		.word	AccelY
 2084 0238 54000000 		.word	.LC7
 2085 023c 00000000 		.word	AccelZ
 2086 0240 60000000 		.word	.LC8
 2087 0244 00000000 		.word	OmegaX
 2088 0248 6C000000 		.word	.LC9
 2089 024c 00000000 		.word	OmegaY
 2090 0250 78000000 		.word	.LC10
 2091 0254 00000000 		.word	OmegaZ
 2092 0258 84000000 		.word	.LC11
 2093 025c 00000000 		.word	Roll
 2094 0260 8C000000 		.word	.LC12
 2095 0264 00000000 		.word	Pitch
 2096 0268 98000000 		.word	.LC13
 2097 026c 00000000 		.word	Yaw
 2098 0270 A0000000 		.word	.LC14
ARM GAS  C:\Users\ADMINI~1\AppData\Local\Temp\ccpQE0Fa.s 			page 47


 2099 0274 00000000 		.word	MagX
 2100 0278 A8000000 		.word	.LC15
 2101 027c 00000000 		.word	MagY
 2102 0280 B0000000 		.word	.LC16
 2103 0284 00000000 		.word	MagZ
 2104 0288 B8000000 		.word	.LC17
 2105 028c 00000000 		.word	Temperature
 2106 0290 C0000000 		.word	.LC18
 2107              		.cfi_endproc
 2108              	.LFE80:
 2109              		.size	JY901_Debug_Display, .-JY901_Debug_Display
 2110              		.section	.text.main,"ax",%progbits
 2111              		.align	2
 2112              		.global	main
 2113              		.thumb
 2114              		.thumb_func
 2115              		.type	main, %function
 2116              	main:
 2117              	.LFB81:
 229:.\main.c      **** }
 230:.\main.c      **** 
 231:.\main.c      **** //主函数
 232:.\main.c      **** char tmpbuf[10];
 233:.\main.c      **** int main()
 234:.\main.c      **** {
 2118              		.loc 2 234 0
 2119              		.cfi_startproc
 2120              		@ args = 0, pretend = 0, frame = 0
 2121              		@ frame_needed = 0, uses_anonymous_args = 0
 2122 0000 2DE9F041 		push	{r4, r5, r6, r7, r8, lr}
 2123              		.cfi_def_cfa_offset 24
 2124              		.cfi_offset 4, -24
 2125              		.cfi_offset 5, -20
 2126              		.cfi_offset 6, -16
 2127              		.cfi_offset 7, -12
 2128              		.cfi_offset 8, -8
 2129              		.cfi_offset 14, -4
 235:.\main.c      ****     CyGlobalIntEnable; /* Enable global interrupts. */
 2130              		.loc 2 235 0
 2131              	@ 235 ".\main.c" 1
 2132 0004 62B6     		CPSIE   i
 2133              	@ 0 "" 2
 236:.\main.c      ****     
 237:.\main.c      ****     //LCD显示相关
 238:.\main.c      ****     LCD_Start();
 2134              		.loc 2 238 0
 2135              		.thumb
 2136 0006 FFF7FEFF 		bl	LCD_Start
 2137              	.LVL273:
 239:.\main.c      ****     LCD_Disp("Init     ", 0, 0);
 2138              		.loc 2 239 0
 2139 000a 2B48     		ldr	r0, .L149
 2140 000c 0021     		movs	r1, #0
 2141 000e 0A46     		mov	r2, r1
 2142 0010 FFF7FEFF 		bl	LCD_Disp
 2143              	.LVL274:
 240:.\main.c      ****     
ARM GAS  C:\Users\ADMINI~1\AppData\Local\Temp\ccpQE0Fa.s 			page 48


 241:.\main.c      ****     //定时器/PWM相关
 242:.\main.c      ****     isr_Timer_1_StartEx(Timer_1_Interrupt_Handler);
 2144              		.loc 2 242 0
 2145 0014 2948     		ldr	r0, .L149+4
 2146 0016 FFF7FEFF 		bl	isr_Timer_1_StartEx
 2147              	.LVL275:
 243:.\main.c      ****     Timer_1_Start();
 2148              		.loc 2 243 0
 2149 001a FFF7FEFF 		bl	Timer_1_Start
 2150              	.LVL276:
 244:.\main.c      ****     Initialize_All_PWM();
 2151              		.loc 2 244 0
 2152 001e FFF7FEFF 		bl	Initialize_All_PWM
 2153              	.LVL277:
 245:.\main.c      ****     
 246:.\main.c      ****     //USBUART相关
 247:.\main.c      ****     USBUART_1_Start(0u, USBUART_1_3V_OPERATION);
 2154              		.loc 2 247 0
 2155 0022 0020     		movs	r0, #0
 2156 0024 0146     		mov	r1, r0
 2157 0026 FFF7FEFF 		bl	USBUART_1_Start
 2158              	.LVL278:
 2159              	.L146:
 248:.\main.c      ****     while(!USBUART_1_GetConfiguration());
 2160              		.loc 2 248 0 discriminator 1
 2161 002a FFF7FEFF 		bl	USBUART_1_GetConfiguration
 2162              	.LVL279:
 2163 002e 0028     		cmp	r0, #0
 2164 0030 FBD0     		beq	.L146
 249:.\main.c      ****     USBUART_1_CDC_Init();
 2165              		.loc 2 249 0
 2166 0032 FFF7FEFF 		bl	USBUART_1_CDC_Init
 2167              	.LVL280:
 250:.\main.c      ****     
 251:.\main.c      ****     //USBUART_1_PutData(buffer, length);
 252:.\main.c      ****     //USBUART_1_PutString(str);
 253:.\main.c      ****     
 254:.\main.c      ****     //蓝牙相关
 255:.\main.c      ****     BTRxBufLen = 0;
 2168              		.loc 2 255 0
 2169 0036 0024     		movs	r4, #0
 2170 0038 214B     		ldr	r3, .L149+8
 2171 003a 1C70     		strb	r4, [r3]
 256:.\main.c      ****     UART_Bluetooth_Start();
 2172              		.loc 2 256 0
 2173 003c FFF7FEFF 		bl	UART_Bluetooth_Start
 2174              	.LVL281:
 257:.\main.c      ****     UART_Bluetooth_Init();
 2175              		.loc 2 257 0
 2176 0040 FFF7FEFF 		bl	UART_Bluetooth_Init
 2177              	.LVL282:
 258:.\main.c      ****     isr_RX_StartEx(Bluetooth_RX_Interrupt_Handler);
 2178              		.loc 2 258 0
 2179 0044 1F48     		ldr	r0, .L149+12
 2180 0046 FFF7FEFF 		bl	isr_RX_StartEx
 2181              	.LVL283:
 259:.\main.c      ****     
ARM GAS  C:\Users\ADMINI~1\AppData\Local\Temp\ccpQE0Fa.s 			page 49


 260:.\main.c      ****     //JY901串口相关
 261:.\main.c      ****     JY901RxBufLen = 0;
 2182              		.loc 2 261 0
 2183 004a 1F4B     		ldr	r3, .L149+16
 2184 004c 1C70     		strb	r4, [r3]
 262:.\main.c      ****     UART_JY901_Start();
 2185              		.loc 2 262 0
 2186 004e FFF7FEFF 		bl	UART_JY901_Start
 2187              	.LVL284:
 263:.\main.c      ****     UART_JY901_Init();
 2188              		.loc 2 263 0
 2189 0052 FFF7FEFF 		bl	UART_JY901_Init
 2190              	.LVL285:
 264:.\main.c      ****     isr_jyRX_StartEx(JY901_RX_Interrupt_Handler);
 2191              		.loc 2 264 0
 2192 0056 1D48     		ldr	r0, .L149+20
 2193 0058 FFF7FEFF 		bl	isr_jyRX_StartEx
 2194              	.LVL286:
 265:.\main.c      ****     Init_JY901_Data();
 2195              		.loc 2 265 0
 2196 005c FFF7FEFF 		bl	Init_JY901_Data
 2197              	.LVL287:
 266:.\main.c      ****     
 267:.\main.c      ****     //初始化控制算法变量
 268:.\main.c      ****     Control_Func_InitVariable();
 2198              		.loc 2 268 0
 2199 0060 FFF7FEFF 		bl	Control_Func_InitVariable
 2200              	.LVL288:
 269:.\main.c      ****     
 270:.\main.c      ****     //控制算法定时器
 271:.\main.c      ****     //isr_Ctrl_StartEx(Control_Main);
 272:.\main.c      ****     //Timer_Control_Start();
 273:.\main.c      ****     
 274:.\main.c      ****     LCD_Disp("Start    ", 0, 0);
 2201              		.loc 2 274 0
 2202 0064 1A48     		ldr	r0, .L149+24
 2203 0066 2146     		mov	r1, r4
 2204 0068 2246     		mov	r2, r4
 2205 006a FFF7FEFF 		bl	LCD_Disp
 2206              	.LVL289:
 275:.\main.c      ****     Motor_v_1 = Motor_v_2 = Motor_v_3 = Motor_v_4 = 0;
 2207              		.loc 2 275 0
 2208 006e DFF87880 		ldr	r8, .L149+48
 2209 0072 C8F80040 		str	r4, [r8]
 2210 0076 174F     		ldr	r7, .L149+28
 2211 0078 3C60     		str	r4, [r7]
 2212 007a 174E     		ldr	r6, .L149+32
 2213 007c 3460     		str	r4, [r6]
 2214 007e 174D     		ldr	r5, .L149+36
 2215 0080 2C60     		str	r4, [r5]
 2216              	.LVL290:
 276:.\main.c      ****     
 277:.\main.c      ****     int velocity = 200;
 278:.\main.c      ****     
 279:.\main.c      ****     BT_Throttle = 0;
 2217              		.loc 2 279 0
 2218 0082 174B     		ldr	r3, .L149+40
ARM GAS  C:\Users\ADMINI~1\AppData\Local\Temp\ccpQE0Fa.s 			page 50


 2219 0084 1C60     		str	r4, [r3]
 280:.\main.c      ****     BT_Pitch = 512;
 2220              		.loc 2 280 0
 2221 0086 4FF40072 		mov	r2, #512
 2222 008a DA60     		str	r2, [r3, #12]
 281:.\main.c      ****     BT_Roll = 512;
 2223              		.loc 2 281 0
 2224 008c 9A60     		str	r2, [r3, #8]
 282:.\main.c      ****     BT_Yaw = 512;
 2225              		.loc 2 282 0
 2226 008e 5A60     		str	r2, [r3, #4]
 283:.\main.c      ****     CyDelay(10000);
 2227              		.loc 2 283 0
 2228 0090 42F21070 		movw	r0, #10000
 2229 0094 FFF7FEFF 		bl	CyDelay
 2230              	.LVL291:
 284:.\main.c      ****     LCD_Disp("Ready    ", 0, 0);
 2231              		.loc 2 284 0
 2232 0098 1248     		ldr	r0, .L149+44
 2233 009a 2146     		mov	r1, r4
 2234 009c 2246     		mov	r2, r4
 2235 009e FFF7FEFF 		bl	LCD_Disp
 2236              	.LVL292:
 285:.\main.c      ****     
 286:.\main.c      ****     //仅供测试
 287:.\main.c      ****     /*Motor_v_1 = Motor_v_2 = Motor_v_3 = Motor_v_4 = 0;
 288:.\main.c      ****     Motor_v_1 = velocity;
 289:.\main.c      ****     LCD_Disp("Run 1    ", 0, 0);
 290:.\main.c      ****     CyDelay(1000);
 291:.\main.c      ****     
 292:.\main.c      ****     Motor_v_1 = Motor_v_2 = Motor_v_3 = Motor_v_4 = 0;
 293:.\main.c      ****     Motor_v_2 = velocity;
 294:.\main.c      ****     LCD_Disp("Run 2    ", 0, 0);
 295:.\main.c      ****     CyDelay(1000);
 296:.\main.c      ****     
 297:.\main.c      ****     Motor_v_1 = Motor_v_2 = Motor_v_3 = Motor_v_4 = 0;
 298:.\main.c      ****     Motor_v_3 = velocity;
 299:.\main.c      ****     LCD_Disp("Run 3    ", 0, 0);
 300:.\main.c      ****     CyDelay(1000);
 301:.\main.c      ****     
 302:.\main.c      ****     Motor_v_1 = Motor_v_2 = Motor_v_3 = Motor_v_4 = 0;
 303:.\main.c      ****     Motor_v_4 = velocity;
 304:.\main.c      ****     LCD_Disp("Run 4    ", 0, 0);
 305:.\main.c      ****     CyDelay(1000);*/
 306:.\main.c      ****     
 307:.\main.c      ****     Motor_v_1 = Motor_v_2 = Motor_v_3 = Motor_v_4 = 0;
 2237              		.loc 2 307 0
 2238 00a2 C8F80040 		str	r4, [r8]
 2239 00a6 3C60     		str	r4, [r7]
 2240 00a8 3460     		str	r4, [r6]
 2241 00aa 2C60     		str	r4, [r5]
 2242              	.L147:
 308:.\main.c      **** 
 309:.\main.c      ****     //设置电机停转
 310:.\main.c      ****     for(;;) {
 311:.\main.c      ****         /*BT_Throttle = 300;
 312:.\main.c      ****         BT_Pitch = 512;
ARM GAS  C:\Users\ADMINI~1\AppData\Local\Temp\ccpQE0Fa.s 			page 51


 313:.\main.c      ****         BT_Roll = 512;
 314:.\main.c      ****         BT_Yaw = 512;*/
 315:.\main.c      ****         //JY901_Debug_Display(); //每隔1秒通过串口向上位机输出JY901数据
 316:.\main.c      ****         //Motor_v_1 = Motor_v_2 = Motor_v_3 = Motor_v_4 = 0;
 317:.\main.c      ****         //CyDelay(500);
 318:.\main.c      ****         Control_Main();
 2243              		.loc 2 318 0 discriminator 1
 2244 00ac FFF7FEFF 		bl	Control_Main
 2245              	.LVL293:
 319:.\main.c      ****         CyDelay(100);
 2246              		.loc 2 319 0 discriminator 1
 2247 00b0 6420     		movs	r0, #100
 2248 00b2 FFF7FEFF 		bl	CyDelay
 2249              	.LVL294:
 320:.\main.c      ****     }
 2250              		.loc 2 320 0 discriminator 1
 2251 00b6 F9E7     		b	.L147
 2252              	.L150:
 2253              		.align	2
 2254              	.L149:
 2255 00b8 C4000000 		.word	.LC19
 2256 00bc 00000000 		.word	Timer_1_Interrupt_Handler
 2257 00c0 00000000 		.word	BTRxBufLen
 2258 00c4 00000000 		.word	Bluetooth_RX_Interrupt_Handler
 2259 00c8 00000000 		.word	JY901RxBufLen
 2260 00cc 00000000 		.word	JY901_RX_Interrupt_Handler
 2261 00d0 D0000000 		.word	.LC20
 2262 00d4 00000000 		.word	Motor_v_3
 2263 00d8 00000000 		.word	Motor_v_2
 2264 00dc 00000000 		.word	Motor_v_1
 2265 00e0 00000000 		.word	.LANCHOR0
 2266 00e4 DC000000 		.word	.LC21
 2267 00e8 00000000 		.word	Motor_v_4
 2268              		.cfi_endproc
 2269              	.LFE81:
 2270              		.size	main, .-main
 2271              		.comm	tmpbuf,10,4
 2272              		.comm	DisplayBuffer,128,4
 2273              		.comm	f_tmp,4,4
 2274              		.comm	symbol,1,1
 2275              		.comm	float2int_tmp,4,4
 2276              		.comm	LCDBuffer,16,4
 2277              		.comm	decode_success,4,4
 2278              		.global	flag_rec
 2279              		.global	flag_55
 2280              		.comm	tmp2,1,1
 2281              		.comm	JY901RxBufLen,1,1
 2282              		.comm	JY901RxBuf,64,4
 2283              		.global	flag
 2284              		.comm	tmp,1,1
 2285              		.comm	BTRxBufLen,1,1
 2286              		.comm	BTRxBuf,64,4
 2287              		.comm	last_Motor_v_4,4,4
 2288              		.comm	last_Motor_v_3,4,4
 2289              		.comm	last_Motor_v_2,4,4
 2290              		.comm	last_Motor_v_1,4,4
 2291              		.comm	Motor_v_4,4,4
ARM GAS  C:\Users\ADMINI~1\AppData\Local\Temp\ccpQE0Fa.s 			page 52


 2292              		.comm	Motor_v_3,4,4
 2293              		.comm	Motor_v_2,4,4
 2294              		.comm	Motor_v_1,4,4
 2295              		.comm	sum,4,4
 2296              		.comm	i,4,4
 2297              		.comm	Height,4,4
 2298              		.comm	Pressure,4,4
 2299              		.comm	MagZ,4,4
 2300              		.comm	MagY,4,4
 2301              		.comm	MagX,4,4
 2302              		.comm	Yaw,4,4
 2303              		.comm	Pitch,4,4
 2304              		.comm	Roll,4,4
 2305              		.comm	Temperature,4,4
 2306              		.comm	OmegaZ,4,4
 2307              		.comm	OmegaY,4,4
 2308              		.comm	OmegaX,4,4
 2309              		.comm	AccelZ,4,4
 2310              		.comm	AccelY,4,4
 2311              		.comm	AccelX,4,4
 2312              		.comm	Desire_w_yaw,4,4
 2313              		.comm	Desire_angle_roll,4,4
 2314              		.comm	Desire_angle_pitch,4,4
 2315              		.comm	pitch_angle_offset,4,4
 2316              		.comm	roll_angle_offset,4,4
 2317              		.global	BT_Roll
 2318              		.global	BT_Pitch
 2319              		.global	BT_Yaw
 2320              		.global	BT_Throttle
 2321              		.section	.rodata.str1.4,"aMS",%progbits,1
 2322              		.align	2
 2323              	.LC0:
 2324 0000 25632564 		.ascii	"%c%d.%d\000"
 2324      2E256400 
 2325              	.LC1:
 2326 0008 25632564 		.ascii	"%c%d.0%d\000"
 2326      2E302564 
 2326      00
 2327 0011 000000   		.space	3
 2328              	.LC2:
 2329 0014 25632564 		.ascii	"%c%d.00\000"
 2329      2E303000 
 2330              	.LC3:
 2331 001c 25632533 		.ascii	"%c%3d.%d\000"
 2331      642E2564 
 2331      00
 2332 0025 000000   		.space	3
 2333              	.LC4:
 2334 0028 3D3D3D3D 		.ascii	"===== Debug Data =====\012\000"
 2334      3D204465 
 2334      62756720 
 2334      44617461 
 2334      203D3D3D 
 2335              	.LC5:
 2336 0040 41636365 		.ascii	"AccelX=\000"
 2336      6C583D00 
 2337              	.LC6:
ARM GAS  C:\Users\ADMINI~1\AppData\Local\Temp\ccpQE0Fa.s 			page 53


 2338 0048 2C204163 		.ascii	", AccelY=\000"
 2338      63656C59 
 2338      3D00
 2339 0052 0000     		.space	2
 2340              	.LC7:
 2341 0054 2C204163 		.ascii	", AccelZ=\000"
 2341      63656C5A 
 2341      3D00
 2342 005e 0000     		.space	2
 2343              	.LC8:
 2344 0060 0A4F6D65 		.ascii	"\012OmegaX=\000"
 2344      6761583D 
 2344      00
 2345 0069 000000   		.space	3
 2346              	.LC9:
 2347 006c 2C204F6D 		.ascii	", OmegaY=\000"
 2347      65676159 
 2347      3D00
 2348 0076 0000     		.space	2
 2349              	.LC10:
 2350 0078 2C204F6D 		.ascii	", OmegaZ=\000"
 2350      6567615A 
 2350      3D00
 2351 0082 0000     		.space	2
 2352              	.LC11:
 2353 0084 0A526F6C 		.ascii	"\012Roll=\000"
 2353      6C3D00
 2354 008b 00       		.space	1
 2355              	.LC12:
 2356 008c 2C205069 		.ascii	", Pitch=\000"
 2356      7463683D 
 2356      00
 2357 0095 000000   		.space	3
 2358              	.LC13:
 2359 0098 2C205961 		.ascii	", Yaw=\000"
 2359      773D00
 2360 009f 00       		.space	1
 2361              	.LC14:
 2362 00a0 0A48783D 		.ascii	"\012Hx=\000"
 2362      00
 2363 00a5 000000   		.space	3
 2364              	.LC15:
 2365 00a8 2C204879 		.ascii	", Hy=\000"
 2365      3D00
 2366 00ae 0000     		.space	2
 2367              	.LC16:
 2368 00b0 2C20487A 		.ascii	", Hz=\000"
 2368      3D00
 2369 00b6 0000     		.space	2
 2370              	.LC17:
 2371 00b8 0A54656D 		.ascii	"\012Temp=\000"
 2371      703D00
 2372 00bf 00       		.space	1
 2373              	.LC18:
 2374 00c0 0A0A00   		.ascii	"\012\012\000"
 2375 00c3 00       		.space	1
 2376              	.LC19:
ARM GAS  C:\Users\ADMINI~1\AppData\Local\Temp\ccpQE0Fa.s 			page 54


 2377 00c4 496E6974 		.ascii	"Init     \000"
 2377      20202020 
 2377      2000
 2378 00ce 0000     		.space	2
 2379              	.LC20:
 2380 00d0 53746172 		.ascii	"Start    \000"
 2380      74202020 
 2380      2000
 2381 00da 0000     		.space	2
 2382              	.LC21:
 2383 00dc 52656164 		.ascii	"Ready    \000"
 2383      79202020 
 2383      2000
 2384 00e6 0000     		.bss
 2385              		.align	2
 2386              		.set	.LANCHOR0,. + 0
 2387              		.type	BT_Throttle, %object
 2388              		.size	BT_Throttle, 4
 2389              	BT_Throttle:
 2390 0000 00000000 		.space	4
 2391              		.type	BT_Yaw, %object
 2392              		.size	BT_Yaw, 4
 2393              	BT_Yaw:
 2394 0004 00000000 		.space	4
 2395              		.type	BT_Roll, %object
 2396              		.size	BT_Roll, 4
 2397              	BT_Roll:
 2398 0008 00000000 		.space	4
 2399              		.type	BT_Pitch, %object
 2400              		.size	BT_Pitch, 4
 2401              	BT_Pitch:
 2402 000c 00000000 		.space	4
 2403              		.type	flag, %object
 2404              		.size	flag, 4
 2405              	flag:
 2406 0010 00000000 		.space	4
 2407              		.type	flag_55, %object
 2408              		.size	flag_55, 4
 2409              	flag_55:
 2410 0014 00000000 		.space	4
 2411              		.type	flag_rec, %object
 2412              		.size	flag_rec, 4
 2413              	flag_rec:
 2414 0018 00000000 		.space	4
 2415              		.text
 2416              	.Letext0:
 2417              		.file 5 "d:\\program files (x86)\\cypress\\psoc creator\\3.3\\psoc creator\\import\\gnu\\arm\\4.9.
 2418              		.file 6 "d:\\program files (x86)\\cypress\\psoc creator\\3.3\\psoc creator\\import\\gnu\\arm\\4.9.
 2419              		.file 7 "Generated_Source\\PSoC5/cytypes.h"
 2420              		.file 8 "Generated_Source\\PSoC5/core_cm3.h"
 2421              		.file 9 "Generated_Source\\PSoC5/PWM_1.h"
 2422              		.file 10 "Generated_Source\\PSoC5/PWM_2.h"
 2423              		.file 11 "Generated_Source\\PSoC5/CyLib.h"
 2424              		.file 12 "Generated_Source\\PSoC5/UART_Bluetooth.h"
 2425              		.file 13 "Generated_Source\\PSoC5/UART_JY901.h"
 2426              		.file 14 "Generated_Source\\PSoC5/LCD.h"
 2427              		.file 15 "Generated_Source\\PSoC5/USBUART_1_cdc.h"
ARM GAS  C:\Users\ADMINI~1\AppData\Local\Temp\ccpQE0Fa.s 			page 55


 2428              		.file 16 "Generated_Source\\PSoC5/isr_Timer_1.h"
 2429              		.file 17 "Generated_Source\\PSoC5/Timer_1.h"
 2430              		.file 18 "Generated_Source\\PSoC5/USBUART_1.h"
 2431              		.file 19 "Generated_Source\\PSoC5/isr_RX.h"
 2432              		.file 20 "Generated_Source\\PSoC5/isr_jyRX.h"
 2433              		.file 21 "d:\\program files (x86)\\cypress\\psoc creator\\3.3\\psoc creator\\import\\gnu\\arm\\4.9
 2434              		.file 22 ".\\Control.h"