ARM GAS  C:\Users\ADMINI~1\AppData\Local\Temp\cc29a68g.s 			page 1


   1              		.syntax unified
   2              		.cpu cortex-m3
   3              		.fpu softvfp
   4              		.eabi_attribute 20, 1
   5              		.eabi_attribute 21, 1
   6              		.eabi_attribute 23, 3
   7              		.eabi_attribute 24, 1
   8              		.eabi_attribute 25, 1
   9              		.eabi_attribute 26, 1
  10              		.eabi_attribute 30, 1
  11              		.eabi_attribute 34, 1
  12              		.eabi_attribute 18, 4
  13              		.thumb
  14              		.file	"PWM_2_PM.c"
  15              		.text
  16              	.Ltext0:
  17              		.cfi_sections	.debug_frame
  18              		.section	.text.PWM_2_SaveConfig,"ax",%progbits
  19              		.align	2
  20              		.global	PWM_2_SaveConfig
  21              		.thumb
  22              		.thumb_func
  23              		.type	PWM_2_SaveConfig, %function
  24              	PWM_2_SaveConfig:
  25              	.LFB0:
  26              		.file 1 ".\\Generated_Source\\PSoC5\\PWM_2_PM.c"
   1:.\Generated_Source\PSoC5/PWM_2_PM.c **** /*******************************************************************************
   2:.\Generated_Source\PSoC5/PWM_2_PM.c **** * File Name: PWM_2_PM.c
   3:.\Generated_Source\PSoC5/PWM_2_PM.c **** * Version 3.30
   4:.\Generated_Source\PSoC5/PWM_2_PM.c **** *
   5:.\Generated_Source\PSoC5/PWM_2_PM.c **** * Description:
   6:.\Generated_Source\PSoC5/PWM_2_PM.c **** *  This file provides the power management source code to API for the
   7:.\Generated_Source\PSoC5/PWM_2_PM.c **** *  PWM.
   8:.\Generated_Source\PSoC5/PWM_2_PM.c **** *
   9:.\Generated_Source\PSoC5/PWM_2_PM.c **** * Note:
  10:.\Generated_Source\PSoC5/PWM_2_PM.c **** *
  11:.\Generated_Source\PSoC5/PWM_2_PM.c **** ********************************************************************************
  12:.\Generated_Source\PSoC5/PWM_2_PM.c **** * Copyright 2008-2014, Cypress Semiconductor Corporation.  All rights reserved.
  13:.\Generated_Source\PSoC5/PWM_2_PM.c **** * You may use this file only in accordance with the license, terms, conditions,
  14:.\Generated_Source\PSoC5/PWM_2_PM.c **** * disclaimers, and limitations in the end user license agreement accompanying
  15:.\Generated_Source\PSoC5/PWM_2_PM.c **** * the software package with which this file was provided.
  16:.\Generated_Source\PSoC5/PWM_2_PM.c **** *******************************************************************************/
  17:.\Generated_Source\PSoC5/PWM_2_PM.c **** 
  18:.\Generated_Source\PSoC5/PWM_2_PM.c **** #include "PWM_2.h"
  19:.\Generated_Source\PSoC5/PWM_2_PM.c **** 
  20:.\Generated_Source\PSoC5/PWM_2_PM.c **** static PWM_2_backupStruct PWM_2_backup;
  21:.\Generated_Source\PSoC5/PWM_2_PM.c **** 
  22:.\Generated_Source\PSoC5/PWM_2_PM.c **** 
  23:.\Generated_Source\PSoC5/PWM_2_PM.c **** /*******************************************************************************
  24:.\Generated_Source\PSoC5/PWM_2_PM.c **** * Function Name: PWM_2_SaveConfig
  25:.\Generated_Source\PSoC5/PWM_2_PM.c **** ********************************************************************************
  26:.\Generated_Source\PSoC5/PWM_2_PM.c **** *
  27:.\Generated_Source\PSoC5/PWM_2_PM.c **** * Summary:
  28:.\Generated_Source\PSoC5/PWM_2_PM.c **** *  Saves the current user configuration of the component.
  29:.\Generated_Source\PSoC5/PWM_2_PM.c **** *
  30:.\Generated_Source\PSoC5/PWM_2_PM.c **** * Parameters:
  31:.\Generated_Source\PSoC5/PWM_2_PM.c **** *  None
ARM GAS  C:\Users\ADMINI~1\AppData\Local\Temp\cc29a68g.s 			page 2


  32:.\Generated_Source\PSoC5/PWM_2_PM.c **** *
  33:.\Generated_Source\PSoC5/PWM_2_PM.c **** * Return:
  34:.\Generated_Source\PSoC5/PWM_2_PM.c **** *  None
  35:.\Generated_Source\PSoC5/PWM_2_PM.c **** *
  36:.\Generated_Source\PSoC5/PWM_2_PM.c **** * Global variables:
  37:.\Generated_Source\PSoC5/PWM_2_PM.c **** *  PWM_2_backup:  Variables of this global structure are modified to
  38:.\Generated_Source\PSoC5/PWM_2_PM.c **** *  store the values of non retention configuration registers when Sleep() API is
  39:.\Generated_Source\PSoC5/PWM_2_PM.c **** *  called.
  40:.\Generated_Source\PSoC5/PWM_2_PM.c **** *
  41:.\Generated_Source\PSoC5/PWM_2_PM.c **** *******************************************************************************/
  42:.\Generated_Source\PSoC5/PWM_2_PM.c **** void PWM_2_SaveConfig(void) 
  43:.\Generated_Source\PSoC5/PWM_2_PM.c **** {
  27              		.loc 1 43 0
  28              		.cfi_startproc
  29              		@ args = 0, pretend = 0, frame = 0
  30              		@ frame_needed = 0, uses_anonymous_args = 0
  31 0000 10B5     		push	{r4, lr}
  32              		.cfi_def_cfa_offset 8
  33              		.cfi_offset 4, -8
  34              		.cfi_offset 14, -4
  44:.\Generated_Source\PSoC5/PWM_2_PM.c **** 
  45:.\Generated_Source\PSoC5/PWM_2_PM.c ****     #if(!PWM_2_UsingFixedFunction)
  46:.\Generated_Source\PSoC5/PWM_2_PM.c ****         #if(!PWM_2_PWMModeIsCenterAligned)
  47:.\Generated_Source\PSoC5/PWM_2_PM.c ****             PWM_2_backup.PWMPeriod = PWM_2_ReadPeriod();
  35              		.loc 1 47 0
  36 0002 FFF7FEFF 		bl	PWM_2_ReadPeriod
  37              	.LVL0:
  38 0006 044C     		ldr	r4, .L3
  39 0008 A080     		strh	r0, [r4, #4]	@ movhi
  48:.\Generated_Source\PSoC5/PWM_2_PM.c ****         #endif /* (!PWM_2_PWMModeIsCenterAligned) */
  49:.\Generated_Source\PSoC5/PWM_2_PM.c ****         PWM_2_backup.PWMUdb = PWM_2_ReadCounter();
  40              		.loc 1 49 0
  41 000a FFF7FEFF 		bl	PWM_2_ReadCounter
  42              	.LVL1:
  43 000e 6080     		strh	r0, [r4, #2]	@ movhi
  50:.\Generated_Source\PSoC5/PWM_2_PM.c ****         #if (PWM_2_UseStatus)
  51:.\Generated_Source\PSoC5/PWM_2_PM.c ****             PWM_2_backup.InterruptMaskValue = PWM_2_STATUS_MASK;
  52:.\Generated_Source\PSoC5/PWM_2_PM.c ****         #endif /* (PWM_2_UseStatus) */
  53:.\Generated_Source\PSoC5/PWM_2_PM.c **** 
  54:.\Generated_Source\PSoC5/PWM_2_PM.c ****         #if(PWM_2_DeadBandMode == PWM_2__B_PWM__DBM_256_CLOCKS || \
  55:.\Generated_Source\PSoC5/PWM_2_PM.c ****             PWM_2_DeadBandMode == PWM_2__B_PWM__DBM_2_4_CLOCKS)
  56:.\Generated_Source\PSoC5/PWM_2_PM.c ****             PWM_2_backup.PWMdeadBandValue = PWM_2_ReadDeadTime();
  57:.\Generated_Source\PSoC5/PWM_2_PM.c ****         #endif /*  deadband count is either 2-4 clocks or 256 clocks */
  58:.\Generated_Source\PSoC5/PWM_2_PM.c **** 
  59:.\Generated_Source\PSoC5/PWM_2_PM.c ****         #if(PWM_2_KillModeMinTime)
  60:.\Generated_Source\PSoC5/PWM_2_PM.c ****              PWM_2_backup.PWMKillCounterPeriod = PWM_2_ReadKillTime();
  61:.\Generated_Source\PSoC5/PWM_2_PM.c ****         #endif /* (PWM_2_KillModeMinTime) */
  62:.\Generated_Source\PSoC5/PWM_2_PM.c **** 
  63:.\Generated_Source\PSoC5/PWM_2_PM.c ****         #if(PWM_2_UseControl)
  64:.\Generated_Source\PSoC5/PWM_2_PM.c ****             PWM_2_backup.PWMControlRegister = PWM_2_ReadControlRegister();
  44              		.loc 1 64 0
  45 0010 FFF7FEFF 		bl	PWM_2_ReadControlRegister
  46              	.LVL2:
  47 0014 A071     		strb	r0, [r4, #6]
  48 0016 10BD     		pop	{r4, pc}
  49              	.L4:
  50              		.align	2
ARM GAS  C:\Users\ADMINI~1\AppData\Local\Temp\cc29a68g.s 			page 3


  51              	.L3:
  52 0018 00000000 		.word	.LANCHOR0
  53              		.cfi_endproc
  54              	.LFE0:
  55              		.size	PWM_2_SaveConfig, .-PWM_2_SaveConfig
  56              		.section	.text.PWM_2_RestoreConfig,"ax",%progbits
  57              		.align	2
  58              		.global	PWM_2_RestoreConfig
  59              		.thumb
  60              		.thumb_func
  61              		.type	PWM_2_RestoreConfig, %function
  62              	PWM_2_RestoreConfig:
  63              	.LFB1:
  65:.\Generated_Source\PSoC5/PWM_2_PM.c ****         #endif /* (PWM_2_UseControl) */
  66:.\Generated_Source\PSoC5/PWM_2_PM.c ****     #endif  /* (!PWM_2_UsingFixedFunction) */
  67:.\Generated_Source\PSoC5/PWM_2_PM.c **** }
  68:.\Generated_Source\PSoC5/PWM_2_PM.c **** 
  69:.\Generated_Source\PSoC5/PWM_2_PM.c **** 
  70:.\Generated_Source\PSoC5/PWM_2_PM.c **** /*******************************************************************************
  71:.\Generated_Source\PSoC5/PWM_2_PM.c **** * Function Name: PWM_2_RestoreConfig
  72:.\Generated_Source\PSoC5/PWM_2_PM.c **** ********************************************************************************
  73:.\Generated_Source\PSoC5/PWM_2_PM.c **** *
  74:.\Generated_Source\PSoC5/PWM_2_PM.c **** * Summary:
  75:.\Generated_Source\PSoC5/PWM_2_PM.c **** *  Restores the current user configuration of the component.
  76:.\Generated_Source\PSoC5/PWM_2_PM.c **** *
  77:.\Generated_Source\PSoC5/PWM_2_PM.c **** * Parameters:
  78:.\Generated_Source\PSoC5/PWM_2_PM.c **** *  None
  79:.\Generated_Source\PSoC5/PWM_2_PM.c **** *
  80:.\Generated_Source\PSoC5/PWM_2_PM.c **** * Return:
  81:.\Generated_Source\PSoC5/PWM_2_PM.c **** *  None
  82:.\Generated_Source\PSoC5/PWM_2_PM.c **** *
  83:.\Generated_Source\PSoC5/PWM_2_PM.c **** * Global variables:
  84:.\Generated_Source\PSoC5/PWM_2_PM.c **** *  PWM_2_backup:  Variables of this global structure are used to
  85:.\Generated_Source\PSoC5/PWM_2_PM.c **** *  restore the values of non retention registers on wakeup from sleep mode.
  86:.\Generated_Source\PSoC5/PWM_2_PM.c **** *
  87:.\Generated_Source\PSoC5/PWM_2_PM.c **** *******************************************************************************/
  88:.\Generated_Source\PSoC5/PWM_2_PM.c **** void PWM_2_RestoreConfig(void) 
  89:.\Generated_Source\PSoC5/PWM_2_PM.c **** {
  64              		.loc 1 89 0
  65              		.cfi_startproc
  66              		@ args = 0, pretend = 0, frame = 0
  67              		@ frame_needed = 0, uses_anonymous_args = 0
  68 0000 10B5     		push	{r4, lr}
  69              		.cfi_def_cfa_offset 8
  70              		.cfi_offset 4, -8
  71              		.cfi_offset 14, -4
  90:.\Generated_Source\PSoC5/PWM_2_PM.c ****         #if(!PWM_2_UsingFixedFunction)
  91:.\Generated_Source\PSoC5/PWM_2_PM.c ****             #if(!PWM_2_PWMModeIsCenterAligned)
  92:.\Generated_Source\PSoC5/PWM_2_PM.c ****                 PWM_2_WritePeriod(PWM_2_backup.PWMPeriod);
  72              		.loc 1 92 0
  73 0002 054C     		ldr	r4, .L7
  74 0004 A088     		ldrh	r0, [r4, #4]
  75 0006 FFF7FEFF 		bl	PWM_2_WritePeriod
  76              	.LVL3:
  93:.\Generated_Source\PSoC5/PWM_2_PM.c ****             #endif /* (!PWM_2_PWMModeIsCenterAligned) */
  94:.\Generated_Source\PSoC5/PWM_2_PM.c **** 
  95:.\Generated_Source\PSoC5/PWM_2_PM.c ****             PWM_2_WriteCounter(PWM_2_backup.PWMUdb);
ARM GAS  C:\Users\ADMINI~1\AppData\Local\Temp\cc29a68g.s 			page 4


  77              		.loc 1 95 0
  78 000a 6088     		ldrh	r0, [r4, #2]
  79 000c FFF7FEFF 		bl	PWM_2_WriteCounter
  80              	.LVL4:
  96:.\Generated_Source\PSoC5/PWM_2_PM.c **** 
  97:.\Generated_Source\PSoC5/PWM_2_PM.c ****             #if (PWM_2_UseStatus)
  98:.\Generated_Source\PSoC5/PWM_2_PM.c ****                 PWM_2_STATUS_MASK = PWM_2_backup.InterruptMaskValue;
  99:.\Generated_Source\PSoC5/PWM_2_PM.c ****             #endif /* (PWM_2_UseStatus) */
 100:.\Generated_Source\PSoC5/PWM_2_PM.c **** 
 101:.\Generated_Source\PSoC5/PWM_2_PM.c ****             #if(PWM_2_DeadBandMode == PWM_2__B_PWM__DBM_256_CLOCKS || \
 102:.\Generated_Source\PSoC5/PWM_2_PM.c ****                 PWM_2_DeadBandMode == PWM_2__B_PWM__DBM_2_4_CLOCKS)
 103:.\Generated_Source\PSoC5/PWM_2_PM.c ****                 PWM_2_WriteDeadTime(PWM_2_backup.PWMdeadBandValue);
 104:.\Generated_Source\PSoC5/PWM_2_PM.c ****             #endif /* deadband count is either 2-4 clocks or 256 clocks */
 105:.\Generated_Source\PSoC5/PWM_2_PM.c **** 
 106:.\Generated_Source\PSoC5/PWM_2_PM.c ****             #if(PWM_2_KillModeMinTime)
 107:.\Generated_Source\PSoC5/PWM_2_PM.c ****                 PWM_2_WriteKillTime(PWM_2_backup.PWMKillCounterPeriod);
 108:.\Generated_Source\PSoC5/PWM_2_PM.c ****             #endif /* (PWM_2_KillModeMinTime) */
 109:.\Generated_Source\PSoC5/PWM_2_PM.c **** 
 110:.\Generated_Source\PSoC5/PWM_2_PM.c ****             #if(PWM_2_UseControl)
 111:.\Generated_Source\PSoC5/PWM_2_PM.c ****                 PWM_2_WriteControlRegister(PWM_2_backup.PWMControlRegister);
  81              		.loc 1 111 0
  82 0010 A079     		ldrb	r0, [r4, #6]	@ zero_extendqisi2
  83 0012 FFF7FEFF 		bl	PWM_2_WriteControlRegister
  84              	.LVL5:
  85 0016 10BD     		pop	{r4, pc}
  86              	.L8:
  87              		.align	2
  88              	.L7:
  89 0018 00000000 		.word	.LANCHOR0
  90              		.cfi_endproc
  91              	.LFE1:
  92              		.size	PWM_2_RestoreConfig, .-PWM_2_RestoreConfig
  93              		.section	.text.PWM_2_Sleep,"ax",%progbits
  94              		.align	2
  95              		.global	PWM_2_Sleep
  96              		.thumb
  97              		.thumb_func
  98              		.type	PWM_2_Sleep, %function
  99              	PWM_2_Sleep:
 100              	.LFB2:
 112:.\Generated_Source\PSoC5/PWM_2_PM.c ****             #endif /* (PWM_2_UseControl) */
 113:.\Generated_Source\PSoC5/PWM_2_PM.c ****         #endif  /* (!PWM_2_UsingFixedFunction) */
 114:.\Generated_Source\PSoC5/PWM_2_PM.c ****     }
 115:.\Generated_Source\PSoC5/PWM_2_PM.c **** 
 116:.\Generated_Source\PSoC5/PWM_2_PM.c **** 
 117:.\Generated_Source\PSoC5/PWM_2_PM.c **** /*******************************************************************************
 118:.\Generated_Source\PSoC5/PWM_2_PM.c **** * Function Name: PWM_2_Sleep
 119:.\Generated_Source\PSoC5/PWM_2_PM.c **** ********************************************************************************
 120:.\Generated_Source\PSoC5/PWM_2_PM.c **** *
 121:.\Generated_Source\PSoC5/PWM_2_PM.c **** * Summary:
 122:.\Generated_Source\PSoC5/PWM_2_PM.c **** *  Disables block's operation and saves the user configuration. Should be called
 123:.\Generated_Source\PSoC5/PWM_2_PM.c **** *  just prior to entering sleep.
 124:.\Generated_Source\PSoC5/PWM_2_PM.c **** *
 125:.\Generated_Source\PSoC5/PWM_2_PM.c **** * Parameters:
 126:.\Generated_Source\PSoC5/PWM_2_PM.c **** *  None
 127:.\Generated_Source\PSoC5/PWM_2_PM.c **** *
 128:.\Generated_Source\PSoC5/PWM_2_PM.c **** * Return:
ARM GAS  C:\Users\ADMINI~1\AppData\Local\Temp\cc29a68g.s 			page 5


 129:.\Generated_Source\PSoC5/PWM_2_PM.c **** *  None
 130:.\Generated_Source\PSoC5/PWM_2_PM.c **** *
 131:.\Generated_Source\PSoC5/PWM_2_PM.c **** * Global variables:
 132:.\Generated_Source\PSoC5/PWM_2_PM.c **** *  PWM_2_backup.PWMEnableState:  Is modified depending on the enable
 133:.\Generated_Source\PSoC5/PWM_2_PM.c **** *  state of the block before entering sleep mode.
 134:.\Generated_Source\PSoC5/PWM_2_PM.c **** *
 135:.\Generated_Source\PSoC5/PWM_2_PM.c **** *******************************************************************************/
 136:.\Generated_Source\PSoC5/PWM_2_PM.c **** void PWM_2_Sleep(void) 
 137:.\Generated_Source\PSoC5/PWM_2_PM.c **** {
 101              		.loc 1 137 0
 102              		.cfi_startproc
 103              		@ args = 0, pretend = 0, frame = 0
 104              		@ frame_needed = 0, uses_anonymous_args = 0
 105 0000 08B5     		push	{r3, lr}
 106              		.cfi_def_cfa_offset 8
 107              		.cfi_offset 3, -8
 108              		.cfi_offset 14, -4
 138:.\Generated_Source\PSoC5/PWM_2_PM.c ****     #if(PWM_2_UseControl)
 139:.\Generated_Source\PSoC5/PWM_2_PM.c ****         if(PWM_2_CTRL_ENABLE == (PWM_2_CONTROL & PWM_2_CTRL_ENABLE))
 109              		.loc 1 139 0
 110 0002 084B     		ldr	r3, .L13
 111 0004 1B78     		ldrb	r3, [r3]	@ zero_extendqisi2
 112 0006 13F0800F 		tst	r3, #128
 113 000a 03D0     		beq	.L10
 140:.\Generated_Source\PSoC5/PWM_2_PM.c ****         {
 141:.\Generated_Source\PSoC5/PWM_2_PM.c ****             /*Component is enabled */
 142:.\Generated_Source\PSoC5/PWM_2_PM.c ****             PWM_2_backup.PWMEnableState = 1u;
 114              		.loc 1 142 0
 115 000c 0122     		movs	r2, #1
 116 000e 064B     		ldr	r3, .L13+4
 117 0010 1A70     		strb	r2, [r3]
 118 0012 02E0     		b	.L11
 119              	.L10:
 143:.\Generated_Source\PSoC5/PWM_2_PM.c ****         }
 144:.\Generated_Source\PSoC5/PWM_2_PM.c ****         else
 145:.\Generated_Source\PSoC5/PWM_2_PM.c ****         {
 146:.\Generated_Source\PSoC5/PWM_2_PM.c ****             /* Component is disabled */
 147:.\Generated_Source\PSoC5/PWM_2_PM.c ****             PWM_2_backup.PWMEnableState = 0u;
 120              		.loc 1 147 0
 121 0014 0022     		movs	r2, #0
 122 0016 044B     		ldr	r3, .L13+4
 123 0018 1A70     		strb	r2, [r3]
 124              	.L11:
 148:.\Generated_Source\PSoC5/PWM_2_PM.c ****         }
 149:.\Generated_Source\PSoC5/PWM_2_PM.c ****     #endif /* (PWM_2_UseControl) */
 150:.\Generated_Source\PSoC5/PWM_2_PM.c **** 
 151:.\Generated_Source\PSoC5/PWM_2_PM.c ****     /* Stop component */
 152:.\Generated_Source\PSoC5/PWM_2_PM.c ****     PWM_2_Stop();
 125              		.loc 1 152 0
 126 001a FFF7FEFF 		bl	PWM_2_Stop
 127              	.LVL6:
 153:.\Generated_Source\PSoC5/PWM_2_PM.c **** 
 154:.\Generated_Source\PSoC5/PWM_2_PM.c ****     /* Save registers configuration */
 155:.\Generated_Source\PSoC5/PWM_2_PM.c ****     PWM_2_SaveConfig();
 128              		.loc 1 155 0
 129 001e FFF7FEFF 		bl	PWM_2_SaveConfig
 130              	.LVL7:
ARM GAS  C:\Users\ADMINI~1\AppData\Local\Temp\cc29a68g.s 			page 6


 131 0022 08BD     		pop	{r3, pc}
 132              	.L14:
 133              		.align	2
 134              	.L13:
 135 0024 77640040 		.word	1073767543
 136 0028 00000000 		.word	.LANCHOR0
 137              		.cfi_endproc
 138              	.LFE2:
 139              		.size	PWM_2_Sleep, .-PWM_2_Sleep
 140              		.section	.text.PWM_2_Wakeup,"ax",%progbits
 141              		.align	2
 142              		.global	PWM_2_Wakeup
 143              		.thumb
 144              		.thumb_func
 145              		.type	PWM_2_Wakeup, %function
 146              	PWM_2_Wakeup:
 147              	.LFB3:
 156:.\Generated_Source\PSoC5/PWM_2_PM.c **** }
 157:.\Generated_Source\PSoC5/PWM_2_PM.c **** 
 158:.\Generated_Source\PSoC5/PWM_2_PM.c **** 
 159:.\Generated_Source\PSoC5/PWM_2_PM.c **** /*******************************************************************************
 160:.\Generated_Source\PSoC5/PWM_2_PM.c **** * Function Name: PWM_2_Wakeup
 161:.\Generated_Source\PSoC5/PWM_2_PM.c **** ********************************************************************************
 162:.\Generated_Source\PSoC5/PWM_2_PM.c **** *
 163:.\Generated_Source\PSoC5/PWM_2_PM.c **** * Summary:
 164:.\Generated_Source\PSoC5/PWM_2_PM.c **** *  Restores and enables the user configuration. Should be called just after
 165:.\Generated_Source\PSoC5/PWM_2_PM.c **** *  awaking from sleep.
 166:.\Generated_Source\PSoC5/PWM_2_PM.c **** *
 167:.\Generated_Source\PSoC5/PWM_2_PM.c **** * Parameters:
 168:.\Generated_Source\PSoC5/PWM_2_PM.c **** *  None
 169:.\Generated_Source\PSoC5/PWM_2_PM.c **** *
 170:.\Generated_Source\PSoC5/PWM_2_PM.c **** * Return:
 171:.\Generated_Source\PSoC5/PWM_2_PM.c **** *  None
 172:.\Generated_Source\PSoC5/PWM_2_PM.c **** *
 173:.\Generated_Source\PSoC5/PWM_2_PM.c **** * Global variables:
 174:.\Generated_Source\PSoC5/PWM_2_PM.c **** *  PWM_2_backup.pwmEnable:  Is used to restore the enable state of
 175:.\Generated_Source\PSoC5/PWM_2_PM.c **** *  block on wakeup from sleep mode.
 176:.\Generated_Source\PSoC5/PWM_2_PM.c **** *
 177:.\Generated_Source\PSoC5/PWM_2_PM.c **** *******************************************************************************/
 178:.\Generated_Source\PSoC5/PWM_2_PM.c **** void PWM_2_Wakeup(void) 
 179:.\Generated_Source\PSoC5/PWM_2_PM.c **** {
 148              		.loc 1 179 0
 149              		.cfi_startproc
 150              		@ args = 0, pretend = 0, frame = 0
 151              		@ frame_needed = 0, uses_anonymous_args = 0
 152 0000 08B5     		push	{r3, lr}
 153              		.cfi_def_cfa_offset 8
 154              		.cfi_offset 3, -8
 155              		.cfi_offset 14, -4
 180:.\Generated_Source\PSoC5/PWM_2_PM.c ****      /* Restore registers values */
 181:.\Generated_Source\PSoC5/PWM_2_PM.c ****     PWM_2_RestoreConfig();
 156              		.loc 1 181 0
 157 0002 FFF7FEFF 		bl	PWM_2_RestoreConfig
 158              	.LVL8:
 182:.\Generated_Source\PSoC5/PWM_2_PM.c **** 
 183:.\Generated_Source\PSoC5/PWM_2_PM.c ****     if(PWM_2_backup.PWMEnableState != 0u)
 159              		.loc 1 183 0
ARM GAS  C:\Users\ADMINI~1\AppData\Local\Temp\cc29a68g.s 			page 7


 160 0006 034B     		ldr	r3, .L18
 161 0008 1B78     		ldrb	r3, [r3]	@ zero_extendqisi2
 162 000a 0BB1     		cbz	r3, .L15
 184:.\Generated_Source\PSoC5/PWM_2_PM.c ****     {
 185:.\Generated_Source\PSoC5/PWM_2_PM.c ****         /* Enable component's operation */
 186:.\Generated_Source\PSoC5/PWM_2_PM.c ****         PWM_2_Enable();
 163              		.loc 1 186 0
 164 000c FFF7FEFF 		bl	PWM_2_Enable
 165              	.LVL9:
 166              	.L15:
 167 0010 08BD     		pop	{r3, pc}
 168              	.L19:
 169 0012 00BF     		.align	2
 170              	.L18:
 171 0014 00000000 		.word	.LANCHOR0
 172              		.cfi_endproc
 173              	.LFE3:
 174              		.size	PWM_2_Wakeup, .-PWM_2_Wakeup
 175              		.bss
 176              		.align	2
 177              		.set	.LANCHOR0,. + 0
 178              		.type	PWM_2_backup, %object
 179              		.size	PWM_2_backup, 8
 180              	PWM_2_backup:
 181 0000 00000000 		.space	8
 181      00000000 
 182              		.text
 183              	.Letext0:
 184              		.file 2 ".\\Generated_Source\\PSoC5\\cytypes.h"
 185              		.file 3 ".\\Generated_Source\\PSoC5\\PWM_2.h"